---
triple:          'arm64-apple-darwin'
binary-path:     a.out
relocations:
  - { offsetInCU: 0x44, offset: 0x44, size: 0x8, addend: 0x0, symName: __ZN6chisel4tabsE, symObjAddr: 0x15EFF8, symBinAddr: 0x10002C008, symSize: 0x0 }
  - { offsetInCU: 0x57, offset: 0x57, size: 0x8, addend: 0x0, symName: __ZN6chisel5Token11failed_dataE, symObjAddr: 0x24D38, symBinAddr: 0x10002C000, symSize: 0x0 }
  - { offsetInCU: 0x420, offset: 0x420, size: 0x8, addend: 0x0, symName: __ZN6chisel5Token6failedE, symObjAddr: 0x15F000, symBinAddr: 0x10002C010, symSize: 0x0 }
  - { offsetInCU: 0x433, offset: 0x433, size: 0x8, addend: 0x0, symName: __ZN6chisel6Parser4Node6failedE, symObjAddr: 0x15F010, symBinAddr: 0x10002C020, symSize: 0x0 }
  - { offsetInCU: 0x1043, offset: 0x1043, size: 0x8, addend: 0x0, symName: __ZN6chisellsERNSt3__113basic_ostreamIcNS0_11char_traitsIcEEEERKNS_6Parser4NodeE, symObjAddr: 0x6A58, symBinAddr: 0x10000792C, symSize: 0x7C }
  - { offsetInCU: 0x1080, offset: 0x1080, size: 0x8, addend: 0x0, symName: __ZN6chisellsERNSt3__113basic_ostreamIcNS0_11char_traitsIcEEEERKNS_5TokenE, symObjAddr: 0x6AF0, symBinAddr: 0x1000079C4, symSize: 0x1C4 }
  - { offsetInCU: 0x10F2, offset: 0x10F2, size: 0x8, addend: 0x0, symName: __ZN6chisellsERNSt3__113basic_ostreamIcNS0_11char_traitsIcEEEERKNS_6Parser9ParseNodeE, symObjAddr: 0x6CC8, symBinAddr: 0x100007B9C, symSize: 0x16C }
  - { offsetInCU: 0xBFEC, offset: 0xBFEC, size: 0x8, addend: 0x0, symName: '__ZNSt3__110__function10__not_nullB8ue170006IZ17setup_environmentvE3$_0EEbRKT_', symObjAddr: 0x1AC04, symBinAddr: 0x10001BAD8, symSize: 0x18 }
  - { offsetInCU: 0xC01D, offset: 0xC01D, size: 0x8, addend: 0x0, symName: '__ZNSt3__110__function10__not_nullB8ue170006IZ17setup_environmentvE3$_1EEbRKT_', symObjAddr: 0x1C714, symBinAddr: 0x10001D5E8, symSize: 0x18 }
  - { offsetInCU: 0xC04E, offset: 0xC04E, size: 0x8, addend: 0x0, symName: '__ZNSt3__110__function10__not_nullB8ue170006IZ17setup_environmentvE3$_2EEbRKT_', symObjAddr: 0x1E080, symBinAddr: 0x10001EF54, symSize: 0x18 }
  - { offsetInCU: 0xC07F, offset: 0xC07F, size: 0x8, addend: 0x0, symName: '__ZNSt3__110__function10__not_nullB8ue170006IZ17setup_environmentvE3$_3EEbRKT_', symObjAddr: 0x1FA10, symBinAddr: 0x1000208E4, symSize: 0x18 }
  - { offsetInCU: 0xC0B0, offset: 0xC0B0, size: 0x8, addend: 0x0, symName: '__ZNSt3__110__function10__not_nullB8ue170006IZ17setup_environmentvE3$_4EEbRKT_', symObjAddr: 0x21398, symBinAddr: 0x10002226C, symSize: 0x18 }
  - { offsetInCU: 0x124DB, offset: 0x124DB, size: 0x8, addend: 0x0, symName: __ZNSt3__114in_place_indexILm0EEE, symObjAddr: 0x24FFF, symBinAddr: 0x10002662A, symSize: 0x0 }
  - { offsetInCU: 0x12520, offset: 0x12520, size: 0x8, addend: 0x0, symName: __ZNSt3__114in_place_indexILm1EEE, symObjAddr: 0x24FFE, symBinAddr: 0x100026629, symSize: 0x0 }
  - { offsetInCU: 0x12565, offset: 0x12565, size: 0x8, addend: 0x0, symName: __ZNSt3__114in_place_indexILm2EEE, symObjAddr: 0x24FFD, symBinAddr: 0x100026628, symSize: 0x0 }
  - { offsetInCU: 0x125AA, offset: 0x125AA, size: 0x8, addend: 0x0, symName: __ZNSt3__114in_place_indexILm3EEE, symObjAddr: 0x25000, symBinAddr: 0x10002662B, symSize: 0x0 }
  - { offsetInCU: 0x125EF, offset: 0x125EF, size: 0x8, addend: 0x0, symName: __ZNSt3__114in_place_indexILm4EEE, symObjAddr: 0x25001, symBinAddr: 0x10002662C, symSize: 0x0 }
  - { offsetInCU: 0x12634, offset: 0x12634, size: 0x8, addend: 0x0, symName: __ZNSt3__18in_placeE, symObjAddr: 0x25002, symBinAddr: 0x10002662D, symSize: 0x0 }
  - { offsetInCU: 0x12664, offset: 0x12664, size: 0x8, addend: 0x0, symName: __ZNSt3__114in_place_indexILm5EEE, symObjAddr: 0x25003, symBinAddr: 0x10002662E, symSize: 0x0 }
  - { offsetInCU: 0x126A9, offset: 0x126A9, size: 0x8, addend: 0x0, symName: __ZNSt3__119piecewise_constructE, symObjAddr: 0x25004, symBinAddr: 0x10002662F, symSize: 0x0 }
  - { offsetInCU: 0x1C2D1, offset: 0x1C2D1, size: 0x8, addend: 0x0, symName: __ZNSt3__17advanceB8ue170006IPN6chisel6Parser4NodeEllvEEvRT_T0_, symObjAddr: 0xC994, symBinAddr: 0x10000D868, symSize: 0x38 }
  - { offsetInCU: 0x1C552, offset: 0x1C552, size: 0x8, addend: 0x0, symName: __ZNSt3__17advanceB8ue170006INS_16reverse_iteratorIPN6chisel6Parser4NodeEEEllvEEvRT_T0_, symObjAddr: 0xCD68, symBinAddr: 0x10000DC3C, symSize: 0x38 }
  - { offsetInCU: 0x1C5BD, offset: 0x1C5BD, size: 0x8, addend: 0x0, symName: __ZNSt3__124__put_character_sequenceB8ue170006IcNS_11char_traitsIcEEEERNS_13basic_ostreamIT_T0_EES7_PKS4_m, symObjAddr: 0xD3D8, symBinAddr: 0x10000E2AC, symSize: 0x1EC }
  - { offsetInCU: 0x1CC65, offset: 0x1CC65, size: 0x8, addend: 0x0, symName: __ZNSt3__17advanceB8ue170006IP5ValuellvEEvRT_T0_, symObjAddr: 0x16190, symBinAddr: 0x100017064, symSize: 0x38 }
  - { offsetInCU: 0x1CEE6, offset: 0x1CEE6, size: 0x8, addend: 0x0, symName: __ZNSt3__17advanceB8ue170006INS_16reverse_iteratorIP5ValueEEllvEEvRT_T0_, symObjAddr: 0x165C0, symBinAddr: 0x100017494, symSize: 0x38 }
  - { offsetInCU: 0x234E3, offset: 0x234E3, size: 0x8, addend: 0x0, symName: __ZNSt3__1eqB8ue170006IcNS_11char_traitsIcEENS_9allocatorIcEEEEbRKNS_12basic_stringIT_T0_T1_EEPKS6_, symObjAddr: 0x155C, symBinAddr: 0x100002430, symSize: 0x5C }
  - { offsetInCU: 0x23AD8, offset: 0x23AD8, size: 0x8, addend: 0x0, symName: __ZNSt3__13getB8ue170006IbJNS_9monostateEbxdNS_12basic_stringIcNS_11char_traitsIcEENS_9allocatorIcEEEENS_8functionIF5ValueRKNS_6vectorIS9_NS5_IS9_EEEEEEEEEERKT_RKNS_7variantIJDpT0_EEE, symObjAddr: 0x7A40, symBinAddr: 0x100008914, symSize: 0x24 }
  - { offsetInCU: 0x23B33, offset: 0x23B33, size: 0x8, addend: 0x0, symName: __ZNSt3__1eqB8ue170006INS_9allocatorIcEEEEbRKNS_12basic_stringIcNS_11char_traitsIcEET_EES9_, symObjAddr: 0x7A64, symBinAddr: 0x100008938, symSize: 0x148 }
  - { offsetInCU: 0x23BA6, offset: 0x23BA6, size: 0x8, addend: 0x0, symName: __ZNSt3__13getB8ue170006IbJNS_9monostateEbxdNS_12basic_stringIcNS_11char_traitsIcEENS_9allocatorIcEEEENS_8functionIF5ValueRKNS_6vectorIS9_NS5_IS9_EEEEEEEEEEOT_ONS_7variantIJDpT0_EEE, symObjAddr: 0x7D7C, symBinAddr: 0x100008C50, symSize: 0x24 }
  - { offsetInCU: 0x23C02, offset: 0x23C02, size: 0x8, addend: 0x0, symName: __ZNSt3__1ltB8ue170006ENS_15strong_orderingENS_20_CmpUnspecifiedParamE, symObjAddr: 0x7F60, symBinAddr: 0x100008E34, symSize: 0x24 }
  - { offsetInCU: 0x23C3C, offset: 0x23C3C, size: 0x8, addend: 0x0, symName: __ZNSt3__1ssB8ue170006IcNS_11char_traitsIcEENS_9allocatorIcEEEEDaRKNS_12basic_stringIT_T0_T1_EESC_, symObjAddr: 0x7F84, symBinAddr: 0x100008E58, symSize: 0x5C }
  - { offsetInCU: 0x23CB0, offset: 0x23CB0, size: 0x8, addend: 0x0, symName: __ZNSt3__1neB8ue170006IPKN6chisel6Parser4NodeEEEbRKNS_11__wrap_iterIT_EESA_, symObjAddr: 0x9C08, symBinAddr: 0x10000AADC, symSize: 0x34 }
  - { offsetInCU: 0x23CF3, offset: 0x23CF3, size: 0x8, addend: 0x0, symName: __ZNSt3__1eqB8ue170006ERKNS_19__hash_map_iteratorINS_15__hash_iteratorIPNS_11__hash_nodeINS_17__hash_value_typeINS_12basic_stringIcNS_11char_traitsIcEENS_9allocatorIcEEEE5ValueEEPvEEEEEESI_, symObjAddr: 0x9D68, symBinAddr: 0x10000AC3C, symSize: 0x30 }
  - { offsetInCU: 0x23D30, offset: 0x23D30, size: 0x8, addend: 0x0, symName: __ZNSt3__13getB8ue170006INS_8functionIF5ValueRKNS_6vectorIS2_NS_9allocatorIS2_EEEEEEEJNS_9monostateEbxdNS_12basic_stringIcNS_11char_traitsIcEENS4_IcEEEESA_EEERT_RNS_7variantIJDpT0_EEE, symObjAddr: 0x9E24, symBinAddr: 0x10000ACF8, symSize: 0x24 }
  - { offsetInCU: 0x24606, offset: 0x24606, size: 0x8, addend: 0x0, symName: __ZNSt3__1eqB8ue170006IcNS_11char_traitsIcEEEEbNS_17basic_string_viewIT_T0_EES6_, symObjAddr: 0xA5DC, symBinAddr: 0x10000B4B0, symSize: 0xB0 }
  - { offsetInCU: 0x24655, offset: 0x24655, size: 0x8, addend: 0x0, symName: __ZNSt3__13minB8ue170006ImEERKT_S3_S3_, symObjAddr: 0xA864, symBinAddr: 0x10000B738, symSize: 0x2C }
  - { offsetInCU: 0x24698, offset: 0x24698, size: 0x8, addend: 0x0, symName: __ZNSt3__13minB8ue170006ImNS_6__lessIvvEEEERKT_S5_S5_T0_, symObjAddr: 0xA8DC, symBinAddr: 0x10000B7B0, symSize: 0x54 }
  - { offsetInCU: 0x2473A, offset: 0x2473A, size: 0x8, addend: 0x0, symName: __ZNSt3__112__to_addressB8ue170006IKcEEPT_S3_, symObjAddr: 0xA9C8, symBinAddr: 0x10000B89C, symSize: 0x14 }
  - { offsetInCU: 0x247A2, offset: 0x247A2, size: 0x8, addend: 0x0, symName: __ZNSt3__128__char_traits_length_checkedB8ue170006INS_11char_traitsIcEEEEmPKNT_9char_typeE, symObjAddr: 0xAB74, symBinAddr: 0x10000BA48, symSize: 0x24 }
  - { offsetInCU: 0x247D9, offset: 0x247D9, size: 0x8, addend: 0x0, symName: __ZNSt3__118__constexpr_strlenB8ue170006EPKc, symObjAddr: 0xABCC, symBinAddr: 0x10000BAA0, symSize: 0x24 }
  - { offsetInCU: 0x24806, offset: 0x24806, size: 0x8, addend: 0x0, symName: __ZNSt3__112__to_addressB8ue170006IcEEPT_S2_, symObjAddr: 0xAC4C, symBinAddr: 0x10000BB20, symSize: 0x14 }
  - { offsetInCU: 0x2483C, offset: 0x2483C, size: 0x8, addend: 0x0, symName: __ZNSt3__112__to_addressB8ue170006IN6chisel6Parser4NodeEEEPT_S5_, symObjAddr: 0xB56C, symBinAddr: 0x10000C440, symSize: 0x14 }
  - { offsetInCU: 0x24872, offset: 0x24872, size: 0x8, addend: 0x0, symName: __ZNSt3__110destroy_atB8ue170006IN6chisel6Parser4NodeELi0EEEvPT_, symObjAddr: 0xB580, symBinAddr: 0x10000C454, symSize: 0x24 }
  - { offsetInCU: 0x248AA, offset: 0x248AA, size: 0x8, addend: 0x0, symName: __ZNSt3__112__destroy_atB8ue170006IN6chisel6Parser4NodeELi0EEEvPT_, symObjAddr: 0xB5A4, symBinAddr: 0x10000C478, symSize: 0x24 }
  - { offsetInCU: 0x248E2, offset: 0x248E2, size: 0x8, addend: 0x0, symName: __ZNSt3__119__libcpp_deallocateB8ue170006EPvmm, symObjAddr: 0xB654, symBinAddr: 0x10000C528, symSize: 0x60 }
  - { offsetInCU: 0x24948, offset: 0x24948, size: 0x8, addend: 0x0, symName: __ZNSt3__124__is_overaligned_for_newB8ue170006Em, symObjAddr: 0xB6B4, symBinAddr: 0x10000C588, symSize: 0x20 }
  - { offsetInCU: 0x24977, offset: 0x24977, size: 0x8, addend: 0x0, symName: __ZNSt3__127__do_deallocate_handle_sizeB8ue170006IJSt11align_val_tEEEvPvmDpT_, symObjAddr: 0xB6D4, symBinAddr: 0x10000C5A8, symSize: 0x30 }
  - { offsetInCU: 0x249CB, offset: 0x249CB, size: 0x8, addend: 0x0, symName: __ZNSt3__127__do_deallocate_handle_sizeB8ue170006IJEEEvPvmDpT_, symObjAddr: 0xB704, symBinAddr: 0x10000C5D8, symSize: 0x28 }
  - { offsetInCU: 0x24A0A, offset: 0x24A0A, size: 0x8, addend: 0x0, symName: __ZNSt3__124__libcpp_operator_deleteB8ue170006IJPvSt11align_val_tEEEvDpT_, symObjAddr: 0xB72C, symBinAddr: 0x10000C600, symSize: 0x2C }
  - { offsetInCU: 0x24A54, offset: 0x24A54, size: 0x8, addend: 0x0, symName: __ZNSt3__124__libcpp_operator_deleteB8ue170006IJPvEEEvDpT_, symObjAddr: 0xB758, symBinAddr: 0x10000C62C, symSize: 0x24 }
  - { offsetInCU: 0x24AB0, offset: 0x24AB0, size: 0x8, addend: 0x0, symName: __ZNSt3__112construct_atB8ue170006IN6chisel6Parser4NodeEJRS3_EPS3_EEPT_S7_DpOT0_, symObjAddr: 0xBAFC, symBinAddr: 0x10000C9D0, symSize: 0x3C }
  - { offsetInCU: 0x24B22, offset: 0x24B22, size: 0x8, addend: 0x0, symName: __ZNSt3__13maxB8ue170006ImEERKT_S3_S3_, symObjAddr: 0xBE08, symBinAddr: 0x10000CCDC, symSize: 0x2C }
  - { offsetInCU: 0x24D50, offset: 0x24D50, size: 0x8, addend: 0x0, symName: __ZNSt3__120__throw_length_errorB8ue170006EPKc, symObjAddr: 0xBEF4, symBinAddr: 0x10000CDC8, symSize: 0x64 }
  - { offsetInCU: 0x24D7A, offset: 0x24D7A, size: 0x8, addend: 0x0, symName: __ZNSt3__13maxB8ue170006ImNS_6__lessIvvEEEERKT_S5_S5_T0_, symObjAddr: 0xBFD8, symBinAddr: 0x10000CEAC, symSize: 0x54 }
  - { offsetInCU: 0x24DD4, offset: 0x24DD4, size: 0x8, addend: 0x0, symName: __ZNSt3__119__allocate_at_leastB8ue170006INS_9allocatorIN6chisel6Parser4NodeEEEEENS_19__allocation_resultINS_16allocator_traitsIT_E7pointerEEERS8_m, symObjAddr: 0xC148, symBinAddr: 0x10000D01C, symSize: 0x40 }
  - { offsetInCU: 0x24E17, offset: 0x24E17, size: 0x8, addend: 0x0, symName: __ZNSt3__117__libcpp_allocateB8ue170006Emm, symObjAddr: 0xC2D0, symBinAddr: 0x10000D1A4, symSize: 0x60 }
  - { offsetInCU: 0x24E71, offset: 0x24E71, size: 0x8, addend: 0x0, symName: __ZNSt3__121__libcpp_operator_newB8ue170006IJmSt11align_val_tEEEPvDpT_, symObjAddr: 0xC330, symBinAddr: 0x10000D204, symSize: 0x2C }
  - { offsetInCU: 0x24EBE, offset: 0x24EBE, size: 0x8, addend: 0x0, symName: __ZNSt3__121__libcpp_operator_newB8ue170006IJmEEEPvDpT_, symObjAddr: 0xC35C, symBinAddr: 0x10000D230, symSize: 0x24 }
  - { offsetInCU: 0x24EF7, offset: 0x24EF7, size: 0x8, addend: 0x0, symName: __ZNSt3__142__uninitialized_allocator_move_if_noexceptB8ue170006INS_9allocatorIN6chisel6Parser4NodeEEENS_16reverse_iteratorIPS4_EES8_S8_EET2_RT_T0_T1_S9_, symObjAddr: 0xC3E4, symBinAddr: 0x10000D2B8, symSize: 0x12C }
  - { offsetInCU: 0x24F98, offset: 0x24F98, size: 0x8, addend: 0x0, symName: __ZNSt3__14swapB8ue170006IPN6chisel6Parser4NodeEEENS_9enable_ifIXaasr21is_move_constructibleIT_EE5valuesr18is_move_assignableIS6_EE5valueEvE4typeERS6_S9_, symObjAddr: 0xC55C, symBinAddr: 0x10000D430, symSize: 0x3C }
  - { offsetInCU: 0x24FE9, offset: 0x24FE9, size: 0x8, addend: 0x0, symName: __ZNSt3__122__make_exception_guardB8ue170006INS_29_AllocatorDestroyRangeReverseINS_9allocatorIN6chisel6Parser4NodeEEENS_16reverse_iteratorIPS5_EEEEEENS_28__exception_guard_exceptionsIT_EESC_, symObjAddr: 0xC660, symBinAddr: 0x10000D534, symSize: 0x4C }
  - { offsetInCU: 0x2501F, offset: 0x2501F, size: 0x8, addend: 0x0, symName: __ZNSt3__1neB8ue170006IPN6chisel6Parser4NodeES4_EEbRKNS_16reverse_iteratorIT_EERKNS5_IT0_EE, symObjAddr: 0xC6F0, symBinAddr: 0x10000D5C4, symSize: 0x48 }
  - { offsetInCU: 0x2506B, offset: 0x2506B, size: 0x8, addend: 0x0, symName: __ZNSt3__112__to_addressB8ue170006INS_16reverse_iteratorIPN6chisel6Parser4NodeEEEvEEu7__decayIDTclsr19__to_address_helperIT_EE6__callclsr3stdE7declvalIRKS7_EEEEES9_, symObjAddr: 0xC768, symBinAddr: 0x10000D63C, symSize: 0x24 }
  - { offsetInCU: 0x250A1, offset: 0x250A1, size: 0x8, addend: 0x0, symName: __ZNSt3__112construct_atB8ue170006IN6chisel6Parser4NodeEJRKS3_EPS3_EEPT_S8_DpOT0_, symObjAddr: 0xC8B8, symBinAddr: 0x10000D78C, symSize: 0x3C }
  - { offsetInCU: 0x2513D, offset: 0x2513D, size: 0x8, addend: 0x0, symName: __ZNSt3__14prevB8ue170006IPN6chisel6Parser4NodeEEENS_9enable_ifIXsr29__has_input_iterator_categoryIT_EE5valueES6_E4typeES6_NS_15iterator_traitsIS6_E15difference_typeE, symObjAddr: 0xC958, symBinAddr: 0x10000D82C, symSize: 0x3C }
  - { offsetInCU: 0x25181, offset: 0x25181, size: 0x8, addend: 0x0, symName: __ZNSt3__121__convert_to_integralB8ue170006El, symObjAddr: 0xC9CC, symBinAddr: 0x10000D8A0, symSize: 0x14 }
  - { offsetInCU: 0x251AE, offset: 0x251AE, size: 0x8, addend: 0x0, symName: __ZNSt3__19__advanceB8ue170006IPN6chisel6Parser4NodeEEEvRT_NS_15iterator_traitsIS5_E15difference_typeENS_26random_access_iterator_tagE, symObjAddr: 0xC9E0, symBinAddr: 0x10000D8B4, symSize: 0x30 }
  - { offsetInCU: 0x251F8, offset: 0x251F8, size: 0x8, addend: 0x0, symName: __ZNSt3__119__allocator_destroyB8ue170006INS_9allocatorIN6chisel6Parser4NodeEEENS_16reverse_iteratorINS6_IPS4_EEEES9_EEvRT_T0_T1_, symObjAddr: 0xCB14, symBinAddr: 0x10000D9E8, symSize: 0x70 }
  - { offsetInCU: 0x2525D, offset: 0x2525D, size: 0x8, addend: 0x0, symName: __ZNSt3__1neB8ue170006INS_16reverse_iteratorIPN6chisel6Parser4NodeEEES6_EEbRKNS1_IT_EERKNS1_IT0_EE, symObjAddr: 0xCBC0, symBinAddr: 0x10000DA94, symSize: 0x60 }
  - { offsetInCU: 0x252A9, offset: 0x252A9, size: 0x8, addend: 0x0, symName: __ZNSt3__112__to_addressB8ue170006INS_16reverse_iteratorINS1_IPN6chisel6Parser4NodeEEEEEvEEu7__decayIDTclsr19__to_address_helperIT_EE6__callclsr3stdE7declvalIRKS8_EEEEESA_, symObjAddr: 0xCC20, symBinAddr: 0x10000DAF4, symSize: 0x24 }
  - { offsetInCU: 0x25309, offset: 0x25309, size: 0x8, addend: 0x0, symName: __ZNSt3__14prevB8ue170006INS_16reverse_iteratorIPN6chisel6Parser4NodeEEEEENS_9enable_ifIXsr29__has_input_iterator_categoryIT_EE5valueES8_E4typeES8_NS_15iterator_traitsIS8_E15difference_typeE, symObjAddr: 0xCD1C, symBinAddr: 0x10000DBF0, symSize: 0x4C }
  - { offsetInCU: 0x2534D, offset: 0x2534D, size: 0x8, addend: 0x0, symName: __ZNSt3__19__advanceB8ue170006INS_16reverse_iteratorIPN6chisel6Parser4NodeEEEEEvRT_NS_15iterator_traitsIS7_E15difference_typeENS_26random_access_iterator_tagE, symObjAddr: 0xCDA0, symBinAddr: 0x10000DC74, symSize: 0x2C }
  - { offsetInCU: 0x25396, offset: 0x25396, size: 0x8, addend: 0x0, symName: __ZNSt3__112construct_atB8ue170006IN6chisel6Parser4NodeEJNS1_5TokenEEPS3_EEPT_S7_DpOT0_, symObjAddr: 0xD1F4, symBinAddr: 0x10000E0C8, symSize: 0x3C }
  - { offsetInCU: 0x25408, offset: 0x25408, size: 0x8, addend: 0x0, symName: __ZNSt3__1lsB8ue170006INS_11char_traitsIcEEEERNS_13basic_ostreamIcT_EES6_PKc, symObjAddr: 0xD310, symBinAddr: 0x10000E1E4, symSize: 0x48 }
  - { offsetInCU: 0x2544E, offset: 0x2544E, size: 0x8, addend: 0x0, symName: __ZNSt3__1lsB8ue170006INS_11char_traitsIcEEEERNS_13basic_ostreamIcT_EES6_c, symObjAddr: 0xD358, symBinAddr: 0x10000E22C, symSize: 0x34 }
  - { offsetInCU: 0x25494, offset: 0x25494, size: 0x8, addend: 0x0, symName: __ZNSt3__1lsB8ue170006IcNS_11char_traitsIcEENS_9allocatorIcEEEERNS_13basic_ostreamIT_T0_EES9_RKNS_12basic_stringIS6_S7_T1_EE, symObjAddr: 0xD38C, symBinAddr: 0x10000E260, symSize: 0x4C }
  - { offsetInCU: 0x254EC, offset: 0x254EC, size: 0x8, addend: 0x0, symName: __ZNSt3__116__pad_and_outputB8ue170006IcNS_11char_traitsIcEEEENS_19ostreambuf_iteratorIT_T0_EES6_PKS4_S8_S8_RNS_8ios_baseES4_, symObjAddr: 0xD5E0, symBinAddr: 0x10000E4B4, symSize: 0x240 }
  - { offsetInCU: 0x255BC, offset: 0x255BC, size: 0x8, addend: 0x0, symName: __ZNSt3__19use_facetB8ue170006INS_5ctypeIcEEEERKT_RKNS_6localeE, symObjAddr: 0xDB6C, symBinAddr: 0x10000EA40, symSize: 0x2C }
  - { offsetInCU: 0x25A89, offset: 0x25A89, size: 0x8, addend: 0x0, symName: __ZNSt3__117holds_alternativeB8ue170006INS_12basic_stringIcNS_11char_traitsIcEENS_9allocatorIcEEEEJNS_9monostateEbxdS6_NS_8functionIF5ValueRKNS_6vectorIS9_NS4_IS9_EEEEEEEEEEbRKNS_7variantIJDpT0_EEE, symObjAddr: 0xDC04, symBinAddr: 0x10000EAD8, symSize: 0x28 }
  - { offsetInCU: 0x25AE4, offset: 0x25AE4, size: 0x8, addend: 0x0, symName: __ZNSt3__119__holds_alternativeB8ue170006ILm4EJNS_9monostateEbxdNS_12basic_stringIcNS_11char_traitsIcEENS_9allocatorIcEEEENS_8functionIF5ValueRKNS_6vectorIS9_NS5_IS9_EEEEEEEEEEbRKNS_7variantIJDpT0_EEE, symObjAddr: 0xDC2C, symBinAddr: 0x10000EB00, symSize: 0x30 }
  - { offsetInCU: 0x25B40, offset: 0x25B40, size: 0x8, addend: 0x0, symName: __ZNSt3__13getB8ue170006IxJNS_9monostateEbxdNS_12basic_stringIcNS_11char_traitsIcEENS_9allocatorIcEEEENS_8functionIF5ValueRKNS_6vectorIS9_NS5_IS9_EEEEEEEEEERKT_RKNS_7variantIJDpT0_EEE, symObjAddr: 0xDCF4, symBinAddr: 0x10000EBC8, symSize: 0x24 }
  - { offsetInCU: 0x25B9B, offset: 0x25B9B, size: 0x8, addend: 0x0, symName: __ZNSt3__1lsB8ue170006IcNS_11char_traitsIcEEEERNS_13basic_ostreamIT_T0_EES7_RKNS_8__iom_t5E, symObjAddr: 0xDD18, symBinAddr: 0x10000EBEC, symSize: 0x40 }
  - { offsetInCU: 0x25BE7, offset: 0x25BE7, size: 0x8, addend: 0x0, symName: __ZNSt3__15fixedB8ue170006ERNS_8ios_baseE, symObjAddr: 0xDD98, symBinAddr: 0x10000EC6C, symSize: 0x30 }
  - { offsetInCU: 0x25C15, offset: 0x25C15, size: 0x8, addend: 0x0, symName: __ZNSt3__112setprecisionB8ue170006Ei, symObjAddr: 0xDDC8, symBinAddr: 0x10000EC9C, symSize: 0x2C }
  - { offsetInCU: 0x25C41, offset: 0x25C41, size: 0x8, addend: 0x0, symName: __ZNSt3__13getB8ue170006IdJNS_9monostateEbxdNS_12basic_stringIcNS_11char_traitsIcEENS_9allocatorIcEEEENS_8functionIF5ValueRKNS_6vectorIS9_NS5_IS9_EEEEEEEEEERKT_RKNS_7variantIJDpT0_EEE, symObjAddr: 0xDDF4, symBinAddr: 0x10000ECC8, symSize: 0x24 }
  - { offsetInCU: 0x25C9C, offset: 0x25C9C, size: 0x8, addend: 0x0, symName: __ZNSt3__13getB8ue170006INS_12basic_stringIcNS_11char_traitsIcEENS_9allocatorIcEEEEJNS_9monostateEbxdS6_NS_8functionIF5ValueRKNS_6vectorIS9_NS4_IS9_EEEEEEEEEERKT_RKNS_7variantIJDpT0_EEE, symObjAddr: 0xDE18, symBinAddr: 0x10000ECEC, symSize: 0x24 }
  - { offsetInCU: 0x25CF7, offset: 0x25CF7, size: 0x8, addend: 0x0, symName: __ZNSt3__117holds_alternativeB8ue170006IxJNS_9monostateEbxdNS_12basic_stringIcNS_11char_traitsIcEENS_9allocatorIcEEEENS_8functionIF5ValueRKNS_6vectorIS9_NS5_IS9_EEEEEEEEEEbRKNS_7variantIJDpT0_EEE, symObjAddr: 0xDE3C, symBinAddr: 0x10000ED10, symSize: 0x28 }
  - { offsetInCU: 0x25D52, offset: 0x25D52, size: 0x8, addend: 0x0, symName: __ZNSt3__119__holds_alternativeB8ue170006ILm2EJNS_9monostateEbxdNS_12basic_stringIcNS_11char_traitsIcEENS_9allocatorIcEEEENS_8functionIF5ValueRKNS_6vectorIS9_NS5_IS9_EEEEEEEEEEbRKNS_7variantIJDpT0_EEE, symObjAddr: 0xDE64, symBinAddr: 0x10000ED38, symSize: 0x30 }
  - { offsetInCU: 0x25DAE, offset: 0x25DAE, size: 0x8, addend: 0x0, symName: __ZNSt3__13getB8ue170006ILm2EJNS_9monostateEbxdNS_12basic_stringIcNS_11char_traitsIcEENS_9allocatorIcEEEENS_8functionIF5ValueRKNS_6vectorIS9_NS5_IS9_EEEEEEEEEERKNS_19variant_alternativeIXT_ENS_7variantIJDpT0_EEEE4typeERKSL_, symObjAddr: 0xDE94, symBinAddr: 0x10000ED68, symSize: 0x24 }
  - { offsetInCU: 0x25E0A, offset: 0x25E0A, size: 0x8, addend: 0x0, symName: __ZNSt3__113__generic_getB8ue170006ILm2ERKNS_7variantIJNS_9monostateEbxdNS_12basic_stringIcNS_11char_traitsIcEENS_9allocatorIcEEEENS_8functionIF5ValueRKNS_6vectorISA_NS6_ISA_EEEEEEEEEEEEODaOT0_, symObjAddr: 0xDEB8, symBinAddr: 0x10000ED8C, symSize: 0x38 }
  - { offsetInCU: 0x25E55, offset: 0x25E55, size: 0x8, addend: 0x0, symName: __ZNSt3__126__throw_bad_variant_accessB8ue170006Ev, symObjAddr: 0xDEF0, symBinAddr: 0x10000EDC4, symSize: 0x38 }
  - { offsetInCU: 0x25E6F, offset: 0x25E6F, size: 0x8, addend: 0x0, symName: __ZNSt3__13getB8ue170006ILm3EJNS_9monostateEbxdNS_12basic_stringIcNS_11char_traitsIcEENS_9allocatorIcEEEENS_8functionIF5ValueRKNS_6vectorIS9_NS5_IS9_EEEEEEEEEERKNS_19variant_alternativeIXT_ENS_7variantIJDpT0_EEEE4typeERKSL_, symObjAddr: 0xE1BC, symBinAddr: 0x10000F090, symSize: 0x24 }
  - { offsetInCU: 0x25ECB, offset: 0x25ECB, size: 0x8, addend: 0x0, symName: __ZNSt3__113__generic_getB8ue170006ILm3ERKNS_7variantIJNS_9monostateEbxdNS_12basic_stringIcNS_11char_traitsIcEENS_9allocatorIcEEEENS_8functionIF5ValueRKNS_6vectorISA_NS6_ISA_EEEEEEEEEEEEODaOT0_, symObjAddr: 0xE1E0, symBinAddr: 0x10000F0B4, symSize: 0x38 }
  - { offsetInCU: 0x25F15, offset: 0x25F15, size: 0x8, addend: 0x0, symName: __ZNSt3__119__holds_alternativeB8ue170006ILm3EJNS_9monostateEbxdNS_12basic_stringIcNS_11char_traitsIcEENS_9allocatorIcEEEENS_8functionIF5ValueRKNS_6vectorIS9_NS5_IS9_EEEEEEEEEEbRKNS_7variantIJDpT0_EEE, symObjAddr: 0xE218, symBinAddr: 0x10000F0EC, symSize: 0x30 }
  - { offsetInCU: 0x25F71, offset: 0x25F71, size: 0x8, addend: 0x0, symName: __ZNSt3__13getB8ue170006ILm4EJNS_9monostateEbxdNS_12basic_stringIcNS_11char_traitsIcEENS_9allocatorIcEEEENS_8functionIF5ValueRKNS_6vectorIS9_NS5_IS9_EEEEEEEEEERKNS_19variant_alternativeIXT_ENS_7variantIJDpT0_EEEE4typeERKSL_, symObjAddr: 0xE310, symBinAddr: 0x10000F1E4, symSize: 0x24 }
  - { offsetInCU: 0x25FCD, offset: 0x25FCD, size: 0x8, addend: 0x0, symName: __ZNSt3__113__generic_getB8ue170006ILm4ERKNS_7variantIJNS_9monostateEbxdNS_12basic_stringIcNS_11char_traitsIcEENS_9allocatorIcEEEENS_8functionIF5ValueRKNS_6vectorISA_NS6_ISA_EEEEEEEEEEEEODaOT0_, symObjAddr: 0xE334, symBinAddr: 0x10000F208, symSize: 0x38 }
  - { offsetInCU: 0x26017, offset: 0x26017, size: 0x8, addend: 0x0, symName: __ZNSt3__117holds_alternativeB8ue170006IdJNS_9monostateEbxdNS_12basic_stringIcNS_11char_traitsIcEENS_9allocatorIcEEEENS_8functionIF5ValueRKNS_6vectorIS9_NS5_IS9_EEEEEEEEEEbRKNS_7variantIJDpT0_EEE, symObjAddr: 0xEA98, symBinAddr: 0x10000F96C, symSize: 0x28 }
  - { offsetInCU: 0x26072, offset: 0x26072, size: 0x8, addend: 0x0, symName: __ZNSt3__117holds_alternativeB8ue170006INS_9monostateEJS1_bxdNS_12basic_stringIcNS_11char_traitsIcEENS_9allocatorIcEEEENS_8functionIF5ValueRKNS_6vectorIS9_NS5_IS9_EEEEEEEEEEbRKNS_7variantIJDpT0_EEE, symObjAddr: 0xF3B4, symBinAddr: 0x100010288, symSize: 0x28 }
  - { offsetInCU: 0x260CD, offset: 0x260CD, size: 0x8, addend: 0x0, symName: __ZNSt3__119__holds_alternativeB8ue170006ILm0EJNS_9monostateEbxdNS_12basic_stringIcNS_11char_traitsIcEENS_9allocatorIcEEEENS_8functionIF5ValueRKNS_6vectorIS9_NS5_IS9_EEEEEEEEEEbRKNS_7variantIJDpT0_EEE, symObjAddr: 0xF3DC, symBinAddr: 0x1000102B0, symSize: 0x30 }
  - { offsetInCU: 0x26129, offset: 0x26129, size: 0x8, addend: 0x0, symName: __ZNSt3__117holds_alternativeB8ue170006IbJNS_9monostateEbxdNS_12basic_stringIcNS_11char_traitsIcEENS_9allocatorIcEEEENS_8functionIF5ValueRKNS_6vectorIS9_NS5_IS9_EEEEEEEEEEbRKNS_7variantIJDpT0_EEE, symObjAddr: 0xF7F0, symBinAddr: 0x1000106C4, symSize: 0x28 }
  - { offsetInCU: 0x26184, offset: 0x26184, size: 0x8, addend: 0x0, symName: __ZNSt3__119__holds_alternativeB8ue170006ILm1EJNS_9monostateEbxdNS_12basic_stringIcNS_11char_traitsIcEENS_9allocatorIcEEEENS_8functionIF5ValueRKNS_6vectorIS9_NS5_IS9_EEEEEEEEEEbRKNS_7variantIJDpT0_EEE, symObjAddr: 0xF818, symBinAddr: 0x1000106EC, symSize: 0x30 }
  - { offsetInCU: 0x261E0, offset: 0x261E0, size: 0x8, addend: 0x0, symName: __ZNSt3__13getB8ue170006ILm1EJNS_9monostateEbxdNS_12basic_stringIcNS_11char_traitsIcEENS_9allocatorIcEEEENS_8functionIF5ValueRKNS_6vectorIS9_NS5_IS9_EEEEEEEEEERKNS_19variant_alternativeIXT_ENS_7variantIJDpT0_EEEE4typeERKSL_, symObjAddr: 0xF848, symBinAddr: 0x10001071C, symSize: 0x24 }
  - { offsetInCU: 0x2623C, offset: 0x2623C, size: 0x8, addend: 0x0, symName: __ZNSt3__113__generic_getB8ue170006ILm1ERKNS_7variantIJNS_9monostateEbxdNS_12basic_stringIcNS_11char_traitsIcEENS_9allocatorIcEEEENS_8functionIF5ValueRKNS_6vectorISA_NS6_ISA_EEEEEEEEEEEEODaOT0_, symObjAddr: 0xF86C, symBinAddr: 0x100010740, symSize: 0x38 }
  - { offsetInCU: 0x26286, offset: 0x26286, size: 0x8, addend: 0x0, symName: __ZNSt3__13getB8ue170006ILm1EJNS_9monostateEbxdNS_12basic_stringIcNS_11char_traitsIcEENS_9allocatorIcEEEENS_8functionIF5ValueRKNS_6vectorIS9_NS5_IS9_EEEEEEEEEEONS_19variant_alternativeIXT_ENS_7variantIJDpT0_EEEE4typeEOSL_, symObjAddr: 0xF924, symBinAddr: 0x1000107F8, symSize: 0x24 }
  - { offsetInCU: 0x262E2, offset: 0x262E2, size: 0x8, addend: 0x0, symName: __ZNSt3__113__generic_getB8ue170006ILm1ENS_7variantIJNS_9monostateEbxdNS_12basic_stringIcNS_11char_traitsIcEENS_9allocatorIcEEEENS_8functionIF5ValueRKNS_6vectorISA_NS6_ISA_EEEEEEEEEEEEODaOT0_, symObjAddr: 0xF948, symBinAddr: 0x10001081C, symSize: 0x38 }
  - { offsetInCU: 0x26373, offset: 0x26373, size: 0x8, addend: 0x0, symName: __ZNSt3__18__invokeB8ue170006IZNS_16__variant_detail6__dtorINS1_8__traitsIJNS_9monostateEbxdNS_12basic_stringIcNS_11char_traitsIcEENS_9allocatorIcEEEENS_8functionIF5ValueRKNS_6vectorISC_NS8_ISC_EEEEEEEEEELNS1_6_TraitE1EE9__destroyB8ue170006EvEUlRT_E_JRNS1_5__altILm0ES4_EEEEEDTclclsr3stdE7declvalISN_EEspclsr3stdE7declvalIT0_EEEEOSN_DpOST_, symObjAddr: 0xFEE8, symBinAddr: 0x100010DBC, symSize: 0x2C }
  - { offsetInCU: 0x263C1, offset: 0x263C1, size: 0x8, addend: 0x0, symName: __ZNSt3__18__invokeB8ue170006IZNS_16__variant_detail6__dtorINS1_8__traitsIJNS_9monostateEbxdNS_12basic_stringIcNS_11char_traitsIcEENS_9allocatorIcEEEENS_8functionIF5ValueRKNS_6vectorISC_NS8_ISC_EEEEEEEEEELNS1_6_TraitE1EE9__destroyB8ue170006EvEUlRT_E_JRNS1_5__altILm1EbEEEEEDTclclsr3stdE7declvalISN_EEspclsr3stdE7declvalIT0_EEEEOSN_DpOST_, symObjAddr: 0xFF60, symBinAddr: 0x100010E34, symSize: 0x2C }
  - { offsetInCU: 0x2640F, offset: 0x2640F, size: 0x8, addend: 0x0, symName: __ZNSt3__18__invokeB8ue170006IZNS_16__variant_detail6__dtorINS1_8__traitsIJNS_9monostateEbxdNS_12basic_stringIcNS_11char_traitsIcEENS_9allocatorIcEEEENS_8functionIF5ValueRKNS_6vectorISC_NS8_ISC_EEEEEEEEEELNS1_6_TraitE1EE9__destroyB8ue170006EvEUlRT_E_JRNS1_5__altILm2ExEEEEEDTclclsr3stdE7declvalISN_EEspclsr3stdE7declvalIT0_EEEEOSN_DpOST_, symObjAddr: 0xFFFC, symBinAddr: 0x100010ED0, symSize: 0x2C }
  - { offsetInCU: 0x2645D, offset: 0x2645D, size: 0x8, addend: 0x0, symName: __ZNSt3__18__invokeB8ue170006IZNS_16__variant_detail6__dtorINS1_8__traitsIJNS_9monostateEbxdNS_12basic_stringIcNS_11char_traitsIcEENS_9allocatorIcEEEENS_8functionIF5ValueRKNS_6vectorISC_NS8_ISC_EEEEEEEEEELNS1_6_TraitE1EE9__destroyB8ue170006EvEUlRT_E_JRNS1_5__altILm3EdEEEEEDTclclsr3stdE7declvalISN_EEspclsr3stdE7declvalIT0_EEEEOSN_DpOST_, symObjAddr: 0x100BC, symBinAddr: 0x100010F90, symSize: 0x2C }
  - { offsetInCU: 0x264AB, offset: 0x264AB, size: 0x8, addend: 0x0, symName: __ZNSt3__18__invokeB8ue170006IZNS_16__variant_detail6__dtorINS1_8__traitsIJNS_9monostateEbxdNS_12basic_stringIcNS_11char_traitsIcEENS_9allocatorIcEEEENS_8functionIF5ValueRKNS_6vectorISC_NS8_ISC_EEEEEEEEEELNS1_6_TraitE1EE9__destroyB8ue170006EvEUlRT_E_JRNS1_5__altILm4ESA_EEEEEDTclclsr3stdE7declvalISN_EEspclsr3stdE7declvalIT0_EEEEOSN_DpOST_, symObjAddr: 0x101A0, symBinAddr: 0x100011074, symSize: 0x2C }
  - { offsetInCU: 0x264F9, offset: 0x264F9, size: 0x8, addend: 0x0, symName: __ZNSt3__18__invokeB8ue170006IZNS_16__variant_detail6__dtorINS1_8__traitsIJNS_9monostateEbxdNS_12basic_stringIcNS_11char_traitsIcEENS_9allocatorIcEEEENS_8functionIF5ValueRKNS_6vectorISC_NS8_ISC_EEEEEEEEEELNS1_6_TraitE1EE9__destroyB8ue170006EvEUlRT_E_JRNS1_5__altILm5ESJ_EEEEEDTclclsr3stdE7declvalISN_EEspclsr3stdE7declvalIT0_EEEEOSN_DpOST_, symObjAddr: 0x10314, symBinAddr: 0x1000111E8, symSize: 0x2C }
  - { offsetInCU: 0x26546, offset: 0x26546, size: 0x8, addend: 0x0, symName: __ZNSt3__1ssB8ue170006IcNS_11char_traitsIcEEEEDaNS_17basic_string_viewIT_T0_EES7_, symObjAddr: 0x10520, symBinAddr: 0x1000113F4, symSize: 0x7C }
  - { offsetInCU: 0x265E7, offset: 0x265E7, size: 0x8, addend: 0x0, symName: __ZNSt3__18__invokeB8ue170006IZNS_16__variant_detail12__assignmentINS1_8__traitsIJNS_9monostateEbxdNS_12basic_stringIcNS_11char_traitsIcEENS_9allocatorIcEEEENS_8functionIF5ValueRKNS_6vectorISC_NS8_ISC_EEEEEEEEEEE16__generic_assignB8ue170006INS1_17__move_assignmentISK_LNS1_6_TraitE1EEEEEvOT_EUlRSQ_OT0_E_JRNS1_5__altILm0ES4_EESX_EEEDTclclsr3stdE7declvalISQ_EEspclsr3stdE7declvalIT0_EEEESR_DpOSZ_, symObjAddr: 0x110F8, symBinAddr: 0x100011FCC, symSize: 0x34 }
  - { offsetInCU: 0x26649, offset: 0x26649, size: 0x8, addend: 0x0, symName: __ZNSt3__18__invokeB8ue170006IZNS_16__variant_detail12__assignmentINS1_8__traitsIJNS_9monostateEbxdNS_12basic_stringIcNS_11char_traitsIcEENS_9allocatorIcEEEENS_8functionIF5ValueRKNS_6vectorISC_NS8_ISC_EEEEEEEEEEE16__generic_assignB8ue170006INS1_17__move_assignmentISK_LNS1_6_TraitE1EEEEEvOT_EUlRSQ_OT0_E_JRNS1_5__altILm1EbEESX_EEEDTclclsr3stdE7declvalISQ_EEspclsr3stdE7declvalIT0_EEEESR_DpOSZ_, symObjAddr: 0x11314, symBinAddr: 0x1000121E8, symSize: 0x34 }
  - { offsetInCU: 0x266AB, offset: 0x266AB, size: 0x8, addend: 0x0, symName: __ZNSt3__18__invokeB8ue170006IZNS_16__variant_detail12__assignmentINS1_8__traitsIJNS_9monostateEbxdNS_12basic_stringIcNS_11char_traitsIcEENS_9allocatorIcEEEENS_8functionIF5ValueRKNS_6vectorISC_NS8_ISC_EEEEEEEEEEE16__generic_assignB8ue170006INS1_17__move_assignmentISK_LNS1_6_TraitE1EEEEEvOT_EUlRSQ_OT0_E_JRNS1_5__altILm2ExEESX_EEEDTclclsr3stdE7declvalISQ_EEspclsr3stdE7declvalIT0_EEEESR_DpOSZ_, symObjAddr: 0x11544, symBinAddr: 0x100012418, symSize: 0x34 }
  - { offsetInCU: 0x2670D, offset: 0x2670D, size: 0x8, addend: 0x0, symName: __ZNSt3__18__invokeB8ue170006IZNS_16__variant_detail12__assignmentINS1_8__traitsIJNS_9monostateEbxdNS_12basic_stringIcNS_11char_traitsIcEENS_9allocatorIcEEEENS_8functionIF5ValueRKNS_6vectorISC_NS8_ISC_EEEEEEEEEEE16__generic_assignB8ue170006INS1_17__move_assignmentISK_LNS1_6_TraitE1EEEEEvOT_EUlRSQ_OT0_E_JRNS1_5__altILm3EdEESX_EEEDTclclsr3stdE7declvalISQ_EEspclsr3stdE7declvalIT0_EEEESR_DpOSZ_, symObjAddr: 0x117C8, symBinAddr: 0x10001269C, symSize: 0x34 }
  - { offsetInCU: 0x2676F, offset: 0x2676F, size: 0x8, addend: 0x0, symName: __ZNSt3__18__invokeB8ue170006IZNS_16__variant_detail12__assignmentINS1_8__traitsIJNS_9monostateEbxdNS_12basic_stringIcNS_11char_traitsIcEENS_9allocatorIcEEEENS_8functionIF5ValueRKNS_6vectorISC_NS8_ISC_EEEEEEEEEEE16__generic_assignB8ue170006INS1_17__move_assignmentISK_LNS1_6_TraitE1EEEEEvOT_EUlRSQ_OT0_E_JRNS1_5__altILm4ESA_EESX_EEEDTclclsr3stdE7declvalISQ_EEspclsr3stdE7declvalIT0_EEEESR_DpOSZ_, symObjAddr: 0x11A70, symBinAddr: 0x100012944, symSize: 0x34 }
  - { offsetInCU: 0x267D1, offset: 0x267D1, size: 0x8, addend: 0x0, symName: __ZNSt3__18__invokeB8ue170006IZNS_16__variant_detail12__assignmentINS1_8__traitsIJNS_9monostateEbxdNS_12basic_stringIcNS_11char_traitsIcEENS_9allocatorIcEEEENS_8functionIF5ValueRKNS_6vectorISC_NS8_ISC_EEEEEEEEEEE16__generic_assignB8ue170006INS1_17__move_assignmentISK_LNS1_6_TraitE1EEEEEvOT_EUlRSQ_OT0_E_JRNS1_5__altILm5ESJ_EESX_EEEDTclclsr3stdE7declvalISQ_EEspclsr3stdE7declvalIT0_EEEESR_DpOSZ_, symObjAddr: 0x120C0, symBinAddr: 0x100012F94, symSize: 0x34 }
  - { offsetInCU: 0x26879, offset: 0x26879, size: 0x8, addend: 0x0, symName: __ZNSt3__18__invokeB8ue170006IZNS_16__variant_detail6__ctorINS1_8__traitsIJNS_9monostateEbxdNS_12basic_stringIcNS_11char_traitsIcEENS_9allocatorIcEEEENS_8functionIF5ValueRKNS_6vectorISC_NS8_ISC_EEEEEEEEEEE19__generic_constructB8ue170006IRKNS1_18__copy_constructorISK_LNS1_6_TraitE1EEEEEvRSL_OT_EUlRST_OT0_E_JRNS1_5__altILm0ES4_EERKS10_EEEDTclclsr3stdE7declvalIST_EEspclsr3stdE7declvalIT0_EEEESU_DpOS14_, symObjAddr: 0x12FE4, symBinAddr: 0x100013EB8, symSize: 0x34 }
  - { offsetInCU: 0x268DB, offset: 0x268DB, size: 0x8, addend: 0x0, symName: __ZNSt3__18__invokeB8ue170006IZNS_16__variant_detail6__ctorINS1_8__traitsIJNS_9monostateEbxdNS_12basic_stringIcNS_11char_traitsIcEENS_9allocatorIcEEEENS_8functionIF5ValueRKNS_6vectorISC_NS8_ISC_EEEEEEEEEEE19__generic_constructB8ue170006IRKNS1_18__copy_constructorISK_LNS1_6_TraitE1EEEEEvRSL_OT_EUlRST_OT0_E_JRNS1_5__altILm1EbEERKS10_EEEDTclclsr3stdE7declvalIST_EEspclsr3stdE7declvalIT0_EEEESU_DpOS14_, symObjAddr: 0x130FC, symBinAddr: 0x100013FD0, symSize: 0x34 }
  - { offsetInCU: 0x2693D, offset: 0x2693D, size: 0x8, addend: 0x0, symName: __ZNSt3__18__invokeB8ue170006IZNS_16__variant_detail6__ctorINS1_8__traitsIJNS_9monostateEbxdNS_12basic_stringIcNS_11char_traitsIcEENS_9allocatorIcEEEENS_8functionIF5ValueRKNS_6vectorISC_NS8_ISC_EEEEEEEEEEE19__generic_constructB8ue170006IRKNS1_18__copy_constructorISK_LNS1_6_TraitE1EEEEEvRSL_OT_EUlRST_OT0_E_JRNS1_5__altILm2ExEERKS10_EEEDTclclsr3stdE7declvalIST_EEspclsr3stdE7declvalIT0_EEEESU_DpOS14_, symObjAddr: 0x13210, symBinAddr: 0x1000140E4, symSize: 0x34 }
  - { offsetInCU: 0x2699F, offset: 0x2699F, size: 0x8, addend: 0x0, symName: __ZNSt3__18__invokeB8ue170006IZNS_16__variant_detail6__ctorINS1_8__traitsIJNS_9monostateEbxdNS_12basic_stringIcNS_11char_traitsIcEENS_9allocatorIcEEEENS_8functionIF5ValueRKNS_6vectorISC_NS8_ISC_EEEEEEEEEEE19__generic_constructB8ue170006IRKNS1_18__copy_constructorISK_LNS1_6_TraitE1EEEEEvRSL_OT_EUlRST_OT0_E_JRNS1_5__altILm3EdEERKS10_EEEDTclclsr3stdE7declvalIST_EEspclsr3stdE7declvalIT0_EEEESU_DpOS14_, symObjAddr: 0x13320, symBinAddr: 0x1000141F4, symSize: 0x34 }
  - { offsetInCU: 0x26A01, offset: 0x26A01, size: 0x8, addend: 0x0, symName: __ZNSt3__18__invokeB8ue170006IZNS_16__variant_detail6__ctorINS1_8__traitsIJNS_9monostateEbxdNS_12basic_stringIcNS_11char_traitsIcEENS_9allocatorIcEEEENS_8functionIF5ValueRKNS_6vectorISC_NS8_ISC_EEEEEEEEEEE19__generic_constructB8ue170006IRKNS1_18__copy_constructorISK_LNS1_6_TraitE1EEEEEvRSL_OT_EUlRST_OT0_E_JRNS1_5__altILm4ESA_EERKS10_EEEDTclclsr3stdE7declvalIST_EEspclsr3stdE7declvalIT0_EEEESU_DpOS14_, symObjAddr: 0x13430, symBinAddr: 0x100014304, symSize: 0x34 }
  - { offsetInCU: 0x26A63, offset: 0x26A63, size: 0x8, addend: 0x0, symName: __ZNSt3__18__invokeB8ue170006IZNS_16__variant_detail6__ctorINS1_8__traitsIJNS_9monostateEbxdNS_12basic_stringIcNS_11char_traitsIcEENS_9allocatorIcEEEENS_8functionIF5ValueRKNS_6vectorISC_NS8_ISC_EEEEEEEEEEE19__generic_constructB8ue170006IRKNS1_18__copy_constructorISK_LNS1_6_TraitE1EEEEEvRSL_OT_EUlRST_OT0_E_JRNS1_5__altILm5ESJ_EERKS10_EEEDTclclsr3stdE7declvalIST_EEspclsr3stdE7declvalIT0_EEEESU_DpOS14_, symObjAddr: 0x134E8, symBinAddr: 0x1000143BC, symSize: 0x34 }
  - { offsetInCU: 0x26AC4, offset: 0x26AC4, size: 0x8, addend: 0x0, symName: __ZNSt3__1eqB8ue170006IPKN6chisel6Parser4NodeEEEbRKNS_11__wrap_iterIT_EESA_, symObjAddr: 0x13754, symBinAddr: 0x100014628, symSize: 0x48 }
  - { offsetInCU: 0x26B4E, offset: 0x26B4E, size: 0x8, addend: 0x0, symName: __ZNSt3__18__invokeB8ue170006IZNS_16__variant_detail12__assignmentINS1_8__traitsIJNS_9monostateEbxdNS_12basic_stringIcNS_11char_traitsIcEENS_9allocatorIcEEEENS_8functionIF5ValueRKNS_6vectorISC_NS8_ISC_EEEEEEEEEEE16__generic_assignB8ue170006IRKNS1_17__copy_assignmentISK_LNS1_6_TraitE1EEEEEvOT_EUlRSS_OT0_E_JRNS1_5__altILm0ES4_EERKSZ_EEEDTclclsr3stdE7declvalISS_EEspclsr3stdE7declvalIT0_EEEEST_DpOS13_, symObjAddr: 0x13B5C, symBinAddr: 0x100014A30, symSize: 0x34 }
  - { offsetInCU: 0x26BB0, offset: 0x26BB0, size: 0x8, addend: 0x0, symName: __ZNSt3__18__invokeB8ue170006IZNS_16__variant_detail12__assignmentINS1_8__traitsIJNS_9monostateEbxdNS_12basic_stringIcNS_11char_traitsIcEENS_9allocatorIcEEEENS_8functionIF5ValueRKNS_6vectorISC_NS8_ISC_EEEEEEEEEEE16__generic_assignB8ue170006IRKNS1_17__copy_assignmentISK_LNS1_6_TraitE1EEEEEvOT_EUlRSS_OT0_E_JRNS1_5__altILm1EbEERKSZ_EEEDTclclsr3stdE7declvalISS_EEspclsr3stdE7declvalIT0_EEEEST_DpOS13_, symObjAddr: 0x13CA0, symBinAddr: 0x100014B74, symSize: 0x34 }
  - { offsetInCU: 0x26C12, offset: 0x26C12, size: 0x8, addend: 0x0, symName: __ZNSt3__18__invokeB8ue170006IZNS_16__variant_detail12__assignmentINS1_8__traitsIJNS_9monostateEbxdNS_12basic_stringIcNS_11char_traitsIcEENS_9allocatorIcEEEENS_8functionIF5ValueRKNS_6vectorISC_NS8_ISC_EEEEEEEEEEE16__generic_assignB8ue170006IRKNS1_17__copy_assignmentISK_LNS1_6_TraitE1EEEEEvOT_EUlRSS_OT0_E_JRNS1_5__altILm2ExEERKSZ_EEEDTclclsr3stdE7declvalISS_EEspclsr3stdE7declvalIT0_EEEEST_DpOS13_, symObjAddr: 0x13DFC, symBinAddr: 0x100014CD0, symSize: 0x34 }
  - { offsetInCU: 0x26C74, offset: 0x26C74, size: 0x8, addend: 0x0, symName: __ZNSt3__18__invokeB8ue170006IZNS_16__variant_detail12__assignmentINS1_8__traitsIJNS_9monostateEbxdNS_12basic_stringIcNS_11char_traitsIcEENS_9allocatorIcEEEENS_8functionIF5ValueRKNS_6vectorISC_NS8_ISC_EEEEEEEEEEE16__generic_assignB8ue170006IRKNS1_17__copy_assignmentISK_LNS1_6_TraitE1EEEEEvOT_EUlRSS_OT0_E_JRNS1_5__altILm3EdEERKSZ_EEEDTclclsr3stdE7declvalISS_EEspclsr3stdE7declvalIT0_EEEEST_DpOS13_, symObjAddr: 0x13F54, symBinAddr: 0x100014E28, symSize: 0x34 }
  - { offsetInCU: 0x26CD6, offset: 0x26CD6, size: 0x8, addend: 0x0, symName: __ZNSt3__18__invokeB8ue170006IZNS_16__variant_detail12__assignmentINS1_8__traitsIJNS_9monostateEbxdNS_12basic_stringIcNS_11char_traitsIcEENS_9allocatorIcEEEENS_8functionIF5ValueRKNS_6vectorISC_NS8_ISC_EEEEEEEEEEE16__generic_assignB8ue170006IRKNS1_17__copy_assignmentISK_LNS1_6_TraitE1EEEEEvOT_EUlRSS_OT0_E_JRNS1_5__altILm4ESA_EERKSZ_EEEDTclclsr3stdE7declvalISS_EEspclsr3stdE7declvalIT0_EEEEST_DpOS13_, symObjAddr: 0x140AC, symBinAddr: 0x100014F80, symSize: 0x34 }
  - { offsetInCU: 0x26D38, offset: 0x26D38, size: 0x8, addend: 0x0, symName: __ZNSt3__18__invokeB8ue170006IZNS_16__variant_detail12__assignmentINS1_8__traitsIJNS_9monostateEbxdNS_12basic_stringIcNS_11char_traitsIcEENS_9allocatorIcEEEENS_8functionIF5ValueRKNS_6vectorISC_NS8_ISC_EEEEEEEEEEE16__generic_assignB8ue170006IRKNS1_17__copy_assignmentISK_LNS1_6_TraitE1EEEEEvOT_EUlRSS_OT0_E_JRNS1_5__altILm5ESJ_EERKSZ_EEEDTclclsr3stdE7declvalISS_EEspclsr3stdE7declvalIT0_EEEEST_DpOS13_, symObjAddr: 0x141F4, symBinAddr: 0x1000150C8, symSize: 0x34 }
  - { offsetInCU: 0x26D9A, offset: 0x26D9A, size: 0x8, addend: 0x0, symName: __ZNSt3__14swapB8ue170006IPNS_10__function6__baseIF5ValueRKNS_6vectorIS3_NS_9allocatorIS3_EEEEEEEEENS_9enable_ifIXaasr21is_move_constructibleIT_EE5valuesr18is_move_assignableISE_EE5valueEvE4typeERSE_SH_, symObjAddr: 0x146C8, symBinAddr: 0x10001559C, symSize: 0x3C }
  - { offsetInCU: 0x26DEB, offset: 0x26DEB, size: 0x8, addend: 0x0, symName: __ZNSt3__117holds_alternativeB8ue170006INS_8functionIF5ValueRKNS_6vectorIS2_NS_9allocatorIS2_EEEEEEEJNS_9monostateEbxdNS_12basic_stringIcNS_11char_traitsIcEENS4_IcEEEESA_EEEbRKNS_7variantIJDpT0_EEE, symObjAddr: 0x14704, symBinAddr: 0x1000155D8, symSize: 0x28 }
  - { offsetInCU: 0x26E46, offset: 0x26E46, size: 0x8, addend: 0x0, symName: __ZNSt3__119__holds_alternativeB8ue170006ILm5EJNS_9monostateEbxdNS_12basic_stringIcNS_11char_traitsIcEENS_9allocatorIcEEEENS_8functionIF5ValueRKNS_6vectorIS9_NS5_IS9_EEEEEEEEEEbRKNS_7variantIJDpT0_EEE, symObjAddr: 0x1472C, symBinAddr: 0x100015600, symSize: 0x30 }
  - { offsetInCU: 0x26EA2, offset: 0x26EA2, size: 0x8, addend: 0x0, symName: __ZNSt3__13getB8ue170006ILm5EJNS_9monostateEbxdNS_12basic_stringIcNS_11char_traitsIcEENS_9allocatorIcEEEENS_8functionIF5ValueRKNS_6vectorIS9_NS5_IS9_EEEEEEEEEERNS_19variant_alternativeIXT_ENS_7variantIJDpT0_EEEE4typeERSL_, symObjAddr: 0x1475C, symBinAddr: 0x100015630, symSize: 0x24 }
  - { offsetInCU: 0x26EFE, offset: 0x26EFE, size: 0x8, addend: 0x0, symName: __ZNSt3__113__generic_getB8ue170006ILm5ERNS_7variantIJNS_9monostateEbxdNS_12basic_stringIcNS_11char_traitsIcEENS_9allocatorIcEEEENS_8functionIF5ValueRKNS_6vectorISA_NS6_ISA_EEEEEEEEEEEEODaOT0_, symObjAddr: 0x14780, symBinAddr: 0x100015654, symSize: 0x38 }
  - { offsetInCU: 0x26F49, offset: 0x26F49, size: 0x8, addend: 0x0, symName: __ZNSt3__112__to_addressB8ue170006I5ValueEEPT_S3_, symObjAddr: 0x14BAC, symBinAddr: 0x100015A80, symSize: 0x14 }
  - { offsetInCU: 0x26FA5, offset: 0x26FA5, size: 0x8, addend: 0x0, symName: __ZNSt3__112construct_atB8ue170006I5ValueJS1_EPS1_EEPT_S4_DpOT0_, symObjAddr: 0x14C38, symBinAddr: 0x100015B0C, symSize: 0x3C }
  - { offsetInCU: 0x2705E, offset: 0x2705E, size: 0x8, addend: 0x0, symName: __ZNSt3__18__invokeB8ue170006IZNS_16__variant_detail6__ctorINS1_8__traitsIJNS_9monostateEbxdNS_12basic_stringIcNS_11char_traitsIcEENS_9allocatorIcEEEENS_8functionIF5ValueRKNS_6vectorISC_NS8_ISC_EEEEEEEEEEE19__generic_constructB8ue170006INS1_18__move_constructorISK_LNS1_6_TraitE1EEEEEvRSL_OT_EUlRSR_OT0_E_JRNS1_5__altILm0ES4_EESY_EEEDTclclsr3stdE7declvalISR_EEspclsr3stdE7declvalIT0_EEEESS_DpOS10_, symObjAddr: 0x151AC, symBinAddr: 0x100016080, symSize: 0x34 }
  - { offsetInCU: 0x270C0, offset: 0x270C0, size: 0x8, addend: 0x0, symName: __ZNSt3__18__invokeB8ue170006IZNS_16__variant_detail6__ctorINS1_8__traitsIJNS_9monostateEbxdNS_12basic_stringIcNS_11char_traitsIcEENS_9allocatorIcEEEENS_8functionIF5ValueRKNS_6vectorISC_NS8_ISC_EEEEEEEEEEE19__generic_constructB8ue170006INS1_18__move_constructorISK_LNS1_6_TraitE1EEEEEvRSL_OT_EUlRSR_OT0_E_JRNS1_5__altILm1EbEESY_EEEDTclclsr3stdE7declvalISR_EEspclsr3stdE7declvalIT0_EEEESS_DpOS10_, symObjAddr: 0x15210, symBinAddr: 0x1000160E4, symSize: 0x34 }
  - { offsetInCU: 0x27122, offset: 0x27122, size: 0x8, addend: 0x0, symName: __ZNSt3__18__invokeB8ue170006IZNS_16__variant_detail6__ctorINS1_8__traitsIJNS_9monostateEbxdNS_12basic_stringIcNS_11char_traitsIcEENS_9allocatorIcEEEENS_8functionIF5ValueRKNS_6vectorISC_NS8_ISC_EEEEEEEEEEE19__generic_constructB8ue170006INS1_18__move_constructorISK_LNS1_6_TraitE1EEEEEvRSL_OT_EUlRSR_OT0_E_JRNS1_5__altILm2ExEESY_EEEDTclclsr3stdE7declvalISR_EEspclsr3stdE7declvalIT0_EEEESS_DpOS10_, symObjAddr: 0x15274, symBinAddr: 0x100016148, symSize: 0x34 }
  - { offsetInCU: 0x27184, offset: 0x27184, size: 0x8, addend: 0x0, symName: __ZNSt3__18__invokeB8ue170006IZNS_16__variant_detail6__ctorINS1_8__traitsIJNS_9monostateEbxdNS_12basic_stringIcNS_11char_traitsIcEENS_9allocatorIcEEEENS_8functionIF5ValueRKNS_6vectorISC_NS8_ISC_EEEEEEEEEEE19__generic_constructB8ue170006INS1_18__move_constructorISK_LNS1_6_TraitE1EEEEEvRSL_OT_EUlRSR_OT0_E_JRNS1_5__altILm3EdEESY_EEEDTclclsr3stdE7declvalISR_EEspclsr3stdE7declvalIT0_EEEESS_DpOS10_, symObjAddr: 0x152D8, symBinAddr: 0x1000161AC, symSize: 0x34 }
  - { offsetInCU: 0x271E6, offset: 0x271E6, size: 0x8, addend: 0x0, symName: __ZNSt3__18__invokeB8ue170006IZNS_16__variant_detail6__ctorINS1_8__traitsIJNS_9monostateEbxdNS_12basic_stringIcNS_11char_traitsIcEENS_9allocatorIcEEEENS_8functionIF5ValueRKNS_6vectorISC_NS8_ISC_EEEEEEEEEEE19__generic_constructB8ue170006INS1_18__move_constructorISK_LNS1_6_TraitE1EEEEEvRSL_OT_EUlRSR_OT0_E_JRNS1_5__altILm4ESA_EESY_EEEDTclclsr3stdE7declvalISR_EEspclsr3stdE7declvalIT0_EEEESS_DpOS10_, symObjAddr: 0x1533C, symBinAddr: 0x100016210, symSize: 0x34 }
  - { offsetInCU: 0x27248, offset: 0x27248, size: 0x8, addend: 0x0, symName: __ZNSt3__18__invokeB8ue170006IZNS_16__variant_detail6__ctorINS1_8__traitsIJNS_9monostateEbxdNS_12basic_stringIcNS_11char_traitsIcEENS_9allocatorIcEEEENS_8functionIF5ValueRKNS_6vectorISC_NS8_ISC_EEEEEEEEEEE19__generic_constructB8ue170006INS1_18__move_constructorISK_LNS1_6_TraitE1EEEEEvRSL_OT_EUlRSR_OT0_E_JRNS1_5__altILm5ESJ_EESY_EEEDTclclsr3stdE7declvalISR_EEspclsr3stdE7declvalIT0_EEEESS_DpOS10_, symObjAddr: 0x153A0, symBinAddr: 0x100016274, symSize: 0x34 }
  - { offsetInCU: 0x272A9, offset: 0x272A9, size: 0x8, addend: 0x0, symName: __ZNSt3__119__allocate_at_leastB8ue170006INS_9allocatorI5ValueEEEENS_19__allocation_resultINS_16allocator_traitsIT_E7pointerEEERS6_m, symObjAddr: 0x15978, symBinAddr: 0x10001684C, symSize: 0x40 }
  - { offsetInCU: 0x272EC, offset: 0x272EC, size: 0x8, addend: 0x0, symName: __ZNSt3__142__uninitialized_allocator_move_if_noexceptB8ue170006INS_9allocatorI5ValueEENS_16reverse_iteratorIPS2_EES6_S6_EET2_RT_T0_T1_S7_, symObjAddr: 0x15C04, symBinAddr: 0x100016AD8, symSize: 0x12C }
  - { offsetInCU: 0x2738D, offset: 0x2738D, size: 0x8, addend: 0x0, symName: __ZNSt3__14swapB8ue170006IP5ValueEENS_9enable_ifIXaasr21is_move_constructibleIT_EE5valuesr18is_move_assignableIS4_EE5valueEvE4typeERS4_S7_, symObjAddr: 0x15D7C, symBinAddr: 0x100016C50, symSize: 0x3C }
  - { offsetInCU: 0x273DE, offset: 0x273DE, size: 0x8, addend: 0x0, symName: __ZNSt3__122__make_exception_guardB8ue170006INS_29_AllocatorDestroyRangeReverseINS_9allocatorI5ValueEENS_16reverse_iteratorIPS3_EEEEEENS_28__exception_guard_exceptionsIT_EESA_, symObjAddr: 0x15EC8, symBinAddr: 0x100016D9C, symSize: 0x4C }
  - { offsetInCU: 0x27414, offset: 0x27414, size: 0x8, addend: 0x0, symName: __ZNSt3__1neB8ue170006IP5ValueS2_EEbRKNS_16reverse_iteratorIT_EERKNS3_IT0_EE, symObjAddr: 0x15F58, symBinAddr: 0x100016E2C, symSize: 0x48 }
  - { offsetInCU: 0x27460, offset: 0x27460, size: 0x8, addend: 0x0, symName: __ZNSt3__112__to_addressB8ue170006INS_16reverse_iteratorIP5ValueEEvEEu7__decayIDTclsr19__to_address_helperIT_EE6__callclsr3stdE7declvalIRKS5_EEEEES7_, symObjAddr: 0x15FA0, symBinAddr: 0x100016E74, symSize: 0x24 }
  - { offsetInCU: 0x274C0, offset: 0x274C0, size: 0x8, addend: 0x0, symName: __ZNSt3__14prevB8ue170006IP5ValueEENS_9enable_ifIXsr29__has_input_iterator_categoryIT_EE5valueES4_E4typeES4_NS_15iterator_traitsIS4_E15difference_typeE, symObjAddr: 0x16154, symBinAddr: 0x100017028, symSize: 0x3C }
  - { offsetInCU: 0x27504, offset: 0x27504, size: 0x8, addend: 0x0, symName: __ZNSt3__19__advanceB8ue170006IP5ValueEEvRT_NS_15iterator_traitsIS3_E15difference_typeENS_26random_access_iterator_tagE, symObjAddr: 0x161C8, symBinAddr: 0x10001709C, symSize: 0x30 }
  - { offsetInCU: 0x2754E, offset: 0x2754E, size: 0x8, addend: 0x0, symName: __ZNSt3__119__allocator_destroyB8ue170006INS_9allocatorI5ValueEENS_16reverse_iteratorINS4_IPS2_EEEES7_EEvRT_T0_T1_, symObjAddr: 0x162FC, symBinAddr: 0x1000171D0, symSize: 0x70 }
  - { offsetInCU: 0x275B3, offset: 0x275B3, size: 0x8, addend: 0x0, symName: __ZNSt3__1neB8ue170006INS_16reverse_iteratorIP5ValueEES4_EEbRKNS1_IT_EERKNS1_IT0_EE, symObjAddr: 0x163A8, symBinAddr: 0x10001727C, symSize: 0x60 }
  - { offsetInCU: 0x275FF, offset: 0x275FF, size: 0x8, addend: 0x0, symName: __ZNSt3__112__to_addressB8ue170006INS_16reverse_iteratorINS1_IP5ValueEEEEvEEu7__decayIDTclsr19__to_address_helperIT_EE6__callclsr3stdE7declvalIRKS6_EEEEES8_, symObjAddr: 0x16430, symBinAddr: 0x100017304, symSize: 0x24 }
  - { offsetInCU: 0x27636, offset: 0x27636, size: 0x8, addend: 0x0, symName: __ZNSt3__110destroy_atB8ue170006I5ValueLi0EEEvPT_, symObjAddr: 0x164A8, symBinAddr: 0x10001737C, symSize: 0x24 }
  - { offsetInCU: 0x2766E, offset: 0x2766E, size: 0x8, addend: 0x0, symName: __ZNSt3__112__destroy_atB8ue170006I5ValueLi0EEEvPT_, symObjAddr: 0x164CC, symBinAddr: 0x1000173A0, symSize: 0x24 }
  - { offsetInCU: 0x276CF, offset: 0x276CF, size: 0x8, addend: 0x0, symName: __ZNSt3__14prevB8ue170006INS_16reverse_iteratorIP5ValueEEEENS_9enable_ifIXsr29__has_input_iterator_categoryIT_EE5valueES6_E4typeES6_NS_15iterator_traitsIS6_E15difference_typeE, symObjAddr: 0x16574, symBinAddr: 0x100017448, symSize: 0x4C }
  - { offsetInCU: 0x27713, offset: 0x27713, size: 0x8, addend: 0x0, symName: __ZNSt3__19__advanceB8ue170006INS_16reverse_iteratorIP5ValueEEEEvRT_NS_15iterator_traitsIS5_E15difference_typeENS_26random_access_iterator_tagE, symObjAddr: 0x165F8, symBinAddr: 0x1000174CC, symSize: 0x2C }
  - { offsetInCU: 0x27790, offset: 0x27790, size: 0x8, addend: 0x0, symName: __ZNSt3__110destroy_atB8ue170006INS_4pairIKNS_12basic_stringIcNS_11char_traitsIcEENS_9allocatorIcEEEE5ValueEELi0EEEvPT_, symObjAddr: 0x174B4, symBinAddr: 0x100018388, symSize: 0x24 }
  - { offsetInCU: 0x277C8, offset: 0x277C8, size: 0x8, addend: 0x0, symName: __ZNSt3__112__destroy_atB8ue170006INS_4pairIKNS_12basic_stringIcNS_11char_traitsIcEENS_9allocatorIcEEEE5ValueEELi0EEEvPT_, symObjAddr: 0x174D8, symBinAddr: 0x1000183AC, symSize: 0x24 }
  - { offsetInCU: 0x277FF, offset: 0x277FF, size: 0x8, addend: 0x0, symName: __ZNSt3__17launderB8ue170006INS_4pairIKNS_12basic_stringIcNS_11char_traitsIcEENS_9allocatorIcEEEE5ValueEEEEPT_SC_, symObjAddr: 0x17584, symBinAddr: 0x100018458, symSize: 0x24 }
  - { offsetInCU: 0x27837, offset: 0x27837, size: 0x8, addend: 0x0, symName: __ZNSt3__19__launderB8ue170006INS_4pairIKNS_12basic_stringIcNS_11char_traitsIcEENS_9allocatorIcEEEE5ValueEEEEPT_SC_, symObjAddr: 0x175A8, symBinAddr: 0x10001847C, symSize: 0x14 }
  - { offsetInCU: 0x2786E, offset: 0x2786E, size: 0x8, addend: 0x0, symName: __ZNSt3__110to_addressB8ue170006IcEEDaPT_, symObjAddr: 0x17F40, symBinAddr: 0x100018E14, symSize: 0x24 }
  - { offsetInCU: 0x278DA, offset: 0x278DA, size: 0x8, addend: 0x0, symName: __ZNSt3__116forward_as_tupleB8ue170006IJNS_12basic_stringIcNS_11char_traitsIcEENS_9allocatorIcEEEEEEENS_5tupleIJDpOT_EEESA_, symObjAddr: 0x18828, symBinAddr: 0x1000196FC, symSize: 0x2C }
  - { offsetInCU: 0x27914, offset: 0x27914, size: 0x8, addend: 0x0, symName: __ZNSt3__116forward_as_tupleB8ue170006IJEEENS_5tupleIJDpOT_EEES4_, symObjAddr: 0x18854, symBinAddr: 0x100019728, symSize: 0x4 }
  - { offsetInCU: 0x27939, offset: 0x27939, size: 0x8, addend: 0x0, symName: __ZNSt3__116__constrain_hashB8ue170006Emm, symObjAddr: 0x188DC, symBinAddr: 0x1000197B0, symSize: 0x98 }
  - { offsetInCU: 0x27974, offset: 0x27974, size: 0x8, addend: 0x0, symName: __ZNSt3__116__is_hash_power2B8ue170006Em, symObjAddr: 0x18BA0, symBinAddr: 0x100019A74, symSize: 0x50 }
  - { offsetInCU: 0x279A0, offset: 0x279A0, size: 0x8, addend: 0x0, symName: __ZNSt3__116__do_string_hashB8ue170006IPKcEEmT_S3_, symObjAddr: 0x18DF8, symBinAddr: 0x100019CCC, symSize: 0x3C }
  - { offsetInCU: 0x279E7, offset: 0x279E7, size: 0x8, addend: 0x0, symName: __ZNSt3__110__loadwordB8ue170006ImEET_PKv, symObjAddr: 0x197EC, symBinAddr: 0x10001A6C0, symSize: 0x20 }
  - { offsetInCU: 0x27A2B, offset: 0x27A2B, size: 0x8, addend: 0x0, symName: __ZNSt3__14swapB8ue170006ImEENS_9enable_ifIXaasr21is_move_constructibleIT_EE5valuesr18is_move_assignableIS2_EE5valueEvE4typeERS2_S5_, symObjAddr: 0x199A8, symBinAddr: 0x10001A87C, symSize: 0x3C }
  - { offsetInCU: 0x27A7D, offset: 0x27A7D, size: 0x8, addend: 0x0, symName: __ZNSt3__110__loadwordB8ue170006IjEET_PKv, symObjAddr: 0x19A38, symBinAddr: 0x10001A90C, symSize: 0x20 }
  - { offsetInCU: 0x27AC0, offset: 0x27AC0, size: 0x8, addend: 0x0, symName: __ZNSt3__17launderB8ue170006IKNS_4pairIKNS_12basic_stringIcNS_11char_traitsIcEENS_9allocatorIcEEEE5ValueEEEEPT_SD_, symObjAddr: 0x19C30, symBinAddr: 0x10001AB04, symSize: 0x24 }
  - { offsetInCU: 0x27AF8, offset: 0x27AF8, size: 0x8, addend: 0x0, symName: __ZNSt3__19__launderB8ue170006IKNS_4pairIKNS_12basic_stringIcNS_11char_traitsIcEENS_9allocatorIcEEEE5ValueEEEEPT_SD_, symObjAddr: 0x19C54, symBinAddr: 0x10001AB28, symSize: 0x14 }
  - { offsetInCU: 0x27B74, offset: 0x27B74, size: 0x8, addend: 0x0, symName: __ZNSt3__112construct_atB8ue170006INS_4pairIKNS_12basic_stringIcNS_11char_traitsIcEENS_9allocatorIcEEEE5ValueEEJRKNS_21piecewise_construct_tENS_5tupleIJOS7_EEENSE_IJEEEEPSA_EEPT_SK_DpOT0_, symObjAddr: 0x19F4C, symBinAddr: 0x10001AE20, symSize: 0x50 }
  - { offsetInCU: 0x27C18, offset: 0x27C18, size: 0x8, addend: 0x0, symName: __ZNSt3__13getB8ue170006ILm0EJONS_12basic_stringIcNS_11char_traitsIcEENS_9allocatorIcEEEEEEERNS_13tuple_elementIXT_ENS_5tupleIJDpT0_EEEE4typeERSC_, symObjAddr: 0x1A08C, symBinAddr: 0x10001AF60, symSize: 0x24 }
  - { offsetInCU: 0x27C5B, offset: 0x27C5B, size: 0x8, addend: 0x0, symName: __ZNSt3__116__next_hash_pow2B8ue170006Em, symObjAddr: 0x1A56C, symBinAddr: 0x10001B440, symSize: 0x6C }
  - { offsetInCU: 0x27CA6, offset: 0x27CA6, size: 0x8, addend: 0x0, symName: __ZNSt3__112__libcpp_clzB8ue170006Em, symObjAddr: 0x1A720, symBinAddr: 0x10001B5F4, symSize: 0x1C }
  - { offsetInCU: 0x27DDD, offset: 0x27DDD, size: 0x8, addend: 0x0, symName: '__ZNSt3__116forward_as_tupleB8ue170006IJZ17setup_environmentvE3$_0EEENS_5tupleIJDpOT_EEES5_', symObjAddr: 0x1B18C, symBinAddr: 0x10001C060, symSize: 0x2C }
  - { offsetInCU: 0x27E17, offset: 0x27E17, size: 0x8, addend: 0x0, symName: '__ZNSt3__116forward_as_tupleB8ue170006IJNS_9allocatorIZ17setup_environmentvE3$_0EEEEENS_5tupleIJDpOT_EEES7_', symObjAddr: 0x1B1B8, symBinAddr: 0x10001C08C, symSize: 0x2C }
  - { offsetInCU: 0x27E7B, offset: 0x27E7B, size: 0x8, addend: 0x0, symName: '__ZNSt3__13getB8ue170006ILm0EJOZ17setup_environmentvE3$_0EEERNS_13tuple_elementIXT_ENS_5tupleIJDpT0_EEEE4typeERS7_', symObjAddr: 0x1B4C4, symBinAddr: 0x10001C398, symSize: 0x24 }
  - { offsetInCU: 0x27EBE, offset: 0x27EBE, size: 0x8, addend: 0x0, symName: '__ZNSt3__13getB8ue170006ILm0EJONS_9allocatorIZ17setup_environmentvE3$_0EEEEERNS_13tuple_elementIXT_ENS_5tupleIJDpT0_EEEE4typeERS9_', symObjAddr: 0x1B500, symBinAddr: 0x10001C3D4, symSize: 0x24 }
  - { offsetInCU: 0x28400, offset: 0x28400, size: 0x8, addend: 0x0, symName: '__ZNSt3__116forward_as_tupleB8ue170006IJRKZ17setup_environmentvE3$_0EEENS_5tupleIJDpOT_EEES7_', symObjAddr: 0x1BA84, symBinAddr: 0x10001C958, symSize: 0x2C }
  - { offsetInCU: 0x2844F, offset: 0x2844F, size: 0x8, addend: 0x0, symName: '__ZNSt3__13getB8ue170006ILm0EJRKZ17setup_environmentvE3$_0EEERNS_13tuple_elementIXT_ENS_5tupleIJDpT0_EEEE4typeERS8_', symObjAddr: 0x1BC68, symBinAddr: 0x10001CB3C, symSize: 0x24 }
  - { offsetInCU: 0x28492, offset: 0x28492, size: 0x8, addend: 0x0, symName: '__ZNSt3__116forward_as_tupleB8ue170006IJRKNS_9allocatorIZ17setup_environmentvE3$_0EEEEENS_5tupleIJDpOT_EEES9_', symObjAddr: 0x1BFC4, symBinAddr: 0x10001CE98, symSize: 0x2C }
  - { offsetInCU: 0x284E1, offset: 0x284E1, size: 0x8, addend: 0x0, symName: '__ZNSt3__13getB8ue170006ILm0EJRKNS_9allocatorIZ17setup_environmentvE3$_0EEEEERNS_13tuple_elementIXT_ENS_5tupleIJDpT0_EEEE4typeERSA_', symObjAddr: 0x1C1A8, symBinAddr: 0x10001D07C, symSize: 0x24 }
  - { offsetInCU: 0x2861A, offset: 0x2861A, size: 0x8, addend: 0x0, symName: '__ZNSt3__18__invokeB8ue170006IRZ17setup_environmentvE3$_0JRKNS_6vectorI5ValueNS_9allocatorIS4_EEEEEEEDTclclsr3stdE7declvalIT_EEspclsr3stdE7declvalIT0_EEEEOSA_DpOSB_', symObjAddr: 0x1C288, symBinAddr: 0x10001D15C, symSize: 0x34 }
  - { offsetInCU: 0x2866B, offset: 0x2866B, size: 0x8, addend: 0x0, symName: __ZNSt3__14endlB8ue170006IcNS_11char_traitsIcEEEERNS_13basic_ostreamIT_T0_EES7_, symObjAddr: 0x1C3F0, symBinAddr: 0x10001D2C4, symSize: 0x58 }
  - { offsetInCU: 0x2875F, offset: 0x2875F, size: 0x8, addend: 0x0, symName: '__ZNSt3__116forward_as_tupleB8ue170006IJZ17setup_environmentvE3$_1EEENS_5tupleIJDpOT_EEES5_', symObjAddr: 0x1CC44, symBinAddr: 0x10001DB18, symSize: 0x2C }
  - { offsetInCU: 0x28799, offset: 0x28799, size: 0x8, addend: 0x0, symName: '__ZNSt3__116forward_as_tupleB8ue170006IJNS_9allocatorIZ17setup_environmentvE3$_1EEEEENS_5tupleIJDpOT_EEES7_', symObjAddr: 0x1CC70, symBinAddr: 0x10001DB44, symSize: 0x2C }
  - { offsetInCU: 0x287FD, offset: 0x287FD, size: 0x8, addend: 0x0, symName: '__ZNSt3__13getB8ue170006ILm0EJOZ17setup_environmentvE3$_1EEERNS_13tuple_elementIXT_ENS_5tupleIJDpT0_EEEE4typeERS7_', symObjAddr: 0x1CF7C, symBinAddr: 0x10001DE50, symSize: 0x24 }
  - { offsetInCU: 0x28840, offset: 0x28840, size: 0x8, addend: 0x0, symName: '__ZNSt3__13getB8ue170006ILm0EJONS_9allocatorIZ17setup_environmentvE3$_1EEEEERNS_13tuple_elementIXT_ENS_5tupleIJDpT0_EEEE4typeERS9_', symObjAddr: 0x1CFB8, symBinAddr: 0x10001DE8C, symSize: 0x24 }
  - { offsetInCU: 0x28D82, offset: 0x28D82, size: 0x8, addend: 0x0, symName: '__ZNSt3__116forward_as_tupleB8ue170006IJRKZ17setup_environmentvE3$_1EEENS_5tupleIJDpOT_EEES7_', symObjAddr: 0x1D53C, symBinAddr: 0x10001E410, symSize: 0x2C }
  - { offsetInCU: 0x28DD1, offset: 0x28DD1, size: 0x8, addend: 0x0, symName: '__ZNSt3__13getB8ue170006ILm0EJRKZ17setup_environmentvE3$_1EEERNS_13tuple_elementIXT_ENS_5tupleIJDpT0_EEEE4typeERS8_', symObjAddr: 0x1D720, symBinAddr: 0x10001E5F4, symSize: 0x24 }
  - { offsetInCU: 0x28E14, offset: 0x28E14, size: 0x8, addend: 0x0, symName: '__ZNSt3__116forward_as_tupleB8ue170006IJRKNS_9allocatorIZ17setup_environmentvE3$_1EEEEENS_5tupleIJDpOT_EEES9_', symObjAddr: 0x1DA7C, symBinAddr: 0x10001E950, symSize: 0x2C }
  - { offsetInCU: 0x28E63, offset: 0x28E63, size: 0x8, addend: 0x0, symName: '__ZNSt3__13getB8ue170006ILm0EJRKNS_9allocatorIZ17setup_environmentvE3$_1EEEEERNS_13tuple_elementIXT_ENS_5tupleIJDpT0_EEEE4typeERSA_', symObjAddr: 0x1DC60, symBinAddr: 0x10001EB34, symSize: 0x24 }
  - { offsetInCU: 0x28EA6, offset: 0x28EA6, size: 0x8, addend: 0x0, symName: '__ZNSt3__18__invokeB8ue170006IRZ17setup_environmentvE3$_1JRKNS_6vectorI5ValueNS_9allocatorIS4_EEEEEEEDTclclsr3stdE7declvalIT_EEspclsr3stdE7declvalIT0_EEEEOSA_DpOSB_', symObjAddr: 0x1DD40, symBinAddr: 0x10001EC14, symSize: 0x34 }
  - { offsetInCU: 0x28FAB, offset: 0x28FAB, size: 0x8, addend: 0x0, symName: '__ZNSt3__116forward_as_tupleB8ue170006IJZ17setup_environmentvE3$_2EEENS_5tupleIJDpOT_EEES5_', symObjAddr: 0x1E5B0, symBinAddr: 0x10001F484, symSize: 0x2C }
  - { offsetInCU: 0x28FE5, offset: 0x28FE5, size: 0x8, addend: 0x0, symName: '__ZNSt3__116forward_as_tupleB8ue170006IJNS_9allocatorIZ17setup_environmentvE3$_2EEEEENS_5tupleIJDpOT_EEES7_', symObjAddr: 0x1E5DC, symBinAddr: 0x10001F4B0, symSize: 0x2C }
  - { offsetInCU: 0x29049, offset: 0x29049, size: 0x8, addend: 0x0, symName: '__ZNSt3__13getB8ue170006ILm0EJOZ17setup_environmentvE3$_2EEERNS_13tuple_elementIXT_ENS_5tupleIJDpT0_EEEE4typeERS7_', symObjAddr: 0x1E8E8, symBinAddr: 0x10001F7BC, symSize: 0x24 }
  - { offsetInCU: 0x2908C, offset: 0x2908C, size: 0x8, addend: 0x0, symName: '__ZNSt3__13getB8ue170006ILm0EJONS_9allocatorIZ17setup_environmentvE3$_2EEEEERNS_13tuple_elementIXT_ENS_5tupleIJDpT0_EEEE4typeERS9_', symObjAddr: 0x1E924, symBinAddr: 0x10001F7F8, symSize: 0x24 }
  - { offsetInCU: 0x295CE, offset: 0x295CE, size: 0x8, addend: 0x0, symName: '__ZNSt3__116forward_as_tupleB8ue170006IJRKZ17setup_environmentvE3$_2EEENS_5tupleIJDpOT_EEES7_', symObjAddr: 0x1EEA8, symBinAddr: 0x10001FD7C, symSize: 0x2C }
  - { offsetInCU: 0x2961D, offset: 0x2961D, size: 0x8, addend: 0x0, symName: '__ZNSt3__13getB8ue170006ILm0EJRKZ17setup_environmentvE3$_2EEERNS_13tuple_elementIXT_ENS_5tupleIJDpT0_EEEE4typeERS8_', symObjAddr: 0x1F08C, symBinAddr: 0x10001FF60, symSize: 0x24 }
  - { offsetInCU: 0x29660, offset: 0x29660, size: 0x8, addend: 0x0, symName: '__ZNSt3__116forward_as_tupleB8ue170006IJRKNS_9allocatorIZ17setup_environmentvE3$_2EEEEENS_5tupleIJDpOT_EEES9_', symObjAddr: 0x1F3E8, symBinAddr: 0x1000202BC, symSize: 0x2C }
  - { offsetInCU: 0x296AF, offset: 0x296AF, size: 0x8, addend: 0x0, symName: '__ZNSt3__13getB8ue170006ILm0EJRKNS_9allocatorIZ17setup_environmentvE3$_2EEEEERNS_13tuple_elementIXT_ENS_5tupleIJDpT0_EEEE4typeERSA_', symObjAddr: 0x1F5CC, symBinAddr: 0x1000204A0, symSize: 0x24 }
  - { offsetInCU: 0x296F2, offset: 0x296F2, size: 0x8, addend: 0x0, symName: '__ZNSt3__18__invokeB8ue170006IRZ17setup_environmentvE3$_2JRKNS_6vectorI5ValueNS_9allocatorIS4_EEEEEEEDTclclsr3stdE7declvalIT_EEspclsr3stdE7declvalIT0_EEEEOSA_DpOSB_', symObjAddr: 0x1F6AC, symBinAddr: 0x100020580, symSize: 0x34 }
  - { offsetInCU: 0x297F7, offset: 0x297F7, size: 0x8, addend: 0x0, symName: '__ZNSt3__116forward_as_tupleB8ue170006IJZ17setup_environmentvE3$_3EEENS_5tupleIJDpOT_EEES5_', symObjAddr: 0x1FF40, symBinAddr: 0x100020E14, symSize: 0x2C }
  - { offsetInCU: 0x29831, offset: 0x29831, size: 0x8, addend: 0x0, symName: '__ZNSt3__116forward_as_tupleB8ue170006IJNS_9allocatorIZ17setup_environmentvE3$_3EEEEENS_5tupleIJDpOT_EEES7_', symObjAddr: 0x1FF6C, symBinAddr: 0x100020E40, symSize: 0x2C }
  - { offsetInCU: 0x29895, offset: 0x29895, size: 0x8, addend: 0x0, symName: '__ZNSt3__13getB8ue170006ILm0EJOZ17setup_environmentvE3$_3EEERNS_13tuple_elementIXT_ENS_5tupleIJDpT0_EEEE4typeERS7_', symObjAddr: 0x20278, symBinAddr: 0x10002114C, symSize: 0x24 }
  - { offsetInCU: 0x298D8, offset: 0x298D8, size: 0x8, addend: 0x0, symName: '__ZNSt3__13getB8ue170006ILm0EJONS_9allocatorIZ17setup_environmentvE3$_3EEEEERNS_13tuple_elementIXT_ENS_5tupleIJDpT0_EEEE4typeERS9_', symObjAddr: 0x202B4, symBinAddr: 0x100021188, symSize: 0x24 }
  - { offsetInCU: 0x29E1A, offset: 0x29E1A, size: 0x8, addend: 0x0, symName: '__ZNSt3__116forward_as_tupleB8ue170006IJRKZ17setup_environmentvE3$_3EEENS_5tupleIJDpOT_EEES7_', symObjAddr: 0x20838, symBinAddr: 0x10002170C, symSize: 0x2C }
  - { offsetInCU: 0x29E69, offset: 0x29E69, size: 0x8, addend: 0x0, symName: '__ZNSt3__13getB8ue170006ILm0EJRKZ17setup_environmentvE3$_3EEERNS_13tuple_elementIXT_ENS_5tupleIJDpT0_EEEE4typeERS8_', symObjAddr: 0x20A1C, symBinAddr: 0x1000218F0, symSize: 0x24 }
  - { offsetInCU: 0x29EAC, offset: 0x29EAC, size: 0x8, addend: 0x0, symName: '__ZNSt3__116forward_as_tupleB8ue170006IJRKNS_9allocatorIZ17setup_environmentvE3$_3EEEEENS_5tupleIJDpOT_EEES9_', symObjAddr: 0x20D78, symBinAddr: 0x100021C4C, symSize: 0x2C }
  - { offsetInCU: 0x29EFB, offset: 0x29EFB, size: 0x8, addend: 0x0, symName: '__ZNSt3__13getB8ue170006ILm0EJRKNS_9allocatorIZ17setup_environmentvE3$_3EEEEERNS_13tuple_elementIXT_ENS_5tupleIJDpT0_EEEE4typeERSA_', symObjAddr: 0x20F5C, symBinAddr: 0x100021E30, symSize: 0x24 }
  - { offsetInCU: 0x29F3E, offset: 0x29F3E, size: 0x8, addend: 0x0, symName: '__ZNSt3__18__invokeB8ue170006IRZ17setup_environmentvE3$_3JRKNS_6vectorI5ValueNS_9allocatorIS4_EEEEEEEDTclclsr3stdE7declvalIT_EEspclsr3stdE7declvalIT0_EEEEOSA_DpOSB_', symObjAddr: 0x2103C, symBinAddr: 0x100021F10, symSize: 0x34 }
  - { offsetInCU: 0x2A043, offset: 0x2A043, size: 0x8, addend: 0x0, symName: '__ZNSt3__116forward_as_tupleB8ue170006IJZ17setup_environmentvE3$_4EEENS_5tupleIJDpOT_EEES5_', symObjAddr: 0x218C8, symBinAddr: 0x10002279C, symSize: 0x2C }
  - { offsetInCU: 0x2A07D, offset: 0x2A07D, size: 0x8, addend: 0x0, symName: '__ZNSt3__116forward_as_tupleB8ue170006IJNS_9allocatorIZ17setup_environmentvE3$_4EEEEENS_5tupleIJDpOT_EEES7_', symObjAddr: 0x218F4, symBinAddr: 0x1000227C8, symSize: 0x2C }
  - { offsetInCU: 0x2A0E1, offset: 0x2A0E1, size: 0x8, addend: 0x0, symName: '__ZNSt3__13getB8ue170006ILm0EJOZ17setup_environmentvE3$_4EEERNS_13tuple_elementIXT_ENS_5tupleIJDpT0_EEEE4typeERS7_', symObjAddr: 0x21C00, symBinAddr: 0x100022AD4, symSize: 0x24 }
  - { offsetInCU: 0x2A124, offset: 0x2A124, size: 0x8, addend: 0x0, symName: '__ZNSt3__13getB8ue170006ILm0EJONS_9allocatorIZ17setup_environmentvE3$_4EEEEERNS_13tuple_elementIXT_ENS_5tupleIJDpT0_EEEE4typeERS9_', symObjAddr: 0x21C3C, symBinAddr: 0x100022B10, symSize: 0x24 }
  - { offsetInCU: 0x2A666, offset: 0x2A666, size: 0x8, addend: 0x0, symName: '__ZNSt3__116forward_as_tupleB8ue170006IJRKZ17setup_environmentvE3$_4EEENS_5tupleIJDpOT_EEES7_', symObjAddr: 0x221C0, symBinAddr: 0x100023094, symSize: 0x2C }
  - { offsetInCU: 0x2A6B5, offset: 0x2A6B5, size: 0x8, addend: 0x0, symName: '__ZNSt3__13getB8ue170006ILm0EJRKZ17setup_environmentvE3$_4EEERNS_13tuple_elementIXT_ENS_5tupleIJDpT0_EEEE4typeERS8_', symObjAddr: 0x223A4, symBinAddr: 0x100023278, symSize: 0x24 }
  - { offsetInCU: 0x2A6F8, offset: 0x2A6F8, size: 0x8, addend: 0x0, symName: '__ZNSt3__116forward_as_tupleB8ue170006IJRKNS_9allocatorIZ17setup_environmentvE3$_4EEEEENS_5tupleIJDpOT_EEES9_', symObjAddr: 0x22700, symBinAddr: 0x1000235D4, symSize: 0x2C }
  - { offsetInCU: 0x2A747, offset: 0x2A747, size: 0x8, addend: 0x0, symName: '__ZNSt3__13getB8ue170006ILm0EJRKNS_9allocatorIZ17setup_environmentvE3$_4EEEEERNS_13tuple_elementIXT_ENS_5tupleIJDpT0_EEEE4typeERSA_', symObjAddr: 0x228E4, symBinAddr: 0x1000237B8, symSize: 0x24 }
  - { offsetInCU: 0x2A78A, offset: 0x2A78A, size: 0x8, addend: 0x0, symName: '__ZNSt3__18__invokeB8ue170006IRZ17setup_environmentvE3$_4JRKNS_6vectorI5ValueNS_9allocatorIS4_EEEEEEEDTclclsr3stdE7declvalIT_EEspclsr3stdE7declvalIT0_EEEEOSA_DpOSB_', symObjAddr: 0x229C4, symBinAddr: 0x100023898, symSize: 0x34 }
  - { offsetInCU: 0x2A7DB, offset: 0x2A7DB, size: 0x8, addend: 0x0, symName: __ZNSt3__1neB8ue170006ERKNS_21__hash_const_iteratorIPNS_11__hash_nodeINS_17__hash_value_typeINS_12basic_stringIcNS_11char_traitsIcEENS_9allocatorIcEEEE5ValueEEPvEEEESG_, symObjAddr: 0x22B84, symBinAddr: 0x100023A58, symSize: 0x34 }
  - { offsetInCU: 0x2A819, offset: 0x2A819, size: 0x8, addend: 0x0, symName: __ZNSt3__1eqB8ue170006ERKNS_21__hash_const_iteratorIPNS_11__hash_nodeINS_17__hash_value_typeINS_12basic_stringIcNS_11char_traitsIcEENS_9allocatorIcEEEE5ValueEEPvEEEESG_, symObjAddr: 0x22D9C, symBinAddr: 0x100023C70, symSize: 0x30 }
  - { offsetInCU: 0x2A857, offset: 0x2A857, size: 0x8, addend: 0x0, symName: __ZNSt3__120__throw_out_of_rangeB8ue170006EPKc, symObjAddr: 0x22EE0, symBinAddr: 0x100023DB4, symSize: 0x64 }
  - { offsetInCU: 0x2A881, offset: 0x2A881, size: 0x8, addend: 0x0, symName: __ZNSt3__116forward_as_tupleB8ue170006IJRKNS_12basic_stringIcNS_11char_traitsIcEENS_9allocatorIcEEEEEEENS_5tupleIJDpOT_EEESC_, symObjAddr: 0x23474, symBinAddr: 0x100024348, symSize: 0x2C }
  - { offsetInCU: 0x2A8BA, offset: 0x2A8BA, size: 0x8, addend: 0x0, symName: __ZNSt3__112construct_atB8ue170006INS_4pairIKNS_12basic_stringIcNS_11char_traitsIcEENS_9allocatorIcEEEE5ValueEEJRKNS_21piecewise_construct_tENS_5tupleIJRS8_EEENSE_IJEEEEPSA_EEPT_SK_DpOT0_, symObjAddr: 0x23630, symBinAddr: 0x100024504, symSize: 0x50 }
  - { offsetInCU: 0x2A952, offset: 0x2A952, size: 0x8, addend: 0x0, symName: __ZNSt3__13getB8ue170006ILm0EJRKNS_12basic_stringIcNS_11char_traitsIcEENS_9allocatorIcEEEEEEERNS_13tuple_elementIXT_ENS_5tupleIJDpT0_EEEE4typeERSD_, symObjAddr: 0x23770, symBinAddr: 0x100024644, symSize: 0x24 }
  - { offsetInCU: 0x2A9AB, offset: 0x2A9AB, size: 0x8, addend: 0x0, symName: __ZNSt3__1eqB8ue170006ERKNS_15__hash_iteratorIPNS_11__hash_nodeINS_17__hash_value_typeINS_12basic_stringIcNS_11char_traitsIcEENS_9allocatorIcEEEE5ValueEEPvEEEESG_, symObjAddr: 0x23ACC, symBinAddr: 0x1000249A0, symSize: 0x30 }
  - { offsetInCU: 0x2AA1C, offset: 0x2AA1C, size: 0x8, addend: 0x0, symName: __ZNSt3__125__throw_bad_function_callB8ue170006Ev, symObjAddr: 0x23B74, symBinAddr: 0x100024A48, symSize: 0x38 }
  - { offsetInCU: 0x2B638, offset: 0x2B638, size: 0x8, addend: 0x0, symName: __ZSt28__throw_bad_array_new_lengthB8ue170006v, symObjAddr: 0xC29C, symBinAddr: 0x10000D170, symSize: 0x34 }
  - { offsetInCU: 0x2BEDB, offset: 0x2BEDB, size: 0x8, addend: 0x0, symName: _environment, symObjAddr: 0x15F028, symBinAddr: 0x10002C038, symSize: 0x0 }
  - { offsetInCU: 0x2CFD1, offset: 0x2CFD1, size: 0x8, addend: 0x0, symName: __ZNSt3__16vectorIN6chisel6Parser4NodeENS_9allocatorIS3_EEE26__swap_out_circular_bufferERNS_14__split_bufferIS3_RS5_EE, symObjAddr: 0xBC50, symBinAddr: 0x10000CB24, symSize: 0x110 }
  - { offsetInCU: 0x2D0B4, offset: 0x2D0B4, size: 0x8, addend: 0x0, symName: __ZNSt3__16vectorI5ValueNS_9allocatorIS1_EEE26__swap_out_circular_bufferERNS_14__split_bufferIS1_RS3_EE, symObjAddr: 0x1557C, symBinAddr: 0x100016450, symSize: 0x110 }
  - { offsetInCU: 0x2D1AB, offset: 0x2D1AB, size: 0x8, addend: 0x0, symName: __Z17setup_environmentv, symObjAddr: 0x8300, symBinAddr: 0x1000091D4, symSize: 0x428 }
  - { offsetInCU: 0x2E3F7, offset: 0x2E3F7, size: 0x8, addend: 0x0, symName: __Z7isalnumi, symObjAddr: 0x1534, symBinAddr: 0x100002408, symSize: 0x28 }
  - { offsetInCU: 0x2E423, offset: 0x2E423, size: 0x8, addend: 0x0, symName: __Z7isalphai, symObjAddr: 0x150C, symBinAddr: 0x1000023E0, symSize: 0x28 }
  - { offsetInCU: 0x2E479, offset: 0x2E479, size: 0x8, addend: 0x0, symName: __Z7isdigiti, symObjAddr: 0x19DC, symBinAddr: 0x1000028B0, symSize: 0x28 }
  - { offsetInCU: 0x2E4FA, offset: 0x2E4FA, size: 0x8, addend: 0x0, symName: __Z7isspacei, symObjAddr: 0x1F3C, symBinAddr: 0x100002E10, symSize: 0x28 }
  - { offsetInCU: 0x2FFE5, offset: 0x2FFE5, size: 0x8, addend: 0x0, symName: __ZN6chisel5TokenC1ENS0_4TypeEPc, symObjAddr: 0x0, symBinAddr: 0x100000ED4, symSize: 0x3C }
  - { offsetInCU: 0x3002B, offset: 0x3002B, size: 0x8, addend: 0x0, symName: __ZN6chisel5TokenD1Ev, symObjAddr: 0x3C, symBinAddr: 0x100000F10, symSize: 0x2C }
  - { offsetInCU: 0x30055, offset: 0x30055, size: 0x8, addend: 0x0, symName: __ZN6chisel5Token8token_EQERNSt3__113basic_istreamIcNS1_11char_traitsIcEEEE, symObjAddr: 0x68, symBinAddr: 0x100000F3C, symSize: 0x10C }
  - { offsetInCU: 0x30095, offset: 0x30095, size: 0x8, addend: 0x0, symName: __ZNKSt3__113basic_istreamIcNS_11char_traitsIcEEE6gcountB8ue170006Ev, symObjAddr: 0x174, symBinAddr: 0x100001048, symSize: 0x18 }
  - { offsetInCU: 0x300BB, offset: 0x300BB, size: 0x8, addend: 0x0, symName: __ZNSt3__19basic_iosIcNS_11char_traitsIcEEE5clearB8ue170006Ej, symObjAddr: 0x18C, symBinAddr: 0x100001060, symSize: 0x2C }
  - { offsetInCU: 0x300F0, offset: 0x300F0, size: 0x8, addend: 0x0, symName: __ZN6chisel5TokenC1ERKS0_, symObjAddr: 0x1B8, symBinAddr: 0x10000108C, symSize: 0x34 }
  - { offsetInCU: 0x30128, offset: 0x30128, size: 0x8, addend: 0x0, symName: __ZN6chisel5Token8token_ORERNSt3__113basic_istreamIcNS1_11char_traitsIcEEEE, symObjAddr: 0x1EC, symBinAddr: 0x1000010C0, symSize: 0x10C }
  - { offsetInCU: 0x30168, offset: 0x30168, size: 0x8, addend: 0x0, symName: __ZN6chisel5Token9token_ANDERNSt3__113basic_istreamIcNS1_11char_traitsIcEEEE, symObjAddr: 0x2F8, symBinAddr: 0x1000011CC, symSize: 0x10C }
  - { offsetInCU: 0x301A8, offset: 0x301A8, size: 0x8, addend: 0x0, symName: __ZN6chisel5Token10token_EQEQERNSt3__113basic_istreamIcNS1_11char_traitsIcEEEE, symObjAddr: 0x404, symBinAddr: 0x1000012D8, symSize: 0x10C }
  - { offsetInCU: 0x301E8, offset: 0x301E8, size: 0x8, addend: 0x0, symName: __ZN6chisel5Token9token_NEQERNSt3__113basic_istreamIcNS1_11char_traitsIcEEEE, symObjAddr: 0x510, symBinAddr: 0x1000013E4, symSize: 0x10C }
  - { offsetInCU: 0x30228, offset: 0x30228, size: 0x8, addend: 0x0, symName: __ZN6chisel5Token8token_LTERNSt3__113basic_istreamIcNS1_11char_traitsIcEEEE, symObjAddr: 0x61C, symBinAddr: 0x1000014F0, symSize: 0x10C }
  - { offsetInCU: 0x30268, offset: 0x30268, size: 0x8, addend: 0x0, symName: __ZN6chisel5Token8token_GTERNSt3__113basic_istreamIcNS1_11char_traitsIcEEEE, symObjAddr: 0x728, symBinAddr: 0x1000015FC, symSize: 0x10C }
  - { offsetInCU: 0x302A8, offset: 0x302A8, size: 0x8, addend: 0x0, symName: __ZN6chisel5Token9token_LTEERNSt3__113basic_istreamIcNS1_11char_traitsIcEEEE, symObjAddr: 0x834, symBinAddr: 0x100001708, symSize: 0x10C }
  - { offsetInCU: 0x302EC, offset: 0x302EC, size: 0x8, addend: 0x0, symName: __ZN6chisel5Token9token_GTEERNSt3__113basic_istreamIcNS1_11char_traitsIcEEEE, symObjAddr: 0x940, symBinAddr: 0x100001814, symSize: 0x10C }
  - { offsetInCU: 0x30330, offset: 0x30330, size: 0x8, addend: 0x0, symName: __ZN6chisel5Token10token_PLUSERNSt3__113basic_istreamIcNS1_11char_traitsIcEEEE, symObjAddr: 0xA4C, symBinAddr: 0x100001920, symSize: 0x10C }
  - { offsetInCU: 0x30374, offset: 0x30374, size: 0x8, addend: 0x0, symName: __ZN6chisel5Token11token_MINUSERNSt3__113basic_istreamIcNS1_11char_traitsIcEEEE, symObjAddr: 0xB58, symBinAddr: 0x100001A2C, symSize: 0x10C }
  - { offsetInCU: 0x303B8, offset: 0x303B8, size: 0x8, addend: 0x0, symName: __ZN6chisel5Token9token_MULERNSt3__113basic_istreamIcNS1_11char_traitsIcEEEE, symObjAddr: 0xC64, symBinAddr: 0x100001B38, symSize: 0x10C }
  - { offsetInCU: 0x303FC, offset: 0x303FC, size: 0x8, addend: 0x0, symName: __ZN6chisel5Token9token_DIVERNSt3__113basic_istreamIcNS1_11char_traitsIcEEEE, symObjAddr: 0xD70, symBinAddr: 0x100001C44, symSize: 0x10C }
  - { offsetInCU: 0x30440, offset: 0x30440, size: 0x8, addend: 0x0, symName: __ZN6chisel5Token12token_LPARENERNSt3__113basic_istreamIcNS1_11char_traitsIcEEEE, symObjAddr: 0xE7C, symBinAddr: 0x100001D50, symSize: 0x10C }
  - { offsetInCU: 0x30484, offset: 0x30484, size: 0x8, addend: 0x0, symName: __ZN6chisel5Token12token_RPARENERNSt3__113basic_istreamIcNS1_11char_traitsIcEEEE, symObjAddr: 0xF88, symBinAddr: 0x100001E5C, symSize: 0x10C }
  - { offsetInCU: 0x304C8, offset: 0x304C8, size: 0x8, addend: 0x0, symName: __ZN6chisel5Token11token_COMMAERNSt3__113basic_istreamIcNS1_11char_traitsIcEEEE, symObjAddr: 0x1094, symBinAddr: 0x100001F68, symSize: 0x10C }
  - { offsetInCU: 0x3050C, offset: 0x3050C, size: 0x8, addend: 0x0, symName: __ZN6chisel5Token8token_IDERNSt3__113basic_istreamIcNS1_11char_traitsIcEEEE, symObjAddr: 0x11A0, symBinAddr: 0x100002074, symSize: 0x318 }
  - { offsetInCU: 0x3057A, offset: 0x3057A, size: 0x8, addend: 0x0, symName: __ZNKSt3__19basic_iosIcNS_11char_traitsIcEEE3eofB8ue170006Ev, symObjAddr: 0x14B8, symBinAddr: 0x10000238C, symSize: 0x28 }
  - { offsetInCU: 0x305A0, offset: 0x305A0, size: 0x8, addend: 0x0, symName: __ZNSt3__112basic_stringIcNS_11char_traitsIcEENS_9allocatorIcEEEC1B8ue170006Ev, symObjAddr: 0x14E0, symBinAddr: 0x1000023B4, symSize: 0x2C }
  - { offsetInCU: 0x305CA, offset: 0x305CA, size: 0x8, addend: 0x0, symName: __ZNKSt3__112basic_stringIcNS_11char_traitsIcEENS_9allocatorIcEEE4sizeB8ue170006Ev, symObjAddr: 0x15B8, symBinAddr: 0x10000248C, symSize: 0x54 }
  - { offsetInCU: 0x305F0, offset: 0x305F0, size: 0x8, addend: 0x0, symName: __ZNSt3__112basic_stringIcNS_11char_traitsIcEENS_9allocatorIcEEE4dataB8ue170006Ev, symObjAddr: 0x160C, symBinAddr: 0x1000024E0, symSize: 0x28 }
  - { offsetInCU: 0x30616, offset: 0x30616, size: 0x8, addend: 0x0, symName: __ZN6chisel5Token11token_FLOATERNSt3__113basic_istreamIcNS1_11char_traitsIcEEEE, symObjAddr: 0x1634, symBinAddr: 0x100002508, symSize: 0x3A8 }
  - { offsetInCU: 0x3067D, offset: 0x3067D, size: 0x8, addend: 0x0, symName: __ZNKSt3__112basic_stringIcNS_11char_traitsIcEENS_9allocatorIcEEE5emptyB8ue170006Ev, symObjAddr: 0x1A04, symBinAddr: 0x1000028D8, symSize: 0x30 }
  - { offsetInCU: 0x306A3, offset: 0x306A3, size: 0x8, addend: 0x0, symName: __ZNSt3__112basic_stringIcNS_11char_traitsIcEENS_9allocatorIcEEE4backB8ue170006Ev, symObjAddr: 0x1A34, symBinAddr: 0x100002908, symSize: 0x48 }
  - { offsetInCU: 0x306C9, offset: 0x306C9, size: 0x8, addend: 0x0, symName: __ZN6chisel5Token9token_INTERNSt3__113basic_istreamIcNS1_11char_traitsIcEEEE, symObjAddr: 0x1A7C, symBinAddr: 0x100002950, symSize: 0x264 }
  - { offsetInCU: 0x30730, offset: 0x30730, size: 0x8, addend: 0x0, symName: __ZN6chisel5Token12token_STRINGERNSt3__113basic_istreamIcNS1_11char_traitsIcEEEE, symObjAddr: 0x1CE0, symBinAddr: 0x100002BB4, symSize: 0x1E4 }
  - { offsetInCU: 0x3078B, offset: 0x3078B, size: 0x8, addend: 0x0, symName: __ZN6chisel5Token16token_WHITESPACEERNSt3__113basic_istreamIcNS1_11char_traitsIcEEEE, symObjAddr: 0x1EC4, symBinAddr: 0x100002D98, symSize: 0x78 }
  - { offsetInCU: 0x307B1, offset: 0x307B1, size: 0x8, addend: 0x0, symName: __ZN6chisel5Token4skipERNSt3__113basic_istreamIcNS1_11char_traitsIcEEEE, symObjAddr: 0x1F64, symBinAddr: 0x100002E38, symSize: 0x24 }
  - { offsetInCU: 0x307D7, offset: 0x307D7, size: 0x8, addend: 0x0, symName: __ZN6chisel6Parser17construct_PROGRAMERNSt3__113basic_istreamIcNS1_11char_traitsIcEEEE, symObjAddr: 0x1F88, symBinAddr: 0x100002E5C, symSize: 0x114 }
  - { offsetInCU: 0x3080C, offset: 0x3080C, size: 0x8, addend: 0x0, symName: __ZN6chisel6Parser9ParseNodeC1ENS1_4TypeE, symObjAddr: 0x209C, symBinAddr: 0x100002F70, symSize: 0x34 }
  - { offsetInCU: 0x30845, offset: 0x30845, size: 0x8, addend: 0x0, symName: __ZN6chisel6Parser4NodeC1EPNS0_9ParseNodeE, symObjAddr: 0x20D0, symBinAddr: 0x100002FA4, symSize: 0x34 }
  - { offsetInCU: 0x3087E, offset: 0x3087E, size: 0x8, addend: 0x0, symName: __ZN6chisel6Parser18parse_multiplier_1ERNSt3__113basic_istreamIcNS1_11char_traitsIcEEEERNS1_6vectorINS0_4NodeENS1_9allocatorIS8_EEEE, symObjAddr: 0x2104, symBinAddr: 0x100002FD8, symSize: 0x19C }
  - { offsetInCU: 0x308EF, offset: 0x308EF, size: 0x8, addend: 0x0, symName: __ZN6chisel6Parser4Node8get_nodeEv, symObjAddr: 0x22A0, symBinAddr: 0x100003174, symSize: 0x18 }
  - { offsetInCU: 0x30915, offset: 0x30915, size: 0x8, addend: 0x0, symName: __ZN6chisel6Parser9ParseNode12get_childrenEv, symObjAddr: 0x22B8, symBinAddr: 0x10000318C, symSize: 0x18 }
  - { offsetInCU: 0x3093B, offset: 0x3093B, size: 0x8, addend: 0x0, symName: __ZN6chisel6Parser4NodeC1ERKS1_, symObjAddr: 0x22D0, symBinAddr: 0x1000031A4, symSize: 0x34 }
  - { offsetInCU: 0x30974, offset: 0x30974, size: 0x8, addend: 0x0, symName: __ZN6chisel6Parser4NodeD1Ev, symObjAddr: 0x2304, symBinAddr: 0x1000031D8, symSize: 0x2C }
  - { offsetInCU: 0x3099E, offset: 0x3099E, size: 0x8, addend: 0x0, symName: __ZN6chisel6Parser19construct_STATEMENTERNSt3__113basic_istreamIcNS1_11char_traitsIcEEEE, symObjAddr: 0x2330, symBinAddr: 0x100003204, symSize: 0x114 }
  - { offsetInCU: 0x309D3, offset: 0x309D3, size: 0x8, addend: 0x0, symName: __ZN6chisel6Parser10parse_or_1ERNSt3__113basic_istreamIcNS1_11char_traitsIcEEEERNS1_6vectorINS0_4NodeENS1_9allocatorIS8_EEEE, symObjAddr: 0x2444, symBinAddr: 0x100003318, symSize: 0x104 }
  - { offsetInCU: 0x30A26, offset: 0x30A26, size: 0x8, addend: 0x0, symName: __ZN6chisel6Parser20construct_ASSIGNMENTERNSt3__113basic_istreamIcNS1_11char_traitsIcEEEE, symObjAddr: 0x2548, symBinAddr: 0x10000341C, symSize: 0x114 }
  - { offsetInCU: 0x30A5B, offset: 0x30A5B, size: 0x8, addend: 0x0, symName: __ZN6chisel6Parser13parse_chain_1ERNSt3__113basic_istreamIcNS1_11char_traitsIcEEEERNS1_6vectorINS0_4NodeENS1_9allocatorIS8_EEEE, symObjAddr: 0x265C, symBinAddr: 0x100003530, symSize: 0x120 }
  - { offsetInCU: 0x30AAE, offset: 0x30AAE, size: 0x8, addend: 0x0, symName: __ZN6chisel6Parser20construct_EXPRESSIONERNSt3__113basic_istreamIcNS1_11char_traitsIcEEEE, symObjAddr: 0x277C, symBinAddr: 0x100003650, symSize: 0x114 }
  - { offsetInCU: 0x30AE3, offset: 0x30AE3, size: 0x8, addend: 0x0, symName: __ZN6chisel6Parser14parse_nested_5ERNSt3__113basic_istreamIcNS1_11char_traitsIcEEEERNS1_6vectorINS0_4NodeENS1_9allocatorIS8_EEEE, symObjAddr: 0x2890, symBinAddr: 0x100003764, symSize: 0xA8 }
  - { offsetInCU: 0x30B27, offset: 0x30B27, size: 0x8, addend: 0x0, symName: __ZN6chisel6Parser17construct_OR_EXPRERNSt3__113basic_istreamIcNS1_11char_traitsIcEEEE, symObjAddr: 0x2938, symBinAddr: 0x10000380C, symSize: 0x114 }
  - { offsetInCU: 0x30B5C, offset: 0x30B5C, size: 0x8, addend: 0x0, symName: __ZN6chisel6Parser13parse_chain_2ERNSt3__113basic_istreamIcNS1_11char_traitsIcEEEERNS1_6vectorINS0_4NodeENS1_9allocatorIS8_EEEE, symObjAddr: 0x2A4C, symBinAddr: 0x100003920, symSize: 0x104 }
  - { offsetInCU: 0x30BAF, offset: 0x30BAF, size: 0x8, addend: 0x0, symName: __ZN6chisel6Parser18construct_AND_EXPRERNSt3__113basic_istreamIcNS1_11char_traitsIcEEEE, symObjAddr: 0x2B50, symBinAddr: 0x100003A24, symSize: 0x114 }
  - { offsetInCU: 0x30BE4, offset: 0x30BE4, size: 0x8, addend: 0x0, symName: __ZN6chisel6Parser13parse_chain_4ERNSt3__113basic_istreamIcNS1_11char_traitsIcEEEERNS1_6vectorINS0_4NodeENS1_9allocatorIS8_EEEE, symObjAddr: 0x2C64, symBinAddr: 0x100003B38, symSize: 0x104 }
  - { offsetInCU: 0x30C37, offset: 0x30C37, size: 0x8, addend: 0x0, symName: __ZN6chisel6Parser19construct_COMP_EXPRERNSt3__113basic_istreamIcNS1_11char_traitsIcEEEE, symObjAddr: 0x2D68, symBinAddr: 0x100003C3C, symSize: 0x114 }
  - { offsetInCU: 0x30C6C, offset: 0x30C6C, size: 0x8, addend: 0x0, symName: __ZN6chisel6Parser13parse_chain_6ERNSt3__113basic_istreamIcNS1_11char_traitsIcEEEERNS1_6vectorINS0_4NodeENS1_9allocatorIS8_EEEE, symObjAddr: 0x2E7C, symBinAddr: 0x100003D50, symSize: 0x104 }
  - { offsetInCU: 0x30CBF, offset: 0x30CBF, size: 0x8, addend: 0x0, symName: __ZN6chisel6Parser20construct_ARITH_EXPRERNSt3__113basic_istreamIcNS1_11char_traitsIcEEEE, symObjAddr: 0x2F80, symBinAddr: 0x100003E54, symSize: 0x114 }
  - { offsetInCU: 0x30CF4, offset: 0x30CF4, size: 0x8, addend: 0x0, symName: __ZN6chisel6Parser13parse_chain_8ERNSt3__113basic_istreamIcNS1_11char_traitsIcEEEERNS1_6vectorINS0_4NodeENS1_9allocatorIS8_EEEE, symObjAddr: 0x3094, symBinAddr: 0x100003F68, symSize: 0x104 }
  - { offsetInCU: 0x30D47, offset: 0x30D47, size: 0x8, addend: 0x0, symName: __ZN6chisel6Parser14construct_TERMERNSt3__113basic_istreamIcNS1_11char_traitsIcEEEE, symObjAddr: 0x3198, symBinAddr: 0x10000406C, symSize: 0x114 }
  - { offsetInCU: 0x30D7C, offset: 0x30D7C, size: 0x8, addend: 0x0, symName: __ZN6chisel6Parser14parse_chain_10ERNSt3__113basic_istreamIcNS1_11char_traitsIcEEEERNS1_6vectorINS0_4NodeENS1_9allocatorIS8_EEEE, symObjAddr: 0x32AC, symBinAddr: 0x100004180, symSize: 0x104 }
  - { offsetInCU: 0x30DCF, offset: 0x30DCF, size: 0x8, addend: 0x0, symName: __ZN6chisel6Parser16construct_FACTORERNSt3__113basic_istreamIcNS1_11char_traitsIcEEEE, symObjAddr: 0x33B0, symBinAddr: 0x100004284, symSize: 0x114 }
  - { offsetInCU: 0x30E04, offset: 0x30E04, size: 0x8, addend: 0x0, symName: __ZN6chisel6Parser10parse_or_5ERNSt3__113basic_istreamIcNS1_11char_traitsIcEEEERNS1_6vectorINS0_4NodeENS1_9allocatorIS8_EEEE, symObjAddr: 0x34C4, symBinAddr: 0x100004398, symSize: 0x174 }
  - { offsetInCU: 0x30E57, offset: 0x30E57, size: 0x8, addend: 0x0, symName: __ZN6chisel6Parser23construct_FUNCTION_CALLERNSt3__113basic_istreamIcNS1_11char_traitsIcEEEE, symObjAddr: 0x3638, symBinAddr: 0x10000450C, symSize: 0x114 }
  - { offsetInCU: 0x30E8C, offset: 0x30E8C, size: 0x8, addend: 0x0, symName: __ZN6chisel6Parser14parse_chain_13ERNSt3__113basic_istreamIcNS1_11char_traitsIcEEEERNS1_6vectorINS0_4NodeENS1_9allocatorIS8_EEEE, symObjAddr: 0x374C, symBinAddr: 0x100004620, symSize: 0x13C }
  - { offsetInCU: 0x30EDF, offset: 0x30EDF, size: 0x8, addend: 0x0, symName: __ZN6chisel6Parser14construct_ARGSERNSt3__113basic_istreamIcNS1_11char_traitsIcEEEE, symObjAddr: 0x3888, symBinAddr: 0x10000475C, symSize: 0x114 }
  - { offsetInCU: 0x30F14, offset: 0x30F14, size: 0x8, addend: 0x0, symName: __ZN6chisel6Parser14parse_chain_14ERNSt3__113basic_istreamIcNS1_11char_traitsIcEEEERNS1_6vectorINS0_4NodeENS1_9allocatorIS8_EEEE, symObjAddr: 0x399C, symBinAddr: 0x100004870, symSize: 0x104 }
  - { offsetInCU: 0x30F67, offset: 0x30F67, size: 0x8, addend: 0x0, symName: __ZN6chisel6Parser14parse_nested_1ERNSt3__113basic_istreamIcNS1_11char_traitsIcEEEERNS1_6vectorINS0_4NodeENS1_9allocatorIS8_EEEE, symObjAddr: 0x3AA0, symBinAddr: 0x100004974, symSize: 0xA8 }
  - { offsetInCU: 0x30FAB, offset: 0x30FAB, size: 0x8, addend: 0x0, symName: __ZNK6chisel6Parser4NodecvbEv, symObjAddr: 0x3B48, symBinAddr: 0x100004A1C, symSize: 0x58 }
  - { offsetInCU: 0x30FD1, offset: 0x30FD1, size: 0x8, addend: 0x0, symName: __ZNSt3__16vectorIN6chisel6Parser4NodeENS_9allocatorIS3_EEE12emplace_backIJRS3_EEES8_DpOT_, symObjAddr: 0x3BA0, symBinAddr: 0x100004A74, symSize: 0x74 }
  - { offsetInCU: 0x31013, offset: 0x31013, size: 0x8, addend: 0x0, symName: __ZNKSt3__14fposI11__mbstate_tEcvxB8ue170006Ev, symObjAddr: 0x3C14, symBinAddr: 0x100004AE8, symSize: 0x18 }
  - { offsetInCU: 0x31039, offset: 0x31039, size: 0x8, addend: 0x0, symName: __ZN6chisel6Parser14parse_nested_2ERNSt3__113basic_istreamIcNS1_11char_traitsIcEEEERNS1_6vectorINS0_4NodeENS1_9allocatorIS8_EEEE, symObjAddr: 0x3C2C, symBinAddr: 0x100004B00, symSize: 0xA8 }
  - { offsetInCU: 0x3107D, offset: 0x3107D, size: 0x8, addend: 0x0, symName: __ZN6chisel6Parser14parse_nested_3ERNSt3__113basic_istreamIcNS1_11char_traitsIcEEEERNS1_6vectorINS0_4NodeENS1_9allocatorIS8_EEEE, symObjAddr: 0x3CD4, symBinAddr: 0x100004BA8, symSize: 0xA8 }
  - { offsetInCU: 0x310C1, offset: 0x310C1, size: 0x8, addend: 0x0, symName: __ZN6chisel6Parser12parse_unit_1ERNSt3__113basic_istreamIcNS1_11char_traitsIcEEEERNS1_6vectorINS0_4NodeENS1_9allocatorIS8_EEEE, symObjAddr: 0x3D7C, symBinAddr: 0x100004C50, symSize: 0xA8 }
  - { offsetInCU: 0x31105, offset: 0x31105, size: 0x8, addend: 0x0, symName: __ZNK6chisel5TokencvbEv, symObjAddr: 0x3E24, symBinAddr: 0x100004CF8, symSize: 0x30 }
  - { offsetInCU: 0x3112B, offset: 0x3112B, size: 0x8, addend: 0x0, symName: __ZNSt3__16vectorIN6chisel6Parser4NodeENS_9allocatorIS3_EEE12emplace_backIJNS1_5TokenEEEERS3_DpOT_, symObjAddr: 0x3E54, symBinAddr: 0x100004D28, symSize: 0x74 }
  - { offsetInCU: 0x3116D, offset: 0x3116D, size: 0x8, addend: 0x0, symName: __ZN6chisel6Parser12parse_unit_2ERNSt3__113basic_istreamIcNS1_11char_traitsIcEEEERNS1_6vectorINS0_4NodeENS1_9allocatorIS8_EEEE, symObjAddr: 0x3EC8, symBinAddr: 0x100004D9C, symSize: 0xA8 }
  - { offsetInCU: 0x311B1, offset: 0x311B1, size: 0x8, addend: 0x0, symName: __ZN6chisel6Parser14parse_nested_4ERNSt3__113basic_istreamIcNS1_11char_traitsIcEEEERNS1_6vectorINS0_4NodeENS1_9allocatorIS8_EEEE, symObjAddr: 0x3F70, symBinAddr: 0x100004E44, symSize: 0xA8 }
  - { offsetInCU: 0x311F5, offset: 0x311F5, size: 0x8, addend: 0x0, symName: __ZN6chisel6Parser14parse_nested_6ERNSt3__113basic_istreamIcNS1_11char_traitsIcEEEERNS1_6vectorINS0_4NodeENS1_9allocatorIS8_EEEE, symObjAddr: 0x4018, symBinAddr: 0x100004EEC, symSize: 0xA8 }
  - { offsetInCU: 0x31239, offset: 0x31239, size: 0x8, addend: 0x0, symName: __ZN6chisel6Parser12parse_unit_3ERNSt3__113basic_istreamIcNS1_11char_traitsIcEEEERNS1_6vectorINS0_4NodeENS1_9allocatorIS8_EEEE, symObjAddr: 0x40C0, symBinAddr: 0x100004F94, symSize: 0xA8 }
  - { offsetInCU: 0x3127D, offset: 0x3127D, size: 0x8, addend: 0x0, symName: __ZN6chisel6Parser14parse_nested_7ERNSt3__113basic_istreamIcNS1_11char_traitsIcEEEERNS1_6vectorINS0_4NodeENS1_9allocatorIS8_EEEE, symObjAddr: 0x4168, symBinAddr: 0x10000503C, symSize: 0xA8 }
  - { offsetInCU: 0x312C1, offset: 0x312C1, size: 0x8, addend: 0x0, symName: __ZN6chisel6Parser13parse_chain_3ERNSt3__113basic_istreamIcNS1_11char_traitsIcEEEERNS1_6vectorINS0_4NodeENS1_9allocatorIS8_EEEE, symObjAddr: 0x4210, symBinAddr: 0x1000050E4, symSize: 0x104 }
  - { offsetInCU: 0x31314, offset: 0x31314, size: 0x8, addend: 0x0, symName: __ZN6chisel6Parser18parse_multiplier_2ERNSt3__113basic_istreamIcNS1_11char_traitsIcEEEERNS1_6vectorINS0_4NodeENS1_9allocatorIS8_EEEE, symObjAddr: 0x4314, symBinAddr: 0x1000051E8, symSize: 0x114 }
  - { offsetInCU: 0x31376, offset: 0x31376, size: 0x8, addend: 0x0, symName: __ZN6chisel6Parser14parse_nested_8ERNSt3__113basic_istreamIcNS1_11char_traitsIcEEEERNS1_6vectorINS0_4NodeENS1_9allocatorIS8_EEEE, symObjAddr: 0x4428, symBinAddr: 0x1000052FC, symSize: 0xA8 }
  - { offsetInCU: 0x313BA, offset: 0x313BA, size: 0x8, addend: 0x0, symName: __ZN6chisel6Parser12parse_unit_4ERNSt3__113basic_istreamIcNS1_11char_traitsIcEEEERNS1_6vectorINS0_4NodeENS1_9allocatorIS8_EEEE, symObjAddr: 0x44D0, symBinAddr: 0x1000053A4, symSize: 0xA8 }
  - { offsetInCU: 0x313FE, offset: 0x313FE, size: 0x8, addend: 0x0, symName: __ZN6chisel6Parser14parse_nested_9ERNSt3__113basic_istreamIcNS1_11char_traitsIcEEEERNS1_6vectorINS0_4NodeENS1_9allocatorIS8_EEEE, symObjAddr: 0x4578, symBinAddr: 0x10000544C, symSize: 0xA8 }
  - { offsetInCU: 0x31442, offset: 0x31442, size: 0x8, addend: 0x0, symName: __ZN6chisel6Parser13parse_chain_5ERNSt3__113basic_istreamIcNS1_11char_traitsIcEEEERNS1_6vectorINS0_4NodeENS1_9allocatorIS8_EEEE, symObjAddr: 0x4620, symBinAddr: 0x1000054F4, symSize: 0x104 }
  - { offsetInCU: 0x31495, offset: 0x31495, size: 0x8, addend: 0x0, symName: __ZN6chisel6Parser18parse_multiplier_3ERNSt3__113basic_istreamIcNS1_11char_traitsIcEEEERNS1_6vectorINS0_4NodeENS1_9allocatorIS8_EEEE, symObjAddr: 0x4724, symBinAddr: 0x1000055F8, symSize: 0x114 }
  - { offsetInCU: 0x314F7, offset: 0x314F7, size: 0x8, addend: 0x0, symName: __ZN6chisel6Parser15parse_nested_10ERNSt3__113basic_istreamIcNS1_11char_traitsIcEEEERNS1_6vectorINS0_4NodeENS1_9allocatorIS8_EEEE, symObjAddr: 0x4838, symBinAddr: 0x10000570C, symSize: 0xA8 }
  - { offsetInCU: 0x3153B, offset: 0x3153B, size: 0x8, addend: 0x0, symName: __ZN6chisel6Parser12parse_unit_5ERNSt3__113basic_istreamIcNS1_11char_traitsIcEEEERNS1_6vectorINS0_4NodeENS1_9allocatorIS8_EEEE, symObjAddr: 0x48E0, symBinAddr: 0x1000057B4, symSize: 0xA8 }
  - { offsetInCU: 0x3157F, offset: 0x3157F, size: 0x8, addend: 0x0, symName: __ZN6chisel6Parser12parse_unit_6ERNSt3__113basic_istreamIcNS1_11char_traitsIcEEEERNS1_6vectorINS0_4NodeENS1_9allocatorIS8_EEEE, symObjAddr: 0x4988, symBinAddr: 0x10000585C, symSize: 0xA8 }
  - { offsetInCU: 0x315C3, offset: 0x315C3, size: 0x8, addend: 0x0, symName: __ZN6chisel6Parser12parse_unit_7ERNSt3__113basic_istreamIcNS1_11char_traitsIcEEEERNS1_6vectorINS0_4NodeENS1_9allocatorIS8_EEEE, symObjAddr: 0x4A30, symBinAddr: 0x100005904, symSize: 0xA8 }
  - { offsetInCU: 0x31607, offset: 0x31607, size: 0x8, addend: 0x0, symName: __ZN6chisel6Parser12parse_unit_8ERNSt3__113basic_istreamIcNS1_11char_traitsIcEEEERNS1_6vectorINS0_4NodeENS1_9allocatorIS8_EEEE, symObjAddr: 0x4AD8, symBinAddr: 0x1000059AC, symSize: 0xA8 }
  - { offsetInCU: 0x3164B, offset: 0x3164B, size: 0x8, addend: 0x0, symName: __ZN6chisel6Parser12parse_unit_9ERNSt3__113basic_istreamIcNS1_11char_traitsIcEEEERNS1_6vectorINS0_4NodeENS1_9allocatorIS8_EEEE, symObjAddr: 0x4B80, symBinAddr: 0x100005A54, symSize: 0xA8 }
  - { offsetInCU: 0x3168F, offset: 0x3168F, size: 0x8, addend: 0x0, symName: __ZN6chisel6Parser13parse_unit_10ERNSt3__113basic_istreamIcNS1_11char_traitsIcEEEERNS1_6vectorINS0_4NodeENS1_9allocatorIS8_EEEE, symObjAddr: 0x4C28, symBinAddr: 0x100005AFC, symSize: 0xA8 }
  - { offsetInCU: 0x316D3, offset: 0x316D3, size: 0x8, addend: 0x0, symName: __ZN6chisel6Parser10parse_or_2ERNSt3__113basic_istreamIcNS1_11char_traitsIcEEEERNS1_6vectorINS0_4NodeENS1_9allocatorIS8_EEEE, symObjAddr: 0x4CD0, symBinAddr: 0x100005BA4, symSize: 0x174 }
  - { offsetInCU: 0x31726, offset: 0x31726, size: 0x8, addend: 0x0, symName: __ZN6chisel6Parser15parse_nested_11ERNSt3__113basic_istreamIcNS1_11char_traitsIcEEEERNS1_6vectorINS0_4NodeENS1_9allocatorIS8_EEEE, symObjAddr: 0x4E44, symBinAddr: 0x100005D18, symSize: 0xA8 }
  - { offsetInCU: 0x3176A, offset: 0x3176A, size: 0x8, addend: 0x0, symName: __ZN6chisel6Parser13parse_chain_7ERNSt3__113basic_istreamIcNS1_11char_traitsIcEEEERNS1_6vectorINS0_4NodeENS1_9allocatorIS8_EEEE, symObjAddr: 0x4EEC, symBinAddr: 0x100005DC0, symSize: 0x104 }
  - { offsetInCU: 0x317BD, offset: 0x317BD, size: 0x8, addend: 0x0, symName: __ZN6chisel6Parser16parse_optional_1ERNSt3__113basic_istreamIcNS1_11char_traitsIcEEEERNS1_6vectorINS0_4NodeENS1_9allocatorIS8_EEEE, symObjAddr: 0x4FF0, symBinAddr: 0x100005EC4, symSize: 0xF0 }
  - { offsetInCU: 0x31801, offset: 0x31801, size: 0x8, addend: 0x0, symName: __ZN6chisel6Parser15parse_nested_12ERNSt3__113basic_istreamIcNS1_11char_traitsIcEEEERNS1_6vectorINS0_4NodeENS1_9allocatorIS8_EEEE, symObjAddr: 0x50E0, symBinAddr: 0x100005FB4, symSize: 0xA8 }
  - { offsetInCU: 0x31845, offset: 0x31845, size: 0x8, addend: 0x0, symName: __ZN6chisel6Parser13parse_unit_11ERNSt3__113basic_istreamIcNS1_11char_traitsIcEEEERNS1_6vectorINS0_4NodeENS1_9allocatorIS8_EEEE, symObjAddr: 0x5188, symBinAddr: 0x10000605C, symSize: 0xA8 }
  - { offsetInCU: 0x31889, offset: 0x31889, size: 0x8, addend: 0x0, symName: __ZN6chisel6Parser13parse_unit_12ERNSt3__113basic_istreamIcNS1_11char_traitsIcEEEERNS1_6vectorINS0_4NodeENS1_9allocatorIS8_EEEE, symObjAddr: 0x5230, symBinAddr: 0x100006104, symSize: 0xA8 }
  - { offsetInCU: 0x318CD, offset: 0x318CD, size: 0x8, addend: 0x0, symName: __ZN6chisel6Parser10parse_or_3ERNSt3__113basic_istreamIcNS1_11char_traitsIcEEEERNS1_6vectorINS0_4NodeENS1_9allocatorIS8_EEEE, symObjAddr: 0x52D8, symBinAddr: 0x1000061AC, symSize: 0x104 }
  - { offsetInCU: 0x31920, offset: 0x31920, size: 0x8, addend: 0x0, symName: __ZN6chisel6Parser15parse_nested_13ERNSt3__113basic_istreamIcNS1_11char_traitsIcEEEERNS1_6vectorINS0_4NodeENS1_9allocatorIS8_EEEE, symObjAddr: 0x53DC, symBinAddr: 0x1000062B0, symSize: 0xA8 }
  - { offsetInCU: 0x31964, offset: 0x31964, size: 0x8, addend: 0x0, symName: __ZN6chisel6Parser13parse_chain_9ERNSt3__113basic_istreamIcNS1_11char_traitsIcEEEERNS1_6vectorINS0_4NodeENS1_9allocatorIS8_EEEE, symObjAddr: 0x5484, symBinAddr: 0x100006358, symSize: 0x104 }
  - { offsetInCU: 0x319B7, offset: 0x319B7, size: 0x8, addend: 0x0, symName: __ZN6chisel6Parser18parse_multiplier_4ERNSt3__113basic_istreamIcNS1_11char_traitsIcEEEERNS1_6vectorINS0_4NodeENS1_9allocatorIS8_EEEE, symObjAddr: 0x5588, symBinAddr: 0x10000645C, symSize: 0x114 }
  - { offsetInCU: 0x31A19, offset: 0x31A19, size: 0x8, addend: 0x0, symName: __ZN6chisel6Parser15parse_nested_14ERNSt3__113basic_istreamIcNS1_11char_traitsIcEEEERNS1_6vectorINS0_4NodeENS1_9allocatorIS8_EEEE, symObjAddr: 0x569C, symBinAddr: 0x100006570, symSize: 0xA8 }
  - { offsetInCU: 0x31A5D, offset: 0x31A5D, size: 0x8, addend: 0x0, symName: __ZN6chisel6Parser13parse_unit_13ERNSt3__113basic_istreamIcNS1_11char_traitsIcEEEERNS1_6vectorINS0_4NodeENS1_9allocatorIS8_EEEE, symObjAddr: 0x5744, symBinAddr: 0x100006618, symSize: 0xA8 }
  - { offsetInCU: 0x31AA1, offset: 0x31AA1, size: 0x8, addend: 0x0, symName: __ZN6chisel6Parser13parse_unit_14ERNSt3__113basic_istreamIcNS1_11char_traitsIcEEEERNS1_6vectorINS0_4NodeENS1_9allocatorIS8_EEEE, symObjAddr: 0x57EC, symBinAddr: 0x1000066C0, symSize: 0xA8 }
  - { offsetInCU: 0x31AE5, offset: 0x31AE5, size: 0x8, addend: 0x0, symName: __ZN6chisel6Parser10parse_or_4ERNSt3__113basic_istreamIcNS1_11char_traitsIcEEEERNS1_6vectorINS0_4NodeENS1_9allocatorIS8_EEEE, symObjAddr: 0x5894, symBinAddr: 0x100006768, symSize: 0x104 }
  - { offsetInCU: 0x31B38, offset: 0x31B38, size: 0x8, addend: 0x0, symName: __ZN6chisel6Parser15parse_nested_15ERNSt3__113basic_istreamIcNS1_11char_traitsIcEEEERNS1_6vectorINS0_4NodeENS1_9allocatorIS8_EEEE, symObjAddr: 0x5998, symBinAddr: 0x10000686C, symSize: 0xA8 }
  - { offsetInCU: 0x31B7C, offset: 0x31B7C, size: 0x8, addend: 0x0, symName: __ZN6chisel6Parser14parse_chain_11ERNSt3__113basic_istreamIcNS1_11char_traitsIcEEEERNS1_6vectorINS0_4NodeENS1_9allocatorIS8_EEEE, symObjAddr: 0x5A40, symBinAddr: 0x100006914, symSize: 0x104 }
  - { offsetInCU: 0x31BCF, offset: 0x31BCF, size: 0x8, addend: 0x0, symName: __ZN6chisel6Parser18parse_multiplier_5ERNSt3__113basic_istreamIcNS1_11char_traitsIcEEEERNS1_6vectorINS0_4NodeENS1_9allocatorIS8_EEEE, symObjAddr: 0x5B44, symBinAddr: 0x100006A18, symSize: 0x114 }
  - { offsetInCU: 0x31C31, offset: 0x31C31, size: 0x8, addend: 0x0, symName: __ZN6chisel6Parser15parse_nested_16ERNSt3__113basic_istreamIcNS1_11char_traitsIcEEEERNS1_6vectorINS0_4NodeENS1_9allocatorIS8_EEEE, symObjAddr: 0x5C58, symBinAddr: 0x100006B2C, symSize: 0xA8 }
  - { offsetInCU: 0x31C75, offset: 0x31C75, size: 0x8, addend: 0x0, symName: __ZN6chisel6Parser13parse_unit_15ERNSt3__113basic_istreamIcNS1_11char_traitsIcEEEERNS1_6vectorINS0_4NodeENS1_9allocatorIS8_EEEE, symObjAddr: 0x5D00, symBinAddr: 0x100006BD4, symSize: 0xA8 }
  - { offsetInCU: 0x31CB9, offset: 0x31CB9, size: 0x8, addend: 0x0, symName: __ZN6chisel6Parser13parse_unit_16ERNSt3__113basic_istreamIcNS1_11char_traitsIcEEEERNS1_6vectorINS0_4NodeENS1_9allocatorIS8_EEEE, symObjAddr: 0x5DA8, symBinAddr: 0x100006C7C, symSize: 0xA8 }
  - { offsetInCU: 0x31CFD, offset: 0x31CFD, size: 0x8, addend: 0x0, symName: __ZN6chisel6Parser13parse_unit_17ERNSt3__113basic_istreamIcNS1_11char_traitsIcEEEERNS1_6vectorINS0_4NodeENS1_9allocatorIS8_EEEE, symObjAddr: 0x5E50, symBinAddr: 0x100006D24, symSize: 0xA8 }
  - { offsetInCU: 0x31D41, offset: 0x31D41, size: 0x8, addend: 0x0, symName: __ZN6chisel6Parser13parse_unit_18ERNSt3__113basic_istreamIcNS1_11char_traitsIcEEEERNS1_6vectorINS0_4NodeENS1_9allocatorIS8_EEEE, symObjAddr: 0x5EF8, symBinAddr: 0x100006DCC, symSize: 0xA8 }
  - { offsetInCU: 0x31D85, offset: 0x31D85, size: 0x8, addend: 0x0, symName: __ZN6chisel6Parser13parse_unit_19ERNSt3__113basic_istreamIcNS1_11char_traitsIcEEEERNS1_6vectorINS0_4NodeENS1_9allocatorIS8_EEEE, symObjAddr: 0x5FA0, symBinAddr: 0x100006E74, symSize: 0xA8 }
  - { offsetInCU: 0x31DC9, offset: 0x31DC9, size: 0x8, addend: 0x0, symName: __ZN6chisel6Parser15parse_nested_17ERNSt3__113basic_istreamIcNS1_11char_traitsIcEEEERNS1_6vectorINS0_4NodeENS1_9allocatorIS8_EEEE, symObjAddr: 0x6048, symBinAddr: 0x100006F1C, symSize: 0xA8 }
  - { offsetInCU: 0x31E0D, offset: 0x31E0D, size: 0x8, addend: 0x0, symName: __ZN6chisel6Parser13parse_unit_20ERNSt3__113basic_istreamIcNS1_11char_traitsIcEEEERNS1_6vectorINS0_4NodeENS1_9allocatorIS8_EEEE, symObjAddr: 0x60F0, symBinAddr: 0x100006FC4, symSize: 0xA8 }
  - { offsetInCU: 0x31E51, offset: 0x31E51, size: 0x8, addend: 0x0, symName: __ZN6chisel6Parser14parse_chain_12ERNSt3__113basic_istreamIcNS1_11char_traitsIcEEEERNS1_6vectorINS0_4NodeENS1_9allocatorIS8_EEEE, symObjAddr: 0x6198, symBinAddr: 0x10000706C, symSize: 0x120 }
  - { offsetInCU: 0x31EA4, offset: 0x31EA4, size: 0x8, addend: 0x0, symName: __ZN6chisel6Parser13parse_unit_21ERNSt3__113basic_istreamIcNS1_11char_traitsIcEEEERNS1_6vectorINS0_4NodeENS1_9allocatorIS8_EEEE, symObjAddr: 0x62B8, symBinAddr: 0x10000718C, symSize: 0xA8 }
  - { offsetInCU: 0x31EE8, offset: 0x31EE8, size: 0x8, addend: 0x0, symName: __ZN6chisel6Parser13parse_unit_22ERNSt3__113basic_istreamIcNS1_11char_traitsIcEEEERNS1_6vectorINS0_4NodeENS1_9allocatorIS8_EEEE, symObjAddr: 0x6360, symBinAddr: 0x100007234, symSize: 0xA8 }
  - { offsetInCU: 0x31F2C, offset: 0x31F2C, size: 0x8, addend: 0x0, symName: __ZN6chisel6Parser15parse_nested_18ERNSt3__113basic_istreamIcNS1_11char_traitsIcEEEERNS1_6vectorINS0_4NodeENS1_9allocatorIS8_EEEE, symObjAddr: 0x6408, symBinAddr: 0x1000072DC, symSize: 0xA8 }
  - { offsetInCU: 0x31F70, offset: 0x31F70, size: 0x8, addend: 0x0, symName: __ZN6chisel6Parser16parse_optional_2ERNSt3__113basic_istreamIcNS1_11char_traitsIcEEEERNS1_6vectorINS0_4NodeENS1_9allocatorIS8_EEEE, symObjAddr: 0x64B0, symBinAddr: 0x100007384, symSize: 0xF0 }
  - { offsetInCU: 0x31FB4, offset: 0x31FB4, size: 0x8, addend: 0x0, symName: __ZN6chisel6Parser13parse_unit_23ERNSt3__113basic_istreamIcNS1_11char_traitsIcEEEERNS1_6vectorINS0_4NodeENS1_9allocatorIS8_EEEE, symObjAddr: 0x65A0, symBinAddr: 0x100007474, symSize: 0xA8 }
  - { offsetInCU: 0x31FF8, offset: 0x31FF8, size: 0x8, addend: 0x0, symName: __ZN6chisel6Parser15parse_nested_19ERNSt3__113basic_istreamIcNS1_11char_traitsIcEEEERNS1_6vectorINS0_4NodeENS1_9allocatorIS8_EEEE, symObjAddr: 0x6648, symBinAddr: 0x10000751C, symSize: 0xA8 }
  - { offsetInCU: 0x3203C, offset: 0x3203C, size: 0x8, addend: 0x0, symName: __ZN6chisel6Parser13parse_unit_24ERNSt3__113basic_istreamIcNS1_11char_traitsIcEEEERNS1_6vectorINS0_4NodeENS1_9allocatorIS8_EEEE, symObjAddr: 0x66F0, symBinAddr: 0x1000075C4, symSize: 0xA8 }
  - { offsetInCU: 0x32080, offset: 0x32080, size: 0x8, addend: 0x0, symName: __ZN6chisel6Parser15parse_nested_20ERNSt3__113basic_istreamIcNS1_11char_traitsIcEEEERNS1_6vectorINS0_4NodeENS1_9allocatorIS8_EEEE, symObjAddr: 0x6798, symBinAddr: 0x10000766C, symSize: 0xA8 }
  - { offsetInCU: 0x320C4, offset: 0x320C4, size: 0x8, addend: 0x0, symName: __ZN6chisel6Parser14parse_chain_15ERNSt3__113basic_istreamIcNS1_11char_traitsIcEEEERNS1_6vectorINS0_4NodeENS1_9allocatorIS8_EEEE, symObjAddr: 0x6840, symBinAddr: 0x100007714, symSize: 0x104 }
  - { offsetInCU: 0x32117, offset: 0x32117, size: 0x8, addend: 0x0, symName: __ZN6chisel6Parser18parse_multiplier_6ERNSt3__113basic_istreamIcNS1_11char_traitsIcEEEERNS1_6vectorINS0_4NodeENS1_9allocatorIS8_EEEE, symObjAddr: 0x6944, symBinAddr: 0x100007818, symSize: 0x114 }
  - { offsetInCU: 0x32179, offset: 0x32179, size: 0x8, addend: 0x0, symName: __ZNK6chisel6Parser4Node11holds_tokenEv, symObjAddr: 0x6AD4, symBinAddr: 0x1000079A8, symSize: 0x1C }
  - { offsetInCU: 0x3219F, offset: 0x3219F, size: 0x8, addend: 0x0, symName: __ZNK6chisel6Parser4Node9get_tokenEv, symObjAddr: 0x6CB4, symBinAddr: 0x100007B88, symSize: 0x14 }
  - { offsetInCU: 0x321C5, offset: 0x321C5, size: 0x8, addend: 0x0, symName: __ZNK6chisel6Parser4Node8get_nodeEv, symObjAddr: 0x6E34, symBinAddr: 0x100007D08, symSize: 0x18 }
  - { offsetInCU: 0x321EB, offset: 0x321EB, size: 0x8, addend: 0x0, symName: __ZNSt3__113unordered_mapINS_12basic_stringIcNS_11char_traitsIcEENS_9allocatorIcEEEE5ValueNS_4hashIS6_EENS_8equal_toIS6_EENS4_INS_4pairIKS6_S7_EEEEEC1B8ue170006Ev, symObjAddr: 0x6E4C, symBinAddr: 0x100007D20, symSize: 0x2C }
  - { offsetInCU: 0x32215, offset: 0x32215, size: 0x8, addend: 0x0, symName: __ZNSt3__113unordered_mapINS_12basic_stringIcNS_11char_traitsIcEENS_9allocatorIcEEEE5ValueNS_4hashIS6_EENS_8equal_toIS6_EENS4_INS_4pairIKS6_S7_EEEEED1B8ue170006Ev, symObjAddr: 0x6E78, symBinAddr: 0x100007D4C, symSize: 0x2C }
  - { offsetInCU: 0x3223E, offset: 0x3223E, size: 0x8, addend: 0x0, symName: __ZplRK5ValueS1_, symObjAddr: 0x6EA4, symBinAddr: 0x100007D78, symSize: 0x16C }
  - { offsetInCU: 0x3228F, offset: 0x3228F, size: 0x8, addend: 0x0, symName: __ZNK5Value9is_stringEv, symObjAddr: 0x7010, symBinAddr: 0x100007EE4, symSize: 0x28 }
  - { offsetInCU: 0x32328, offset: 0x32328, size: 0x8, addend: 0x0, symName: __ZNSt3__118basic_stringstreamIcNS_11char_traitsIcEENS_9allocatorIcEEEC1B8ue170006Ev, symObjAddr: 0x7038, symBinAddr: 0x100007F0C, symSize: 0x104 }
  - { offsetInCU: 0x32352, offset: 0x32352, size: 0x8, addend: 0x0, symName: __ZNK5Value5printERNSt3__113basic_ostreamIcNS0_11char_traitsIcEEEE, symObjAddr: 0x713C, symBinAddr: 0x100008010, symSize: 0x198 }
  - { offsetInCU: 0x32386, offset: 0x32386, size: 0x8, addend: 0x0, symName: __ZNKRSt3__118basic_stringstreamIcNS_11char_traitsIcEENS_9allocatorIcEEE3strB8ue170006Ev, symObjAddr: 0x72D4, symBinAddr: 0x1000081A8, symSize: 0x30 }
  - { offsetInCU: 0x323AC, offset: 0x323AC, size: 0x8, addend: 0x0, symName: __ZN5ValueC1ERKNSt3__112basic_stringIcNS0_11char_traitsIcEENS0_9allocatorIcEEEE, symObjAddr: 0x7304, symBinAddr: 0x1000081D8, symSize: 0x34 }
  - { offsetInCU: 0x323E9, offset: 0x323E9, size: 0x8, addend: 0x0, symName: __ZNSt3__118basic_stringstreamIcNS_11char_traitsIcEENS_9allocatorIcEEED1Ev, symObjAddr: 0x7338, symBinAddr: 0x10000820C, symSize: 0x40 }
  - { offsetInCU: 0x32416, offset: 0x32416, size: 0x8, addend: 0x0, symName: __ZNK5Value9is_doubleEv, symObjAddr: 0x7378, symBinAddr: 0x10000824C, symSize: 0x28 }
  - { offsetInCU: 0x3243C, offset: 0x3243C, size: 0x8, addend: 0x0, symName: __ZNK5Value9as_doubleEv, symObjAddr: 0x73A0, symBinAddr: 0x100008274, symSize: 0xC8 }
  - { offsetInCU: 0x32462, offset: 0x32462, size: 0x8, addend: 0x0, symName: __ZN5ValueC1Ed, symObjAddr: 0x7468, symBinAddr: 0x10000833C, symSize: 0x34 }
  - { offsetInCU: 0x3249A, offset: 0x3249A, size: 0x8, addend: 0x0, symName: __ZNK5Value6as_intEv, symObjAddr: 0x749C, symBinAddr: 0x100008370, symSize: 0xC8 }
  - { offsetInCU: 0x324C0, offset: 0x324C0, size: 0x8, addend: 0x0, symName: __ZN5ValueC1Ex, symObjAddr: 0x7564, symBinAddr: 0x100008438, symSize: 0x34 }
  - { offsetInCU: 0x324F7, offset: 0x324F7, size: 0x8, addend: 0x0, symName: __ZmiRK5ValueS1_, symObjAddr: 0x7598, symBinAddr: 0x10000846C, symSize: 0xA0 }
  - { offsetInCU: 0x32531, offset: 0x32531, size: 0x8, addend: 0x0, symName: __ZmlRK5ValueS1_, symObjAddr: 0x7638, symBinAddr: 0x10000850C, symSize: 0xA0 }
  - { offsetInCU: 0x3256B, offset: 0x3256B, size: 0x8, addend: 0x0, symName: __ZdvRK5ValueS1_, symObjAddr: 0x76D8, symBinAddr: 0x1000085AC, symSize: 0xC0 }
  - { offsetInCU: 0x325A5, offset: 0x325A5, size: 0x8, addend: 0x0, symName: __ZeqRK5ValueS1_, symObjAddr: 0x7798, symBinAddr: 0x10000866C, symSize: 0x218 }
  - { offsetInCU: 0x325E0, offset: 0x325E0, size: 0x8, addend: 0x0, symName: __ZNK5Value7is_nullEv, symObjAddr: 0x79B0, symBinAddr: 0x100008884, symSize: 0x28 }
  - { offsetInCU: 0x32606, offset: 0x32606, size: 0x8, addend: 0x0, symName: __ZN5ValueC1Eb, symObjAddr: 0x79D8, symBinAddr: 0x1000088AC, symSize: 0x40 }
  - { offsetInCU: 0x3263E, offset: 0x3263E, size: 0x8, addend: 0x0, symName: __ZNK5Value7is_boolEv, symObjAddr: 0x7A18, symBinAddr: 0x1000088EC, symSize: 0x28 }
  - { offsetInCU: 0x32664, offset: 0x32664, size: 0x8, addend: 0x0, symName: __ZNK5Value9as_stringEv, symObjAddr: 0x7BAC, symBinAddr: 0x100008A80, symSize: 0xA4 }
  - { offsetInCU: 0x3268A, offset: 0x3268A, size: 0x8, addend: 0x0, symName: __ZNK5Value9is_numberEv, symObjAddr: 0x7C50, symBinAddr: 0x100008B24, symSize: 0x50 }
  - { offsetInCU: 0x326B0, offset: 0x326B0, size: 0x8, addend: 0x0, symName: __Z3absB8ue170006d, symObjAddr: 0x7CA0, symBinAddr: 0x100008B74, symSize: 0x18 }
  - { offsetInCU: 0x326DC, offset: 0x326DC, size: 0x8, addend: 0x0, symName: __ZneRK5ValueS1_, symObjAddr: 0x7CB8, symBinAddr: 0x100008B8C, symSize: 0xC4 }
  - { offsetInCU: 0x32717, offset: 0x32717, size: 0x8, addend: 0x0, symName: __ZN5ValueD1Ev, symObjAddr: 0x7DA0, symBinAddr: 0x100008C74, symSize: 0x2C }
  - { offsetInCU: 0x32742, offset: 0x32742, size: 0x8, addend: 0x0, symName: __ZltRK5ValueS1_, symObjAddr: 0x7DCC, symBinAddr: 0x100008CA0, symSize: 0x194 }
  - { offsetInCU: 0x3278C, offset: 0x3278C, size: 0x8, addend: 0x0, symName: __ZNSt3__120_CmpUnspecifiedParamC1B8ue170006EMS0_i, symObjAddr: 0x7FE0, symBinAddr: 0x100008EB4, symSize: 0x34 }
  - { offsetInCU: 0x327BF, offset: 0x327BF, size: 0x8, addend: 0x0, symName: __ZgtRK5ValueS1_, symObjAddr: 0x8014, symBinAddr: 0x100008EE8, symSize: 0x34 }
  - { offsetInCU: 0x327F9, offset: 0x327F9, size: 0x8, addend: 0x0, symName: __ZleRK5ValueS1_, symObjAddr: 0x8048, symBinAddr: 0x100008F1C, symSize: 0xC0 }
  - { offsetInCU: 0x32834, offset: 0x32834, size: 0x8, addend: 0x0, symName: __ZNK5Value9is_truthyEv, symObjAddr: 0x8108, symBinAddr: 0x100008FDC, symSize: 0x138 }
  - { offsetInCU: 0x32859, offset: 0x32859, size: 0x8, addend: 0x0, symName: __ZgeRK5ValueS1_, symObjAddr: 0x8240, symBinAddr: 0x100009114, symSize: 0xC0 }
  - { offsetInCU: 0x32894, offset: 0x32894, size: 0x8, addend: 0x0, symName: __ZNSt3__113unordered_mapINS_12basic_stringIcNS_11char_traitsIcEENS_9allocatorIcEEEE5ValueNS_4hashIS6_EENS_8equal_toIS6_EENS4_INS_4pairIKS6_S7_EEEEE5clearB8ue170006Ev, symObjAddr: 0x8728, symBinAddr: 0x1000095FC, symSize: 0x24 }
  - { offsetInCU: 0x328BA, offset: 0x328BA, size: 0x8, addend: 0x0, symName: '__ZNSt3__18functionIF5ValueRKNS_6vectorIS1_NS_9allocatorIS1_EEEEEEC1IZ17setup_environmentvE3$_0vEET_', symObjAddr: 0x874C, symBinAddr: 0x100009620, symSize: 0x2C }
  - { offsetInCU: 0x328FF, offset: 0x328FF, size: 0x8, addend: 0x0, symName: __ZN5ValueC1ENSt3__18functionIFS_RKNS0_6vectorIS_NS0_9allocatorIS_EEEEEEE, symObjAddr: 0x8778, symBinAddr: 0x10000964C, symSize: 0x34 }
  - { offsetInCU: 0x32938, offset: 0x32938, size: 0x8, addend: 0x0, symName: __ZNSt3__113unordered_mapINS_12basic_stringIcNS_11char_traitsIcEENS_9allocatorIcEEEE5ValueNS_4hashIS6_EENS_8equal_toIS6_EENS4_INS_4pairIKS6_S7_EEEEEixEOS6_, symObjAddr: 0x87AC, symBinAddr: 0x100009680, symSize: 0x80 }
  - { offsetInCU: 0x32974, offset: 0x32974, size: 0x8, addend: 0x0, symName: __ZNSt3__112basic_stringIcNS_11char_traitsIcEENS_9allocatorIcEEEC1B8ue170006ILi0EEEPKc, symObjAddr: 0x882C, symBinAddr: 0x100009700, symSize: 0x34 }
  - { offsetInCU: 0x329B8, offset: 0x329B8, size: 0x8, addend: 0x0, symName: __ZN5ValueaSEOS_, symObjAddr: 0x8860, symBinAddr: 0x100009734, symSize: 0x34 }
  - { offsetInCU: 0x329E9, offset: 0x329E9, size: 0x8, addend: 0x0, symName: __ZNSt3__18functionIF5ValueRKNS_6vectorIS1_NS_9allocatorIS1_EEEEEED1Ev, symObjAddr: 0x8894, symBinAddr: 0x100009768, symSize: 0x2C }
  - { offsetInCU: 0x32A15, offset: 0x32A15, size: 0x8, addend: 0x0, symName: '__ZNSt3__18functionIF5ValueRKNS_6vectorIS1_NS_9allocatorIS1_EEEEEEC1IZ17setup_environmentvE3$_1vEET_', symObjAddr: 0x88C0, symBinAddr: 0x100009794, symSize: 0x2C }
  - { offsetInCU: 0x32A5A, offset: 0x32A5A, size: 0x8, addend: 0x0, symName: '__ZNSt3__18functionIF5ValueRKNS_6vectorIS1_NS_9allocatorIS1_EEEEEEC1IZ17setup_environmentvE3$_2vEET_', symObjAddr: 0x88EC, symBinAddr: 0x1000097C0, symSize: 0x2C }
  - { offsetInCU: 0x32A9F, offset: 0x32A9F, size: 0x8, addend: 0x0, symName: '__ZNSt3__18functionIF5ValueRKNS_6vectorIS1_NS_9allocatorIS1_EEEEEEC1IZ17setup_environmentvE3$_3vEET_', symObjAddr: 0x8918, symBinAddr: 0x1000097EC, symSize: 0x2C }
  - { offsetInCU: 0x32AE4, offset: 0x32AE4, size: 0x8, addend: 0x0, symName: '__ZNSt3__18functionIF5ValueRKNS_6vectorIS1_NS_9allocatorIS1_EEEEEEC1IZ17setup_environmentvE3$_4vEET_', symObjAddr: 0x8944, symBinAddr: 0x100009818, symSize: 0x2C }
  - { offsetInCU: 0x32B28, offset: 0x32B28, size: 0x8, addend: 0x0, symName: __Z24evaluate_binary_op_chainRKNSt3__16vectorIN6chisel6Parser4NodeENS_9allocatorIS3_EEEE, symObjAddr: 0x8970, symBinAddr: 0x100009844, symSize: 0x3F0 }
  - { offsetInCU: 0x32BA6, offset: 0x32BA6, size: 0x8, addend: 0x0, symName: __Z11interpreterPN6chisel6Parser4NodeE, symObjAddr: 0x8D88, symBinAddr: 0x100009C5C, symSize: 0xC10 }
  - { offsetInCU: 0x32DA1, offset: 0x32DA1, size: 0x8, addend: 0x0, symName: __ZNKSt3__16vectorIN6chisel6Parser4NodeENS_9allocatorIS3_EEEixB8ue170006Em, symObjAddr: 0x99D8, symBinAddr: 0x10000A8AC, symSize: 0x2C }
  - { offsetInCU: 0x32DD8, offset: 0x32DD8, size: 0x8, addend: 0x0, symName: __ZNKSt3__16vectorIN6chisel6Parser4NodeENS_9allocatorIS3_EEE4sizeB8ue170006Ev, symObjAddr: 0x9A04, symBinAddr: 0x10000A8D8, symSize: 0x28 }
  - { offsetInCU: 0x32DFE, offset: 0x32DFE, size: 0x8, addend: 0x0, symName: __ZNK6chisel5Token8get_typeEv, symObjAddr: 0x9A2C, symBinAddr: 0x10000A900, symSize: 0x18 }
  - { offsetInCU: 0x32E24, offset: 0x32E24, size: 0x8, addend: 0x0, symName: __ZN5ValueC1Ev, symObjAddr: 0x9A44, symBinAddr: 0x10000A918, symSize: 0x2C }
  - { offsetInCU: 0x32E4E, offset: 0x32E4E, size: 0x8, addend: 0x0, symName: __ZN6chisel6Parser4Node9get_tokenEv, symObjAddr: 0x9A70, symBinAddr: 0x10000A944, symSize: 0x14 }
  - { offsetInCU: 0x32E74, offset: 0x32E74, size: 0x8, addend: 0x0, symName: __ZNK6chisel5Token8get_dataEv, symObjAddr: 0x9A84, symBinAddr: 0x10000A958, symSize: 0x18 }
  - { offsetInCU: 0x32E9A, offset: 0x32E9A, size: 0x8, addend: 0x0, symName: __ZNKSt3__113unordered_mapINS_12basic_stringIcNS_11char_traitsIcEENS_9allocatorIcEEEE5ValueNS_4hashIS6_EENS_8equal_toIS6_EENS4_INS_4pairIKS6_S7_EEEEE5countB8ue170006ERSD_, symObjAddr: 0x9A9C, symBinAddr: 0x10000A970, symSize: 0x2C }
  - { offsetInCU: 0x32ECF, offset: 0x32ECF, size: 0x8, addend: 0x0, symName: __ZNSt3__113unordered_mapINS_12basic_stringIcNS_11char_traitsIcEENS_9allocatorIcEEEE5ValueNS_4hashIS6_EENS_8equal_toIS6_EENS4_INS_4pairIKS6_S7_EEEEE2atERSD_, symObjAddr: 0x9AC8, symBinAddr: 0x10000A99C, symSize: 0x7C }
  - { offsetInCU: 0x32F1A, offset: 0x32F1A, size: 0x8, addend: 0x0, symName: __ZN5ValueC1ERKS_, symObjAddr: 0x9B44, symBinAddr: 0x10000AA18, symSize: 0x34 }
  - { offsetInCU: 0x32F4F, offset: 0x32F4F, size: 0x8, addend: 0x0, symName: __ZNK6chisel6Parser9ParseNode12get_childrenEv, symObjAddr: 0x9B78, symBinAddr: 0x10000AA4C, symSize: 0x18 }
  - { offsetInCU: 0x32F75, offset: 0x32F75, size: 0x8, addend: 0x0, symName: __ZNK6chisel6Parser9ParseNode8get_typeEv, symObjAddr: 0x9B90, symBinAddr: 0x10000AA64, symSize: 0x18 }
  - { offsetInCU: 0x32F9B, offset: 0x32F9B, size: 0x8, addend: 0x0, symName: __ZNKSt3__16vectorIN6chisel6Parser4NodeENS_9allocatorIS3_EEE5beginB8ue170006Ev, symObjAddr: 0x9BA8, symBinAddr: 0x10000AA7C, symSize: 0x30 }
  - { offsetInCU: 0x32FC3, offset: 0x32FC3, size: 0x8, addend: 0x0, symName: __ZNKSt3__16vectorIN6chisel6Parser4NodeENS_9allocatorIS3_EEE3endB8ue170006Ev, symObjAddr: 0x9BD8, symBinAddr: 0x10000AAAC, symSize: 0x30 }
  - { offsetInCU: 0x32FEB, offset: 0x32FEB, size: 0x8, addend: 0x0, symName: __ZNKSt3__111__wrap_iterIPKN6chisel6Parser4NodeEEdeB8ue170006Ev, symObjAddr: 0x9C3C, symBinAddr: 0x10000AB10, symSize: 0x18 }
  - { offsetInCU: 0x33011, offset: 0x33011, size: 0x8, addend: 0x0, symName: __ZNSt3__111__wrap_iterIPKN6chisel6Parser4NodeEEppB8ue170006Ev, symObjAddr: 0x9C54, symBinAddr: 0x10000AB28, symSize: 0x20 }
  - { offsetInCU: 0x33037, offset: 0x33037, size: 0x8, addend: 0x0, symName: __ZNSt3__113unordered_mapINS_12basic_stringIcNS_11char_traitsIcEENS_9allocatorIcEEEE5ValueNS_4hashIS6_EENS_8equal_toIS6_EENS4_INS_4pairIKS6_S7_EEEEEixERSD_, symObjAddr: 0x9C74, symBinAddr: 0x10000AB48, symSize: 0x80 }
  - { offsetInCU: 0x3306E, offset: 0x3306E, size: 0x8, addend: 0x0, symName: __ZN5ValueaSERKS_, symObjAddr: 0x9CF4, symBinAddr: 0x10000ABC8, symSize: 0x34 }
  - { offsetInCU: 0x3309F, offset: 0x3309F, size: 0x8, addend: 0x0, symName: __ZNSt3__113unordered_mapINS_12basic_stringIcNS_11char_traitsIcEENS_9allocatorIcEEEE5ValueNS_4hashIS6_EENS_8equal_toIS6_EENS4_INS_4pairIKS6_S7_EEEEE4findB8ue170006ERSD_, symObjAddr: 0x9D28, symBinAddr: 0x10000ABFC, symSize: 0x40 }
  - { offsetInCU: 0x330D4, offset: 0x330D4, size: 0x8, addend: 0x0, symName: __ZNSt3__113unordered_mapINS_12basic_stringIcNS_11char_traitsIcEENS_9allocatorIcEEEE5ValueNS_4hashIS6_EENS_8equal_toIS6_EENS4_INS_4pairIKS6_S7_EEEEE3endB8ue170006Ev, symObjAddr: 0x9D98, symBinAddr: 0x10000AC6C, symSize: 0x38 }
  - { offsetInCU: 0x330FA, offset: 0x330FA, size: 0x8, addend: 0x0, symName: __ZNKSt3__119__hash_map_iteratorINS_15__hash_iteratorIPNS_11__hash_nodeINS_17__hash_value_typeINS_12basic_stringIcNS_11char_traitsIcEENS_9allocatorIcEEEE5ValueEEPvEEEEEptB8ue170006Ev, symObjAddr: 0x9DD0, symBinAddr: 0x10000ACA4, symSize: 0x2C }
  - { offsetInCU: 0x33120, offset: 0x33120, size: 0x8, addend: 0x0, symName: __ZNK5Value11is_functionEv, symObjAddr: 0x9DFC, symBinAddr: 0x10000ACD0, symSize: 0x28 }
  - { offsetInCU: 0x33146, offset: 0x33146, size: 0x8, addend: 0x0, symName: __ZNSt3__16vectorI5ValueNS_9allocatorIS1_EEEC1B8ue170006Ev, symObjAddr: 0x9E48, symBinAddr: 0x10000AD1C, symSize: 0x2C }
  - { offsetInCU: 0x33170, offset: 0x33170, size: 0x8, addend: 0x0, symName: __ZNSt3__16vectorI5ValueNS_9allocatorIS1_EEE9push_backB8ue170006EOS1_, symObjAddr: 0x9E74, symBinAddr: 0x10000AD48, symSize: 0x6C }
  - { offsetInCU: 0x331A7, offset: 0x331A7, size: 0x8, addend: 0x0, symName: __ZNKSt3__18functionIF5ValueRKNS_6vectorIS1_NS_9allocatorIS1_EEEEEEclES7_, symObjAddr: 0x9EE0, symBinAddr: 0x10000ADB4, symSize: 0x34 }
  - { offsetInCU: 0x331DE, offset: 0x331DE, size: 0x8, addend: 0x0, symName: __ZNSt3__16vectorI5ValueNS_9allocatorIS1_EEED1B8ue170006Ev, symObjAddr: 0x9F14, symBinAddr: 0x10000ADE8, symSize: 0x2C }
  - { offsetInCU: 0x33208, offset: 0x33208, size: 0x8, addend: 0x0, symName: _main, symObjAddr: 0x9F40, symBinAddr: 0x10000AE14, symSize: 0xFC }
  - { offsetInCU: 0x332F8, offset: 0x332F8, size: 0x8, addend: 0x0, symName: __ZNSt3__114basic_ifstreamIcNS_11char_traitsIcEEEC1EPKcj, symObjAddr: 0xA03C, symBinAddr: 0x10000AF10, symSize: 0x16C }
  - { offsetInCU: 0x33347, offset: 0x33347, size: 0x8, addend: 0x0, symName: __ZNSt3__114basic_ifstreamIcNS_11char_traitsIcEEED1Ev, symObjAddr: 0xA1A8, symBinAddr: 0x10000B07C, symSize: 0x40 }
  - { offsetInCU: 0x33374, offset: 0x33374, size: 0x8, addend: 0x0, symName: __ZN6chisel5TokenC2ENS0_4TypeEPc, symObjAddr: 0xA1E8, symBinAddr: 0x10000B0BC, symSize: 0x2C }
  - { offsetInCU: 0x333BA, offset: 0x333BA, size: 0x8, addend: 0x0, symName: __ZN6chisel5TokenD2Ev, symObjAddr: 0xA214, symBinAddr: 0x10000B0E8, symSize: 0x78 }
  - { offsetInCU: 0x333E4, offset: 0x333E4, size: 0x8, addend: 0x0, symName: __ZN6chisel5TokenC2ERKS0_, symObjAddr: 0xA28C, symBinAddr: 0x10000B160, symSize: 0xDC }
  - { offsetInCU: 0x33438, offset: 0x33438, size: 0x8, addend: 0x0, symName: __ZNSt3__112basic_stringIcNS_11char_traitsIcEENS_9allocatorIcEEEC2B8ue170006Ev, symObjAddr: 0xA368, symBinAddr: 0x10000B23C, symSize: 0x48 }
  - { offsetInCU: 0x33467, offset: 0x33467, size: 0x8, addend: 0x0, symName: __ZNSt3__117__compressed_pairINS_12basic_stringIcNS_11char_traitsIcEENS_9allocatorIcEEE5__repES5_EC1B8ue170006INS_18__default_init_tagESA_EEOT_OT0_, symObjAddr: 0xA3B0, symBinAddr: 0x10000B284, symSize: 0x3C }
  - { offsetInCU: 0x334BF, offset: 0x334BF, size: 0x8, addend: 0x0, symName: __ZNSt3__112basic_stringIcNS_11char_traitsIcEENS_9allocatorIcEEE14__default_initB8ue170006Ev, symObjAddr: 0xA3F8, symBinAddr: 0x10000B2CC, symSize: 0x40 }
  - { offsetInCU: 0x334E5, offset: 0x334E5, size: 0x8, addend: 0x0, symName: __ZNSt3__117__compressed_pairINS_12basic_stringIcNS_11char_traitsIcEENS_9allocatorIcEEE5__repES5_EC2B8ue170006INS_18__default_init_tagESA_EEOT_OT0_, symObjAddr: 0xA438, symBinAddr: 0x10000B30C, symSize: 0x3C }
  - { offsetInCU: 0x3353D, offset: 0x3353D, size: 0x8, addend: 0x0, symName: __ZNSt3__122__compressed_pair_elemINS_12basic_stringIcNS_11char_traitsIcEENS_9allocatorIcEEE5__repELi0ELb0EEC2B8ue170006ENS_18__default_init_tagE, symObjAddr: 0xA474, symBinAddr: 0x10000B348, symSize: 0x14 }
  - { offsetInCU: 0x33571, offset: 0x33571, size: 0x8, addend: 0x0, symName: __ZNSt3__122__compressed_pair_elemINS_9allocatorIcEELi1ELb1EEC2B8ue170006ENS_18__default_init_tagE, symObjAddr: 0xA488, symBinAddr: 0x10000B35C, symSize: 0x2C }
  - { offsetInCU: 0x335A5, offset: 0x335A5, size: 0x8, addend: 0x0, symName: __ZNSt3__19allocatorIcEC2B8ue170006Ev, symObjAddr: 0xA4B4, symBinAddr: 0x10000B388, symSize: 0x2C }
  - { offsetInCU: 0x335CF, offset: 0x335CF, size: 0x8, addend: 0x0, symName: __ZNSt3__116__non_trivial_ifILb1ENS_9allocatorIcEEEC2B8ue170006Ev, symObjAddr: 0xA4E0, symBinAddr: 0x10000B3B4, symSize: 0x14 }
  - { offsetInCU: 0x335F9, offset: 0x335F9, size: 0x8, addend: 0x0, symName: __ZNSt3__117__compressed_pairINS_12basic_stringIcNS_11char_traitsIcEENS_9allocatorIcEEE5__repES5_E5firstB8ue170006Ev, symObjAddr: 0xA4F4, symBinAddr: 0x10000B3C8, symSize: 0x24 }
  - { offsetInCU: 0x3361F, offset: 0x3361F, size: 0x8, addend: 0x0, symName: __ZNSt3__122__compressed_pair_elemINS_12basic_stringIcNS_11char_traitsIcEENS_9allocatorIcEEE5__repELi0ELb0EE5__getB8ue170006Ev, symObjAddr: 0xA518, symBinAddr: 0x10000B3EC, symSize: 0x14 }
  - { offsetInCU: 0x33644, offset: 0x33644, size: 0x8, addend: 0x0, symName: __Z8__istypeim, symObjAddr: 0xA52C, symBinAddr: 0x10000B400, symSize: 0x8C }
  - { offsetInCU: 0x3367F, offset: 0x3367F, size: 0x8, addend: 0x0, symName: __Z7isasciii, symObjAddr: 0xA5B8, symBinAddr: 0x10000B48C, symSize: 0x24 }
  - { offsetInCU: 0x336AC, offset: 0x336AC, size: 0x8, addend: 0x0, symName: __ZNKSt3__112basic_stringIcNS_11char_traitsIcEENS_9allocatorIcEEEcvNS_17basic_string_viewIcS2_EEB8ue170006Ev, symObjAddr: 0xA68C, symBinAddr: 0x10000B560, symSize: 0x50 }
  - { offsetInCU: 0x336D2, offset: 0x336D2, size: 0x8, addend: 0x0, symName: __ZNSt3__117basic_string_viewIcNS_11char_traitsIcEEEC1B8ue170006EPKc, symObjAddr: 0xA6DC, symBinAddr: 0x10000B5B0, symSize: 0x34 }
  - { offsetInCU: 0x3370B, offset: 0x3370B, size: 0x8, addend: 0x0, symName: __ZNKSt3__117basic_string_viewIcNS_11char_traitsIcEEE4sizeB8ue170006Ev, symObjAddr: 0xA710, symBinAddr: 0x10000B5E4, symSize: 0x18 }
  - { offsetInCU: 0x33731, offset: 0x33731, size: 0x8, addend: 0x0, symName: __ZNKSt3__117basic_string_viewIcNS_11char_traitsIcEEE7compareES3_, symObjAddr: 0xA728, symBinAddr: 0x10000B5FC, symSize: 0x13C }
  - { offsetInCU: 0x33784, offset: 0x33784, size: 0x8, addend: 0x0, symName: __ZNSt3__111char_traitsIcE7compareB8ue170006EPKcS3_m, symObjAddr: 0xA890, symBinAddr: 0x10000B764, symSize: 0x34 }
  - { offsetInCU: 0x337C3, offset: 0x337C3, size: 0x8, addend: 0x0, symName: __ZNKSt3__117basic_string_viewIcNS_11char_traitsIcEEE4dataB8ue170006Ev, symObjAddr: 0xA8C4, symBinAddr: 0x10000B798, symSize: 0x18 }
  - { offsetInCU: 0x337F3, offset: 0x337F3, size: 0x8, addend: 0x0, symName: __ZNKSt3__16__lessIvvEclB8ue170006ImmEEbRKT_RKT0_, symObjAddr: 0xA930, symBinAddr: 0x10000B804, symSize: 0x34 }
  - { offsetInCU: 0x33847, offset: 0x33847, size: 0x8, addend: 0x0, symName: __ZNKSt3__112basic_stringIcNS_11char_traitsIcEENS_9allocatorIcEEE4dataB8ue170006Ev, symObjAddr: 0xA964, symBinAddr: 0x10000B838, symSize: 0x28 }
  - { offsetInCU: 0x3386D, offset: 0x3386D, size: 0x8, addend: 0x0, symName: __ZNSt3__117basic_string_viewIcNS_11char_traitsIcEEEC1B8ue170006EPKcm, symObjAddr: 0xA98C, symBinAddr: 0x10000B860, symSize: 0x3C }
  - { offsetInCU: 0x338B5, offset: 0x338B5, size: 0x8, addend: 0x0, symName: __ZNKSt3__112basic_stringIcNS_11char_traitsIcEENS_9allocatorIcEEE13__get_pointerB8ue170006Ev, symObjAddr: 0xA9DC, symBinAddr: 0x10000B8B0, symSize: 0x54 }
  - { offsetInCU: 0x338DB, offset: 0x338DB, size: 0x8, addend: 0x0, symName: __ZNKSt3__112basic_stringIcNS_11char_traitsIcEENS_9allocatorIcEEE9__is_longB8ue170006Ev, symObjAddr: 0xAA30, symBinAddr: 0x10000B904, symSize: 0x38 }
  - { offsetInCU: 0x33901, offset: 0x33901, size: 0x8, addend: 0x0, symName: __ZNKSt3__112basic_stringIcNS_11char_traitsIcEENS_9allocatorIcEEE18__get_long_pointerB8ue170006Ev, symObjAddr: 0xAA68, symBinAddr: 0x10000B93C, symSize: 0x28 }
  - { offsetInCU: 0x33927, offset: 0x33927, size: 0x8, addend: 0x0, symName: __ZNKSt3__112basic_stringIcNS_11char_traitsIcEENS_9allocatorIcEEE19__get_short_pointerB8ue170006Ev, symObjAddr: 0xAA90, symBinAddr: 0x10000B964, symSize: 0x28 }
  - { offsetInCU: 0x3394D, offset: 0x3394D, size: 0x8, addend: 0x0, symName: __ZNKSt3__117__compressed_pairINS_12basic_stringIcNS_11char_traitsIcEENS_9allocatorIcEEE5__repES5_E5firstB8ue170006Ev, symObjAddr: 0xAAB8, symBinAddr: 0x10000B98C, symSize: 0x24 }
  - { offsetInCU: 0x33973, offset: 0x33973, size: 0x8, addend: 0x0, symName: __ZNKSt3__122__compressed_pair_elemINS_12basic_stringIcNS_11char_traitsIcEENS_9allocatorIcEEE5__repELi0ELb0EE5__getB8ue170006Ev, symObjAddr: 0xAADC, symBinAddr: 0x10000B9B0, symSize: 0x14 }
  - { offsetInCU: 0x33999, offset: 0x33999, size: 0x8, addend: 0x0, symName: __ZNSt3__114pointer_traitsIPKcE10pointer_toB8ue170006ERS1_, symObjAddr: 0xAAF0, symBinAddr: 0x10000B9C4, symSize: 0x14 }
  - { offsetInCU: 0x339BC, offset: 0x339BC, size: 0x8, addend: 0x0, symName: __ZNSt3__117basic_string_viewIcNS_11char_traitsIcEEEC2B8ue170006EPKcm, symObjAddr: 0xAB04, symBinAddr: 0x10000B9D8, symSize: 0x2C }
  - { offsetInCU: 0x33A04, offset: 0x33A04, size: 0x8, addend: 0x0, symName: __ZNSt3__117basic_string_viewIcNS_11char_traitsIcEEEC2B8ue170006EPKc, symObjAddr: 0xAB30, symBinAddr: 0x10000BA04, symSize: 0x44 }
  - { offsetInCU: 0x33A3D, offset: 0x33A3D, size: 0x8, addend: 0x0, symName: __ZNSt3__111char_traitsIcE6lengthB8ue170006EPKc, symObjAddr: 0xAB98, symBinAddr: 0x10000BA6C, symSize: 0x34 }
  - { offsetInCU: 0x33A60, offset: 0x33A60, size: 0x8, addend: 0x0, symName: __ZNKSt3__112basic_stringIcNS_11char_traitsIcEENS_9allocatorIcEEE15__get_long_sizeB8ue170006Ev, symObjAddr: 0xABF0, symBinAddr: 0x10000BAC4, symSize: 0x28 }
  - { offsetInCU: 0x33A86, offset: 0x33A86, size: 0x8, addend: 0x0, symName: __ZNKSt3__112basic_stringIcNS_11char_traitsIcEENS_9allocatorIcEEE16__get_short_sizeB8ue170006Ev, symObjAddr: 0xAC18, symBinAddr: 0x10000BAEC, symSize: 0x34 }
  - { offsetInCU: 0x33AAC, offset: 0x33AAC, size: 0x8, addend: 0x0, symName: __ZNSt3__112basic_stringIcNS_11char_traitsIcEENS_9allocatorIcEEE13__get_pointerB8ue170006Ev, symObjAddr: 0xAC60, symBinAddr: 0x10000BB34, symSize: 0x54 }
  - { offsetInCU: 0x33AD2, offset: 0x33AD2, size: 0x8, addend: 0x0, symName: __ZNSt3__112basic_stringIcNS_11char_traitsIcEENS_9allocatorIcEEE18__get_long_pointerB8ue170006Ev, symObjAddr: 0xACB4, symBinAddr: 0x10000BB88, symSize: 0x28 }
  - { offsetInCU: 0x33AF8, offset: 0x33AF8, size: 0x8, addend: 0x0, symName: __ZNSt3__112basic_stringIcNS_11char_traitsIcEENS_9allocatorIcEEE19__get_short_pointerB8ue170006Ev, symObjAddr: 0xACDC, symBinAddr: 0x10000BBB0, symSize: 0x28 }
  - { offsetInCU: 0x33B1E, offset: 0x33B1E, size: 0x8, addend: 0x0, symName: __ZNSt3__114pointer_traitsIPcE10pointer_toB8ue170006ERc, symObjAddr: 0xAD04, symBinAddr: 0x10000BBD8, symSize: 0x14 }
  - { offsetInCU: 0x33B41, offset: 0x33B41, size: 0x8, addend: 0x0, symName: __Z9__isctypeim, symObjAddr: 0xAD18, symBinAddr: 0x10000BBEC, symSize: 0x80 }
  - { offsetInCU: 0x33B7C, offset: 0x33B7C, size: 0x8, addend: 0x0, symName: __ZN6chisel6Parser9ParseNodeC2ENS1_4TypeE, symObjAddr: 0xAD98, symBinAddr: 0x10000BC6C, symSize: 0x3C }
  - { offsetInCU: 0x33BB5, offset: 0x33BB5, size: 0x8, addend: 0x0, symName: __ZNSt3__16vectorIN6chisel6Parser4NodeENS_9allocatorIS3_EEEC1B8ue170006Ev, symObjAddr: 0xADD4, symBinAddr: 0x10000BCA8, symSize: 0x2C }
  - { offsetInCU: 0x33BDF, offset: 0x33BDF, size: 0x8, addend: 0x0, symName: __ZNSt3__16vectorIN6chisel6Parser4NodeENS_9allocatorIS3_EEEC2B8ue170006Ev, symObjAddr: 0xAE00, symBinAddr: 0x10000BCD4, symSize: 0x4C }
  - { offsetInCU: 0x33C0E, offset: 0x33C0E, size: 0x8, addend: 0x0, symName: __ZNSt3__117__compressed_pairIPN6chisel6Parser4NodeENS_9allocatorIS3_EEEC1B8ue170006IDnNS_18__default_init_tagEEEOT_OT0_, symObjAddr: 0xAE4C, symBinAddr: 0x10000BD20, symSize: 0x3C }
  - { offsetInCU: 0x33C66, offset: 0x33C66, size: 0x8, addend: 0x0, symName: __ZNSt3__117__compressed_pairIPN6chisel6Parser4NodeENS_9allocatorIS3_EEEC2B8ue170006IDnNS_18__default_init_tagEEEOT_OT0_, symObjAddr: 0xAE88, symBinAddr: 0x10000BD5C, symSize: 0x40 }
  - { offsetInCU: 0x33CBE, offset: 0x33CBE, size: 0x8, addend: 0x0, symName: __ZNSt3__122__compressed_pair_elemIPN6chisel6Parser4NodeELi0ELb0EEC2B8ue170006IDnvEEOT_, symObjAddr: 0xAEC8, symBinAddr: 0x10000BD9C, symSize: 0x1C }
  - { offsetInCU: 0x33D00, offset: 0x33D00, size: 0x8, addend: 0x0, symName: __ZNSt3__122__compressed_pair_elemINS_9allocatorIN6chisel6Parser4NodeEEELi1ELb1EEC2B8ue170006ENS_18__default_init_tagE, symObjAddr: 0xAEE4, symBinAddr: 0x10000BDB8, symSize: 0x2C }
  - { offsetInCU: 0x33D34, offset: 0x33D34, size: 0x8, addend: 0x0, symName: __ZNSt3__19allocatorIN6chisel6Parser4NodeEEC2B8ue170006Ev, symObjAddr: 0xAF10, symBinAddr: 0x10000BDE4, symSize: 0x2C }
  - { offsetInCU: 0x33D5E, offset: 0x33D5E, size: 0x8, addend: 0x0, symName: __ZNSt3__116__non_trivial_ifILb1ENS_9allocatorIN6chisel6Parser4NodeEEEEC2B8ue170006Ev, symObjAddr: 0xAF3C, symBinAddr: 0x10000BE10, symSize: 0x14 }
  - { offsetInCU: 0x33D88, offset: 0x33D88, size: 0x8, addend: 0x0, symName: __ZN6chisel6Parser4NodeC2EPNS0_9ParseNodeE, symObjAddr: 0xAF50, symBinAddr: 0x10000BE24, symSize: 0x2C }
  - { offsetInCU: 0x33DC1, offset: 0x33DC1, size: 0x8, addend: 0x0, symName: __ZN6chisel6Parser4NodeC2ERKS1_, symObjAddr: 0xAF7C, symBinAddr: 0x10000BE50, symSize: 0x88 }
  - { offsetInCU: 0x33DFA, offset: 0x33DFA, size: 0x8, addend: 0x0, symName: __ZN6chisel5TokenaSERKS0_, symObjAddr: 0xB004, symBinAddr: 0x10000BED8, symSize: 0xD4 }
  - { offsetInCU: 0x33E4A, offset: 0x33E4A, size: 0x8, addend: 0x0, symName: __ZN6chisel6Parser4NodeD2Ev, symObjAddr: 0xB0D8, symBinAddr: 0x10000BFAC, symSize: 0x98 }
  - { offsetInCU: 0x33E74, offset: 0x33E74, size: 0x8, addend: 0x0, symName: __ZN6chisel6Parser9ParseNodeD1Ev, symObjAddr: 0xB170, symBinAddr: 0x10000C044, symSize: 0x2C }
  - { offsetInCU: 0x33E9E, offset: 0x33E9E, size: 0x8, addend: 0x0, symName: __ZN6chisel6Parser9ParseNodeD2Ev, symObjAddr: 0xB19C, symBinAddr: 0x10000C070, symSize: 0x30 }
  - { offsetInCU: 0x33EC8, offset: 0x33EC8, size: 0x8, addend: 0x0, symName: __ZNSt3__16vectorIN6chisel6Parser4NodeENS_9allocatorIS3_EEED1B8ue170006Ev, symObjAddr: 0xB1CC, symBinAddr: 0x10000C0A0, symSize: 0x2C }
  - { offsetInCU: 0x33EF2, offset: 0x33EF2, size: 0x8, addend: 0x0, symName: __ZNSt3__16vectorIN6chisel6Parser4NodeENS_9allocatorIS3_EEED2B8ue170006Ev, symObjAddr: 0xB1F8, symBinAddr: 0x10000C0CC, symSize: 0x44 }
  - { offsetInCU: 0x33F1C, offset: 0x33F1C, size: 0x8, addend: 0x0, symName: __ZNSt3__16vectorIN6chisel6Parser4NodeENS_9allocatorIS3_EEE16__destroy_vectorC1B8ue170006ERS6_, symObjAddr: 0xB23C, symBinAddr: 0x10000C110, symSize: 0x34 }
  - { offsetInCU: 0x33F55, offset: 0x33F55, size: 0x8, addend: 0x0, symName: __ZNSt3__16vectorIN6chisel6Parser4NodeENS_9allocatorIS3_EEE16__destroy_vectorclB8ue170006Ev, symObjAddr: 0xB270, symBinAddr: 0x10000C144, symSize: 0x90 }
  - { offsetInCU: 0x33F7B, offset: 0x33F7B, size: 0x8, addend: 0x0, symName: __ZNSt3__16vectorIN6chisel6Parser4NodeENS_9allocatorIS3_EEE16__destroy_vectorC2B8ue170006ERS6_, symObjAddr: 0xB300, symBinAddr: 0x10000C1D4, symSize: 0x20 }
  - { offsetInCU: 0x33FB4, offset: 0x33FB4, size: 0x8, addend: 0x0, symName: __ZNSt3__16vectorIN6chisel6Parser4NodeENS_9allocatorIS3_EEE7__clearB8ue170006Ev, symObjAddr: 0xB320, symBinAddr: 0x10000C1F4, symSize: 0x28 }
  - { offsetInCU: 0x33FDA, offset: 0x33FDA, size: 0x8, addend: 0x0, symName: __ZNKSt3__16vectorIN6chisel6Parser4NodeENS_9allocatorIS3_EEE17__annotate_deleteB8ue170006Ev, symObjAddr: 0xB348, symBinAddr: 0x10000C21C, symSize: 0xD4 }
  - { offsetInCU: 0x34000, offset: 0x34000, size: 0x8, addend: 0x0, symName: __ZNSt3__116allocator_traitsINS_9allocatorIN6chisel6Parser4NodeEEEE10deallocateB8ue170006ERS5_PS4_m, symObjAddr: 0xB41C, symBinAddr: 0x10000C2F0, symSize: 0x34 }
  - { offsetInCU: 0x34042, offset: 0x34042, size: 0x8, addend: 0x0, symName: __ZNSt3__16vectorIN6chisel6Parser4NodeENS_9allocatorIS3_EEE7__allocB8ue170006Ev, symObjAddr: 0xB450, symBinAddr: 0x10000C324, symSize: 0x28 }
  - { offsetInCU: 0x34068, offset: 0x34068, size: 0x8, addend: 0x0, symName: __ZNKSt3__16vectorIN6chisel6Parser4NodeENS_9allocatorIS3_EEE8capacityB8ue170006Ev, symObjAddr: 0xB478, symBinAddr: 0x10000C34C, symSize: 0x40 }
  - { offsetInCU: 0x3408E, offset: 0x3408E, size: 0x8, addend: 0x0, symName: __ZNSt3__16vectorIN6chisel6Parser4NodeENS_9allocatorIS3_EEE22__base_destruct_at_endB8ue170006EPS3_, symObjAddr: 0xB4B8, symBinAddr: 0x10000C38C, symSize: 0x8C }
  - { offsetInCU: 0x340D2, offset: 0x340D2, size: 0x8, addend: 0x0, symName: __ZNSt3__116allocator_traitsINS_9allocatorIN6chisel6Parser4NodeEEEE7destroyB8ue170006IS4_vvEEvRS5_PT_, symObjAddr: 0xB544, symBinAddr: 0x10000C418, symSize: 0x28 }
  - { offsetInCU: 0x3410D, offset: 0x3410D, size: 0x8, addend: 0x0, symName: __ZNKSt3__16vectorIN6chisel6Parser4NodeENS_9allocatorIS3_EEE31__annotate_contiguous_containerB8ue170006EPKvS8_S8_S8_, symObjAddr: 0xB5C8, symBinAddr: 0x10000C49C, symSize: 0x20 }
  - { offsetInCU: 0x34163, offset: 0x34163, size: 0x8, addend: 0x0, symName: __ZNKSt3__16vectorIN6chisel6Parser4NodeENS_9allocatorIS3_EEE4dataB8ue170006Ev, symObjAddr: 0xB5E8, symBinAddr: 0x10000C4BC, symSize: 0x28 }
  - { offsetInCU: 0x34189, offset: 0x34189, size: 0x8, addend: 0x0, symName: __ZNSt3__19allocatorIN6chisel6Parser4NodeEE10deallocateB8ue170006EPS3_m, symObjAddr: 0xB610, symBinAddr: 0x10000C4E4, symSize: 0x44 }
  - { offsetInCU: 0x341CB, offset: 0x341CB, size: 0x8, addend: 0x0, symName: __ZNSt3__117__compressed_pairIPN6chisel6Parser4NodeENS_9allocatorIS3_EEE6secondB8ue170006Ev, symObjAddr: 0xB77C, symBinAddr: 0x10000C650, symSize: 0x24 }
  - { offsetInCU: 0x341F1, offset: 0x341F1, size: 0x8, addend: 0x0, symName: __ZNSt3__122__compressed_pair_elemINS_9allocatorIN6chisel6Parser4NodeEEELi1ELb1EE5__getB8ue170006Ev, symObjAddr: 0xB7A0, symBinAddr: 0x10000C674, symSize: 0x14 }
  - { offsetInCU: 0x34217, offset: 0x34217, size: 0x8, addend: 0x0, symName: __ZNKSt3__16vectorIN6chisel6Parser4NodeENS_9allocatorIS3_EEE9__end_capB8ue170006Ev, symObjAddr: 0xB7B4, symBinAddr: 0x10000C688, symSize: 0x28 }
  - { offsetInCU: 0x3423D, offset: 0x3423D, size: 0x8, addend: 0x0, symName: __ZNKSt3__117__compressed_pairIPN6chisel6Parser4NodeENS_9allocatorIS3_EEE5firstB8ue170006Ev, symObjAddr: 0xB7DC, symBinAddr: 0x10000C6B0, symSize: 0x24 }
  - { offsetInCU: 0x34263, offset: 0x34263, size: 0x8, addend: 0x0, symName: __ZNKSt3__122__compressed_pair_elemIPN6chisel6Parser4NodeELi0ELb0EE5__getB8ue170006Ev, symObjAddr: 0xB800, symBinAddr: 0x10000C6D4, symSize: 0x14 }
  - { offsetInCU: 0x34289, offset: 0x34289, size: 0x8, addend: 0x0, symName: __ZNK6chisel6Parser4Node10holds_nodeEv, symObjAddr: 0xB814, symBinAddr: 0x10000C6E8, symSize: 0x20 }
  - { offsetInCU: 0x342AF, offset: 0x342AF, size: 0x8, addend: 0x0, symName: __ZNSt3__16vectorIN6chisel6Parser4NodeENS_9allocatorIS3_EEE9__end_capB8ue170006Ev, symObjAddr: 0xB834, symBinAddr: 0x10000C708, symSize: 0x28 }
  - { offsetInCU: 0x342D5, offset: 0x342D5, size: 0x8, addend: 0x0, symName: __ZNSt3__16vectorIN6chisel6Parser4NodeENS_9allocatorIS3_EEE22__construct_one_at_endB8ue170006IJRS3_EEEvDpOT_, symObjAddr: 0xB85C, symBinAddr: 0x10000C730, symSize: 0x90 }
  - { offsetInCU: 0x34324, offset: 0x34324, size: 0x8, addend: 0x0, symName: __ZNSt3__16vectorIN6chisel6Parser4NodeENS_9allocatorIS3_EEE24__emplace_back_slow_pathIJRS3_EEEvDpOT_, symObjAddr: 0xB8EC, symBinAddr: 0x10000C7C0, symSize: 0xD8 }
  - { offsetInCU: 0x34384, offset: 0x34384, size: 0x8, addend: 0x0, symName: __ZNSt3__16vectorIN6chisel6Parser4NodeENS_9allocatorIS3_EEE4backB8ue170006Ev, symObjAddr: 0xB9C4, symBinAddr: 0x10000C898, symSize: 0x1C }
  - { offsetInCU: 0x343AA, offset: 0x343AA, size: 0x8, addend: 0x0, symName: __ZNSt3__117__compressed_pairIPN6chisel6Parser4NodeENS_9allocatorIS3_EEE5firstB8ue170006Ev, symObjAddr: 0xB9E0, symBinAddr: 0x10000C8B4, symSize: 0x24 }
  - { offsetInCU: 0x343D0, offset: 0x343D0, size: 0x8, addend: 0x0, symName: __ZNSt3__122__compressed_pair_elemIPN6chisel6Parser4NodeELi0ELb0EE5__getB8ue170006Ev, symObjAddr: 0xBA04, symBinAddr: 0x10000C8D8, symSize: 0x14 }
  - { offsetInCU: 0x3440F, offset: 0x3440F, size: 0x8, addend: 0x0, symName: __ZNSt3__16vectorIN6chisel6Parser4NodeENS_9allocatorIS3_EEE21_ConstructTransactionC1B8ue170006ERS6_m, symObjAddr: 0xBA18, symBinAddr: 0x10000C8EC, symSize: 0x3C }
  - { offsetInCU: 0x34457, offset: 0x34457, size: 0x8, addend: 0x0, symName: __ZNSt3__116allocator_traitsINS_9allocatorIN6chisel6Parser4NodeEEEE9constructB8ue170006IS4_JRS4_EvvEEvRS5_PT_DpOT0_, symObjAddr: 0xBA54, symBinAddr: 0x10000C928, symSize: 0x30 }
  - { offsetInCU: 0x344AC, offset: 0x344AC, size: 0x8, addend: 0x0, symName: __ZNSt3__16vectorIN6chisel6Parser4NodeENS_9allocatorIS3_EEE21_ConstructTransactionD1B8ue170006Ev, symObjAddr: 0xBA84, symBinAddr: 0x10000C958, symSize: 0x2C }
  - { offsetInCU: 0x344D6, offset: 0x344D6, size: 0x8, addend: 0x0, symName: __ZNSt3__16vectorIN6chisel6Parser4NodeENS_9allocatorIS3_EEE21_ConstructTransactionC2B8ue170006ERS6_m, symObjAddr: 0xBAB0, symBinAddr: 0x10000C984, symSize: 0x4C }
  - { offsetInCU: 0x3451E, offset: 0x3451E, size: 0x8, addend: 0x0, symName: __ZNSt3__16vectorIN6chisel6Parser4NodeENS_9allocatorIS3_EEE21_ConstructTransactionD2B8ue170006Ev, symObjAddr: 0xBB38, symBinAddr: 0x10000CA0C, symSize: 0x20 }
  - { offsetInCU: 0x34548, offset: 0x34548, size: 0x8, addend: 0x0, symName: __ZNKSt3__16vectorIN6chisel6Parser4NodeENS_9allocatorIS3_EEE11__recommendB8ue170006Em, symObjAddr: 0xBB58, symBinAddr: 0x10000CA2C, symSize: 0xB4 }
  - { offsetInCU: 0x3459D, offset: 0x3459D, size: 0x8, addend: 0x0, symName: __ZNSt3__114__split_bufferIN6chisel6Parser4NodeERNS_9allocatorIS3_EEEC1EmmS6_, symObjAddr: 0xBC0C, symBinAddr: 0x10000CAE0, symSize: 0x44 }
  - { offsetInCU: 0x345F3, offset: 0x345F3, size: 0x8, addend: 0x0, symName: __ZNSt3__114__split_bufferIN6chisel6Parser4NodeERNS_9allocatorIS3_EEED1Ev, symObjAddr: 0xBD60, symBinAddr: 0x10000CC34, symSize: 0x2C }
  - { offsetInCU: 0x3461F, offset: 0x3461F, size: 0x8, addend: 0x0, symName: __ZNKSt3__16vectorIN6chisel6Parser4NodeENS_9allocatorIS3_EEE8max_sizeEv, symObjAddr: 0xBD8C, symBinAddr: 0x10000CC60, symSize: 0x60 }
  - { offsetInCU: 0x34647, offset: 0x34647, size: 0x8, addend: 0x0, symName: __ZNKSt3__16vectorIN6chisel6Parser4NodeENS_9allocatorIS3_EEE20__throw_length_errorB8ue170006Ev, symObjAddr: 0xBDEC, symBinAddr: 0x10000CCC0, symSize: 0x1C }
  - { offsetInCU: 0x34677, offset: 0x34677, size: 0x8, addend: 0x0, symName: __ZNSt3__116allocator_traitsINS_9allocatorIN6chisel6Parser4NodeEEEE8max_sizeB8ue170006IS5_vvEEmRKS5_, symObjAddr: 0xBE34, symBinAddr: 0x10000CD08, symSize: 0x28 }
  - { offsetInCU: 0x346A3, offset: 0x346A3, size: 0x8, addend: 0x0, symName: __ZNKSt3__16vectorIN6chisel6Parser4NodeENS_9allocatorIS3_EEE7__allocB8ue170006Ev, symObjAddr: 0xBE5C, symBinAddr: 0x10000CD30, symSize: 0x28 }
  - { offsetInCU: 0x346C9, offset: 0x346C9, size: 0x8, addend: 0x0, symName: __ZNSt3__114numeric_limitsIlE3maxB8ue170006Ev, symObjAddr: 0xBE84, symBinAddr: 0x10000CD58, symSize: 0x14 }
  - { offsetInCU: 0x346DD, offset: 0x346DD, size: 0x8, addend: 0x0, symName: __ZNSt3__114numeric_limitsImE3maxB8ue170006Ev, symObjAddr: 0xBE98, symBinAddr: 0x10000CD6C, symSize: 0x14 }
  - { offsetInCU: 0x346F1, offset: 0x346F1, size: 0x8, addend: 0x0, symName: __ZNSt3__123__libcpp_numeric_limitsImLb1EE3maxB8ue170006Ev, symObjAddr: 0xBEAC, symBinAddr: 0x10000CD80, symSize: 0x8 }
  - { offsetInCU: 0x34705, offset: 0x34705, size: 0x8, addend: 0x0, symName: __ZNKSt3__117__compressed_pairIPN6chisel6Parser4NodeENS_9allocatorIS3_EEE6secondB8ue170006Ev, symObjAddr: 0xBEB4, symBinAddr: 0x10000CD88, symSize: 0x24 }
  - { offsetInCU: 0x3472B, offset: 0x3472B, size: 0x8, addend: 0x0, symName: __ZNKSt3__122__compressed_pair_elemINS_9allocatorIN6chisel6Parser4NodeEEELi1ELb1EE5__getB8ue170006Ev, symObjAddr: 0xBED8, symBinAddr: 0x10000CDAC, symSize: 0x14 }
  - { offsetInCU: 0x34751, offset: 0x34751, size: 0x8, addend: 0x0, symName: __ZNSt3__123__libcpp_numeric_limitsIlLb1EE3maxB8ue170006Ev, symObjAddr: 0xBEEC, symBinAddr: 0x10000CDC0, symSize: 0x8 }
  - { offsetInCU: 0x34765, offset: 0x34765, size: 0x8, addend: 0x0, symName: __ZNSt12length_errorC1B8ue170006EPKc, symObjAddr: 0xBF58, symBinAddr: 0x10000CE2C, symSize: 0x34 }
  - { offsetInCU: 0x3479D, offset: 0x3479D, size: 0x8, addend: 0x0, symName: __ZNSt12length_errorC2B8ue170006EPKc, symObjAddr: 0xBF8C, symBinAddr: 0x10000CE60, symSize: 0x4C }
  - { offsetInCU: 0x347D5, offset: 0x347D5, size: 0x8, addend: 0x0, symName: __ZNSt3__114__split_bufferIN6chisel6Parser4NodeERNS_9allocatorIS3_EEEC2EmmS6_, symObjAddr: 0xC02C, symBinAddr: 0x10000CF00, symSize: 0xE0 }
  - { offsetInCU: 0x34848, offset: 0x34848, size: 0x8, addend: 0x0, symName: __ZNSt3__117__compressed_pairIPN6chisel6Parser4NodeERNS_9allocatorIS3_EEEC1B8ue170006IDnS7_EEOT_OT0_, symObjAddr: 0xC10C, symBinAddr: 0x10000CFE0, symSize: 0x3C }
  - { offsetInCU: 0x348A0, offset: 0x348A0, size: 0x8, addend: 0x0, symName: __ZNSt3__114__split_bufferIN6chisel6Parser4NodeERNS_9allocatorIS3_EEE7__allocB8ue170006Ev, symObjAddr: 0xC188, symBinAddr: 0x10000D05C, symSize: 0x28 }
  - { offsetInCU: 0x348C6, offset: 0x348C6, size: 0x8, addend: 0x0, symName: __ZNSt3__114__split_bufferIN6chisel6Parser4NodeERNS_9allocatorIS3_EEE9__end_capB8ue170006Ev, symObjAddr: 0xC1B0, symBinAddr: 0x10000D084, symSize: 0x28 }
  - { offsetInCU: 0x348EC, offset: 0x348EC, size: 0x8, addend: 0x0, symName: __ZNSt3__117__compressed_pairIPN6chisel6Parser4NodeERNS_9allocatorIS3_EEEC2B8ue170006IDnS7_EEOT_OT0_, symObjAddr: 0xC1D8, symBinAddr: 0x10000D0AC, symSize: 0x48 }
  - { offsetInCU: 0x34944, offset: 0x34944, size: 0x8, addend: 0x0, symName: __ZNSt3__122__compressed_pair_elemIRNS_9allocatorIN6chisel6Parser4NodeEEELi1ELb0EEC2B8ue170006IS6_vEEOT_, symObjAddr: 0xC220, symBinAddr: 0x10000D0F4, symSize: 0x20 }
  - { offsetInCU: 0x34986, offset: 0x34986, size: 0x8, addend: 0x0, symName: __ZNSt3__19allocatorIN6chisel6Parser4NodeEE8allocateB8ue170006Em, symObjAddr: 0xC240, symBinAddr: 0x10000D114, symSize: 0x5C }
  - { offsetInCU: 0x349BA, offset: 0x349BA, size: 0x8, addend: 0x0, symName: __ZNSt3__117__compressed_pairIPN6chisel6Parser4NodeERNS_9allocatorIS3_EEE6secondB8ue170006Ev, symObjAddr: 0xC380, symBinAddr: 0x10000D254, symSize: 0x28 }
  - { offsetInCU: 0x349E0, offset: 0x349E0, size: 0x8, addend: 0x0, symName: __ZNSt3__122__compressed_pair_elemIRNS_9allocatorIN6chisel6Parser4NodeEEELi1ELb0EE5__getB8ue170006Ev, symObjAddr: 0xC3A8, symBinAddr: 0x10000D27C, symSize: 0x18 }
  - { offsetInCU: 0x34A06, offset: 0x34A06, size: 0x8, addend: 0x0, symName: __ZNSt3__117__compressed_pairIPN6chisel6Parser4NodeERNS_9allocatorIS3_EEE5firstB8ue170006Ev, symObjAddr: 0xC3C0, symBinAddr: 0x10000D294, symSize: 0x24 }
  - { offsetInCU: 0x34A2C, offset: 0x34A2C, size: 0x8, addend: 0x0, symName: __ZNSt3__116reverse_iteratorIPN6chisel6Parser4NodeEEC1B8ue170006ES4_, symObjAddr: 0xC510, symBinAddr: 0x10000D3E4, symSize: 0x34 }
  - { offsetInCU: 0x34A64, offset: 0x34A64, size: 0x8, addend: 0x0, symName: __ZNKSt3__116reverse_iteratorIPN6chisel6Parser4NodeEE4baseB8ue170006Ev, symObjAddr: 0xC544, symBinAddr: 0x10000D418, symSize: 0x18 }
  - { offsetInCU: 0x34A8A, offset: 0x34A8A, size: 0x8, addend: 0x0, symName: __ZNKSt3__16vectorIN6chisel6Parser4NodeENS_9allocatorIS3_EEE14__annotate_newB8ue170006Em, symObjAddr: 0xC598, symBinAddr: 0x10000D46C, symSize: 0xC8 }
  - { offsetInCU: 0x34ABF, offset: 0x34ABF, size: 0x8, addend: 0x0, symName: __ZNSt3__129_AllocatorDestroyRangeReverseINS_9allocatorIN6chisel6Parser4NodeEEENS_16reverse_iteratorIPS4_EEEC1B8ue170006ERS5_RS8_SB_, symObjAddr: 0xC6AC, symBinAddr: 0x10000D580, symSize: 0x44 }
  - { offsetInCU: 0x34B16, offset: 0x34B16, size: 0x8, addend: 0x0, symName: __ZNSt3__116allocator_traitsINS_9allocatorIN6chisel6Parser4NodeEEEE9constructB8ue170006IS4_JRKS4_EvvEEvRS5_PT_DpOT0_, symObjAddr: 0xC738, symBinAddr: 0x10000D60C, symSize: 0x30 }
  - { offsetInCU: 0x34B6B, offset: 0x34B6B, size: 0x8, addend: 0x0, symName: __ZNKSt3__116reverse_iteratorIPN6chisel6Parser4NodeEEdeB8ue170006Ev, symObjAddr: 0xC78C, symBinAddr: 0x10000D660, symSize: 0x28 }
  - { offsetInCU: 0x34B9F, offset: 0x34B9F, size: 0x8, addend: 0x0, symName: __ZNSt3__116reverse_iteratorIPN6chisel6Parser4NodeEEppB8ue170006Ev, symObjAddr: 0xC7B4, symBinAddr: 0x10000D688, symSize: 0x20 }
  - { offsetInCU: 0x34BC5, offset: 0x34BC5, size: 0x8, addend: 0x0, symName: __ZNSt3__128__exception_guard_exceptionsINS_29_AllocatorDestroyRangeReverseINS_9allocatorIN6chisel6Parser4NodeEEENS_16reverse_iteratorIPS5_EEEEE10__completeB8ue170006Ev, symObjAddr: 0xC7D4, symBinAddr: 0x10000D6A8, symSize: 0x1C }
  - { offsetInCU: 0x34BEB, offset: 0x34BEB, size: 0x8, addend: 0x0, symName: __ZNSt3__128__exception_guard_exceptionsINS_29_AllocatorDestroyRangeReverseINS_9allocatorIN6chisel6Parser4NodeEEENS_16reverse_iteratorIPS5_EEEEED1B8ue170006Ev, symObjAddr: 0xC7F0, symBinAddr: 0x10000D6C4, symSize: 0x2C }
  - { offsetInCU: 0x34C15, offset: 0x34C15, size: 0x8, addend: 0x0, symName: __ZNSt3__128__exception_guard_exceptionsINS_29_AllocatorDestroyRangeReverseINS_9allocatorIN6chisel6Parser4NodeEEENS_16reverse_iteratorIPS5_EEEEEC1B8ue170006ESA_, symObjAddr: 0xC81C, symBinAddr: 0x10000D6F0, symSize: 0x34 }
  - { offsetInCU: 0x34C4E, offset: 0x34C4E, size: 0x8, addend: 0x0, symName: __ZNSt3__128__exception_guard_exceptionsINS_29_AllocatorDestroyRangeReverseINS_9allocatorIN6chisel6Parser4NodeEEENS_16reverse_iteratorIPS5_EEEEEC2B8ue170006ESA_, symObjAddr: 0xC850, symBinAddr: 0x10000D724, symSize: 0x30 }
  - { offsetInCU: 0x34C87, offset: 0x34C87, size: 0x8, addend: 0x0, symName: __ZNSt3__129_AllocatorDestroyRangeReverseINS_9allocatorIN6chisel6Parser4NodeEEENS_16reverse_iteratorIPS4_EEEC2B8ue170006ERS5_RS8_SB_, symObjAddr: 0xC880, symBinAddr: 0x10000D754, symSize: 0x38 }
  - { offsetInCU: 0x34CE3, offset: 0x34CE3, size: 0x8, addend: 0x0, symName: __ZNSt3__119__to_address_helperINS_16reverse_iteratorIPN6chisel6Parser4NodeEEEvE6__callB8ue170006ERKS6_, symObjAddr: 0xC8F4, symBinAddr: 0x10000D7C8, symSize: 0x38 }
  - { offsetInCU: 0x34D06, offset: 0x34D06, size: 0x8, addend: 0x0, symName: __ZNKSt3__116reverse_iteratorIPN6chisel6Parser4NodeEEptB8ue170006Ev, symObjAddr: 0xC92C, symBinAddr: 0x10000D800, symSize: 0x2C }
  - { offsetInCU: 0x34D2C, offset: 0x34D2C, size: 0x8, addend: 0x0, symName: __ZNSt3__128__exception_guard_exceptionsINS_29_AllocatorDestroyRangeReverseINS_9allocatorIN6chisel6Parser4NodeEEENS_16reverse_iteratorIPS5_EEEEED2B8ue170006Ev, symObjAddr: 0xCA10, symBinAddr: 0x10000D8E4, symSize: 0x50 }
  - { offsetInCU: 0x34D56, offset: 0x34D56, size: 0x8, addend: 0x0, symName: __ZNKSt3__129_AllocatorDestroyRangeReverseINS_9allocatorIN6chisel6Parser4NodeEEENS_16reverse_iteratorIPS4_EEEclB8ue170006Ev, symObjAddr: 0xCA60, symBinAddr: 0x10000D934, symSize: 0xB4 }
  - { offsetInCU: 0x34D7D, offset: 0x34D7D, size: 0x8, addend: 0x0, symName: __ZNSt3__116reverse_iteratorINS0_IPN6chisel6Parser4NodeEEEEC1B8ue170006ES5_, symObjAddr: 0xCB84, symBinAddr: 0x10000DA58, symSize: 0x3C }
  - { offsetInCU: 0x34DB5, offset: 0x34DB5, size: 0x8, addend: 0x0, symName: __ZNSt3__116reverse_iteratorINS0_IPN6chisel6Parser4NodeEEEEppB8ue170006Ev, symObjAddr: 0xCC44, symBinAddr: 0x10000DB18, symSize: 0x30 }
  - { offsetInCU: 0x34DDB, offset: 0x34DDB, size: 0x8, addend: 0x0, symName: __ZNKSt3__116reverse_iteratorINS0_IPN6chisel6Parser4NodeEEEE4baseB8ue170006Ev, symObjAddr: 0xCC74, symBinAddr: 0x10000DB48, symSize: 0x24 }
  - { offsetInCU: 0x34E06, offset: 0x34E06, size: 0x8, addend: 0x0, symName: __ZNSt3__119__to_address_helperINS_16reverse_iteratorINS1_IPN6chisel6Parser4NodeEEEEEvE6__callB8ue170006ERKS7_, symObjAddr: 0xCC98, symBinAddr: 0x10000DB6C, symSize: 0x38 }
  - { offsetInCU: 0x34E29, offset: 0x34E29, size: 0x8, addend: 0x0, symName: __ZNKSt3__116reverse_iteratorINS0_IPN6chisel6Parser4NodeEEEEptB8ue170006Ev, symObjAddr: 0xCCD0, symBinAddr: 0x10000DBA4, symSize: 0x4C }
  - { offsetInCU: 0x34E4F, offset: 0x34E4F, size: 0x8, addend: 0x0, symName: __ZNSt3__116reverse_iteratorIPN6chisel6Parser4NodeEEpLB8ue170006El, symObjAddr: 0xCDCC, symBinAddr: 0x10000DCA0, symSize: 0x30 }
  - { offsetInCU: 0x34E83, offset: 0x34E83, size: 0x8, addend: 0x0, symName: __ZNSt3__116reverse_iteratorIPN6chisel6Parser4NodeEEmmB8ue170006Ev, symObjAddr: 0xCDFC, symBinAddr: 0x10000DCD0, symSize: 0x20 }
  - { offsetInCU: 0x34EA9, offset: 0x34EA9, size: 0x8, addend: 0x0, symName: __ZNSt3__116reverse_iteratorINS0_IPN6chisel6Parser4NodeEEEEC2B8ue170006ES5_, symObjAddr: 0xCE1C, symBinAddr: 0x10000DCF0, symSize: 0x2C }
  - { offsetInCU: 0x34EE1, offset: 0x34EE1, size: 0x8, addend: 0x0, symName: __ZNSt3__116reverse_iteratorIPN6chisel6Parser4NodeEEC2B8ue170006ES4_, symObjAddr: 0xCE48, symBinAddr: 0x10000DD1C, symSize: 0x28 }
  - { offsetInCU: 0x34F19, offset: 0x34F19, size: 0x8, addend: 0x0, symName: __ZNSt3__114__split_bufferIN6chisel6Parser4NodeERNS_9allocatorIS3_EEED2Ev, symObjAddr: 0xCE70, symBinAddr: 0x10000DD44, symSize: 0x8C }
  - { offsetInCU: 0x34F45, offset: 0x34F45, size: 0x8, addend: 0x0, symName: __ZNSt3__114__split_bufferIN6chisel6Parser4NodeERNS_9allocatorIS3_EEE5clearB8ue170006Ev, symObjAddr: 0xCEFC, symBinAddr: 0x10000DDD0, symSize: 0x28 }
  - { offsetInCU: 0x34F6B, offset: 0x34F6B, size: 0x8, addend: 0x0, symName: __ZNKSt3__114__split_bufferIN6chisel6Parser4NodeERNS_9allocatorIS3_EEE8capacityB8ue170006Ev, symObjAddr: 0xCF24, symBinAddr: 0x10000DDF8, symSize: 0x40 }
  - { offsetInCU: 0x34F91, offset: 0x34F91, size: 0x8, addend: 0x0, symName: __ZNSt3__114__split_bufferIN6chisel6Parser4NodeERNS_9allocatorIS3_EEE17__destruct_at_endB8ue170006EPS3_, symObjAddr: 0xCF64, symBinAddr: 0x10000DE38, symSize: 0x2C }
  - { offsetInCU: 0x34FC5, offset: 0x34FC5, size: 0x8, addend: 0x0, symName: __ZNSt3__114__split_bufferIN6chisel6Parser4NodeERNS_9allocatorIS3_EEE17__destruct_at_endB8ue170006EPS3_NS_17integral_constantIbLb0EEE, symObjAddr: 0xCF90, symBinAddr: 0x10000DE64, symSize: 0x80 }
  - { offsetInCU: 0x35005, offset: 0x35005, size: 0x8, addend: 0x0, symName: __ZNKSt3__114__split_bufferIN6chisel6Parser4NodeERNS_9allocatorIS3_EEE9__end_capB8ue170006Ev, symObjAddr: 0xD010, symBinAddr: 0x10000DEE4, symSize: 0x28 }
  - { offsetInCU: 0x3502B, offset: 0x3502B, size: 0x8, addend: 0x0, symName: __ZNKSt3__117__compressed_pairIPN6chisel6Parser4NodeERNS_9allocatorIS3_EEE5firstB8ue170006Ev, symObjAddr: 0xD038, symBinAddr: 0x10000DF0C, symSize: 0x24 }
  - { offsetInCU: 0x35051, offset: 0x35051, size: 0x8, addend: 0x0, symName: __ZNSt3__16vectorIN6chisel6Parser4NodeENS_9allocatorIS3_EEE22__construct_one_at_endB8ue170006IJNS1_5TokenEEEEvDpOT_, symObjAddr: 0xD05C, symBinAddr: 0x10000DF30, symSize: 0x90 }
  - { offsetInCU: 0x350A0, offset: 0x350A0, size: 0x8, addend: 0x0, symName: __ZNSt3__16vectorIN6chisel6Parser4NodeENS_9allocatorIS3_EEE24__emplace_back_slow_pathIJNS1_5TokenEEEEvDpOT_, symObjAddr: 0xD0EC, symBinAddr: 0x10000DFC0, symSize: 0xD8 }
  - { offsetInCU: 0x35100, offset: 0x35100, size: 0x8, addend: 0x0, symName: __ZNSt3__116allocator_traitsINS_9allocatorIN6chisel6Parser4NodeEEEE9constructB8ue170006IS4_JNS2_5TokenEEvvEEvRS5_PT_DpOT0_, symObjAddr: 0xD1C4, symBinAddr: 0x10000E098, symSize: 0x30 }
  - { offsetInCU: 0x35155, offset: 0x35155, size: 0x8, addend: 0x0, symName: __ZN6chisel6Parser4NodeC1EONS_5TokenE, symObjAddr: 0xD230, symBinAddr: 0x10000E104, symSize: 0x34 }
  - { offsetInCU: 0x3518E, offset: 0x3518E, size: 0x8, addend: 0x0, symName: __ZN6chisel6Parser4NodeC2EONS_5TokenE, symObjAddr: 0xD264, symBinAddr: 0x10000E138, symSize: 0x40 }
  - { offsetInCU: 0x351C7, offset: 0x351C7, size: 0x8, addend: 0x0, symName: __ZN6chisel5TokenC1EOS0_, symObjAddr: 0xD2A4, symBinAddr: 0x10000E178, symSize: 0x34 }
  - { offsetInCU: 0x351FF, offset: 0x351FF, size: 0x8, addend: 0x0, symName: __ZN6chisel5TokenC2EOS0_, symObjAddr: 0xD2D8, symBinAddr: 0x10000E1AC, symSize: 0x38 }
  - { offsetInCU: 0x35250, offset: 0x35250, size: 0x8, addend: 0x0, symName: __ZNKSt3__113basic_ostreamIcNS_11char_traitsIcEEE6sentrycvbB8ue170006Ev, symObjAddr: 0xD5C4, symBinAddr: 0x10000E498, symSize: 0x1C }
  - { offsetInCU: 0x35276, offset: 0x35276, size: 0x8, addend: 0x0, symName: __ZNSt3__119ostreambuf_iteratorIcNS_11char_traitsIcEEEC1B8ue170006ERNS_13basic_ostreamIcS2_EE, symObjAddr: 0xD820, symBinAddr: 0x10000E6F4, symSize: 0x34 }
  - { offsetInCU: 0x352AE, offset: 0x352AE, size: 0x8, addend: 0x0, symName: __ZNKSt3__18ios_base5flagsB8ue170006Ev, symObjAddr: 0xD854, symBinAddr: 0x10000E728, symSize: 0x18 }
  - { offsetInCU: 0x352D6, offset: 0x352D6, size: 0x8, addend: 0x0, symName: __ZNKSt3__19basic_iosIcNS_11char_traitsIcEEE4fillB8ue170006Ev, symObjAddr: 0xD86C, symBinAddr: 0x10000E740, symSize: 0x64 }
  - { offsetInCU: 0x352FE, offset: 0x352FE, size: 0x8, addend: 0x0, symName: __ZNKSt3__119ostreambuf_iteratorIcNS_11char_traitsIcEEE6failedB8ue170006Ev, symObjAddr: 0xD8D0, symBinAddr: 0x10000E7A4, symSize: 0x24 }
  - { offsetInCU: 0x35324, offset: 0x35324, size: 0x8, addend: 0x0, symName: __ZNSt3__19basic_iosIcNS_11char_traitsIcEEE8setstateB8ue170006Ej, symObjAddr: 0xD8F4, symBinAddr: 0x10000E7C8, symSize: 0x2C }
  - { offsetInCU: 0x35359, offset: 0x35359, size: 0x8, addend: 0x0, symName: __ZNKSt3__18ios_base5widthB8ue170006Ev, symObjAddr: 0xD920, symBinAddr: 0x10000E7F4, symSize: 0x18 }
  - { offsetInCU: 0x35381, offset: 0x35381, size: 0x8, addend: 0x0, symName: __ZNSt3__115basic_streambufIcNS_11char_traitsIcEEE5sputnB8ue170006EPKcl, symObjAddr: 0xD938, symBinAddr: 0x10000E80C, symSize: 0x3C }
  - { offsetInCU: 0x353C3, offset: 0x353C3, size: 0x8, addend: 0x0, symName: __ZNSt3__112basic_stringIcNS_11char_traitsIcEENS_9allocatorIcEEEC1B8ue170006Emc, symObjAddr: 0xD974, symBinAddr: 0x10000E848, symSize: 0x3C }
  - { offsetInCU: 0x3540B, offset: 0x3540B, size: 0x8, addend: 0x0, symName: __ZNSt3__18ios_base5widthB8ue170006El, symObjAddr: 0xD9B0, symBinAddr: 0x10000E884, symSize: 0x2C }
  - { offsetInCU: 0x35451, offset: 0x35451, size: 0x8, addend: 0x0, symName: __ZNSt3__112basic_stringIcNS_11char_traitsIcEENS_9allocatorIcEEEC2B8ue170006Emc, symObjAddr: 0xD9DC, symBinAddr: 0x10000E8B0, symSize: 0x4C }
  - { offsetInCU: 0x35499, offset: 0x35499, size: 0x8, addend: 0x0, symName: __ZNSt3__119ostreambuf_iteratorIcNS_11char_traitsIcEEEC2B8ue170006ERNS_13basic_ostreamIcS2_EE, symObjAddr: 0xDA28, symBinAddr: 0x10000E8FC, symSize: 0x54 }
  - { offsetInCU: 0x354D1, offset: 0x354D1, size: 0x8, addend: 0x0, symName: __ZNKSt3__19basic_iosIcNS_11char_traitsIcEEE5rdbufB8ue170006Ev, symObjAddr: 0xDA7C, symBinAddr: 0x10000E950, symSize: 0x24 }
  - { offsetInCU: 0x354F9, offset: 0x354F9, size: 0x8, addend: 0x0, symName: __ZNKSt3__18ios_base5rdbufB8ue170006Ev, symObjAddr: 0xDAA0, symBinAddr: 0x10000E974, symSize: 0x18 }
  - { offsetInCU: 0x3551F, offset: 0x3551F, size: 0x8, addend: 0x0, symName: __ZNSt3__111char_traitsIcE11eq_int_typeB8ue170006Eii, symObjAddr: 0xDAB8, symBinAddr: 0x10000E98C, symSize: 0x28 }
  - { offsetInCU: 0x35552, offset: 0x35552, size: 0x8, addend: 0x0, symName: __ZNSt3__111char_traitsIcE3eofB8ue170006Ev, symObjAddr: 0xDAE0, symBinAddr: 0x10000E9B4, symSize: 0x8 }
  - { offsetInCU: 0x35566, offset: 0x35566, size: 0x8, addend: 0x0, symName: __ZNKSt3__19basic_iosIcNS_11char_traitsIcEEE5widenB8ue170006Ec, symObjAddr: 0xDAE8, symBinAddr: 0x10000E9BC, symSize: 0x84 }
  - { offsetInCU: 0x355CF, offset: 0x355CF, size: 0x8, addend: 0x0, symName: __ZNKSt3__15ctypeIcE5widenB8ue170006Ec, symObjAddr: 0xDB98, symBinAddr: 0x10000EA6C, symSize: 0x38 }
  - { offsetInCU: 0x35604, offset: 0x35604, size: 0x8, addend: 0x0, symName: __ZNSt3__18ios_base8setstateB8ue170006Ej, symObjAddr: 0xDBD0, symBinAddr: 0x10000EAA4, symSize: 0x34 }
  - { offsetInCU: 0x3563B, offset: 0x3563B, size: 0x8, addend: 0x0, symName: __ZNKSt3__17variantIJNS_9monostateEbxdNS_12basic_stringIcNS_11char_traitsIcEENS_9allocatorIcEEEENS_8functionIF5ValueRKNS_6vectorIS9_NS5_IS9_EEEEEEEEE5indexB8ue170006Ev, symObjAddr: 0xDC5C, symBinAddr: 0x10000EB30, symSize: 0x24 }
  - { offsetInCU: 0x35661, offset: 0x35661, size: 0x8, addend: 0x0, symName: __ZNKSt3__116__variant_detail6__baseILNS0_6_TraitE1EJNS_9monostateEbxdNS_12basic_stringIcNS_11char_traitsIcEENS_9allocatorIcEEEENS_8functionIF5ValueRKNS_6vectorISB_NS7_ISB_EEEEEEEEE5indexB8ue170006Ev, symObjAddr: 0xDC80, symBinAddr: 0x10000EB54, symSize: 0x4C }
  - { offsetInCU: 0x35687, offset: 0x35687, size: 0x8, addend: 0x0, symName: __ZNK5Value6is_intEv, symObjAddr: 0xDCCC, symBinAddr: 0x10000EBA0, symSize: 0x28 }
  - { offsetInCU: 0x356AD, offset: 0x356AD, size: 0x8, addend: 0x0, symName: __ZNSt3__113basic_ostreamIcNS_11char_traitsIcEEElsB8ue170006EPFRNS_8ios_baseES5_E, symObjAddr: 0xDD58, symBinAddr: 0x10000EC2C, symSize: 0x40 }
  - { offsetInCU: 0x356EB, offset: 0x356EB, size: 0x8, addend: 0x0, symName: __ZNSt3__116__variant_detail8__access9__variant9__get_altB8ue170006ILm2ERKNS_7variantIJNS_9monostateEbxdNS_12basic_stringIcNS_11char_traitsIcEENS_9allocatorIcEEEENS_8functionIF5ValueRKNS_6vectorISD_NS9_ISD_EEEEEEEEEEEEODaOT0_, symObjAddr: 0xDF28, symBinAddr: 0x10000EDFC, symSize: 0x24 }
  - { offsetInCU: 0x35731, offset: 0x35731, size: 0x8, addend: 0x0, symName: __ZNSt18bad_variant_accessC1Ev, symObjAddr: 0xDF4C, symBinAddr: 0x10000EE20, symSize: 0x2C }
  - { offsetInCU: 0x3575E, offset: 0x3575E, size: 0x8, addend: 0x0, symName: __ZNSt18bad_variant_accessD1Ev, symObjAddr: 0xDF78, symBinAddr: 0x10000EE4C, symSize: 0x2C }
  - { offsetInCU: 0x3578B, offset: 0x3578B, size: 0x8, addend: 0x0, symName: __ZNSt18bad_variant_accessC2Ev, symObjAddr: 0xDFA4, symBinAddr: 0x10000EE78, symSize: 0x44 }
  - { offsetInCU: 0x357B8, offset: 0x357B8, size: 0x8, addend: 0x0, symName: __ZNSt9exceptionC2B8ue170006Ev, symObjAddr: 0xDFE8, symBinAddr: 0x10000EEBC, symSize: 0x24 }
  - { offsetInCU: 0x357E2, offset: 0x357E2, size: 0x8, addend: 0x0, symName: __ZNSt18bad_variant_accessD2Ev, symObjAddr: 0xE00C, symBinAddr: 0x10000EEE0, symSize: 0x2C }
  - { offsetInCU: 0x3580F, offset: 0x3580F, size: 0x8, addend: 0x0, symName: __ZNSt3__116__variant_detail8__access6__base9__get_altB8ue170006ILm2ERKNS0_6__implIJNS_9monostateEbxdNS_12basic_stringIcNS_11char_traitsIcEENS_9allocatorIcEEEENS_8functionIF5ValueRKNS_6vectorISD_NS9_ISD_EEEEEEEEEEEEODaOT0_, symObjAddr: 0xE038, symBinAddr: 0x10000EF0C, symSize: 0x24 }
  - { offsetInCU: 0x35846, offset: 0x35846, size: 0x8, addend: 0x0, symName: __ZNSt3__116__variant_detail8__access7__union9__get_altB8ue170006IRKNS0_7__unionILNS0_6_TraitE1ELm0EJNS_9monostateEbxdNS_12basic_stringIcNS_11char_traitsIcEENS_9allocatorIcEEEENS_8functionIF5ValueRKNS_6vectorISE_NSA_ISE_EEEEEEEEEELm2EEEODaOT_NS_16in_place_index_tIXT0_EEE, symObjAddr: 0xE05C, symBinAddr: 0x10000EF30, symSize: 0x24 }
  - { offsetInCU: 0x35889, offset: 0x35889, size: 0x8, addend: 0x0, symName: __ZNSt3__116__variant_detail8__access7__union9__get_altB8ue170006IRKNS0_7__unionILNS0_6_TraitE1ELm1EJbxdNS_12basic_stringIcNS_11char_traitsIcEENS_9allocatorIcEEEENS_8functionIF5ValueRKNS_6vectorISD_NS9_ISD_EEEEEEEEEELm1EEEODaOT_NS_16in_place_index_tIXT0_EEE, symObjAddr: 0xE080, symBinAddr: 0x10000EF54, symSize: 0x24 }
  - { offsetInCU: 0x358CC, offset: 0x358CC, size: 0x8, addend: 0x0, symName: __ZNSt3__116__variant_detail8__access7__union9__get_altB8ue170006IRKNS0_7__unionILNS0_6_TraitE1ELm2EJxdNS_12basic_stringIcNS_11char_traitsIcEENS_9allocatorIcEEEENS_8functionIF5ValueRKNS_6vectorISD_NS9_ISD_EEEEEEEEEEEEODaOT_NS_16in_place_index_tILm0EEE, symObjAddr: 0xE0A4, symBinAddr: 0x10000EF78, symSize: 0x14 }
  - { offsetInCU: 0x35905, offset: 0x35905, size: 0x8, addend: 0x0, symName: __ZNSt3__18ios_base9precisionB8ue170006El, symObjAddr: 0xE0B8, symBinAddr: 0x10000EF8C, symSize: 0x2C }
  - { offsetInCU: 0x3594B, offset: 0x3594B, size: 0x8, addend: 0x0, symName: __ZNSt3__18ios_base4setfB8ue170006Ejj, symObjAddr: 0xE0E4, symBinAddr: 0x10000EFB8, symSize: 0x5C }
  - { offsetInCU: 0x359A0, offset: 0x359A0, size: 0x8, addend: 0x0, symName: __ZNSt3__18ios_base6unsetfB8ue170006Ej, symObjAddr: 0xE140, symBinAddr: 0x10000F014, symSize: 0x28 }
  - { offsetInCU: 0x359D7, offset: 0x359D7, size: 0x8, addend: 0x0, symName: __ZNSt3__18__iom_t5C1B8ue170006Ei, symObjAddr: 0xE168, symBinAddr: 0x10000F03C, symSize: 0x34 }
  - { offsetInCU: 0x35A0F, offset: 0x35A0F, size: 0x8, addend: 0x0, symName: __ZNSt3__18__iom_t5C2B8ue170006Ei, symObjAddr: 0xE19C, symBinAddr: 0x10000F070, symSize: 0x20 }
  - { offsetInCU: 0x35A51, offset: 0x35A51, size: 0x8, addend: 0x0, symName: __ZNSt3__116__variant_detail8__access9__variant9__get_altB8ue170006ILm3ERKNS_7variantIJNS_9monostateEbxdNS_12basic_stringIcNS_11char_traitsIcEENS_9allocatorIcEEEENS_8functionIF5ValueRKNS_6vectorISD_NS9_ISD_EEEEEEEEEEEEODaOT0_, symObjAddr: 0xE248, symBinAddr: 0x10000F11C, symSize: 0x24 }
  - { offsetInCU: 0x35A88, offset: 0x35A88, size: 0x8, addend: 0x0, symName: __ZNSt3__116__variant_detail8__access6__base9__get_altB8ue170006ILm3ERKNS0_6__implIJNS_9monostateEbxdNS_12basic_stringIcNS_11char_traitsIcEENS_9allocatorIcEEEENS_8functionIF5ValueRKNS_6vectorISD_NS9_ISD_EEEEEEEEEEEEODaOT0_, symObjAddr: 0xE26C, symBinAddr: 0x10000F140, symSize: 0x24 }
  - { offsetInCU: 0x35ABF, offset: 0x35ABF, size: 0x8, addend: 0x0, symName: __ZNSt3__116__variant_detail8__access7__union9__get_altB8ue170006IRKNS0_7__unionILNS0_6_TraitE1ELm0EJNS_9monostateEbxdNS_12basic_stringIcNS_11char_traitsIcEENS_9allocatorIcEEEENS_8functionIF5ValueRKNS_6vectorISE_NSA_ISE_EEEEEEEEEELm3EEEODaOT_NS_16in_place_index_tIXT0_EEE, symObjAddr: 0xE290, symBinAddr: 0x10000F164, symSize: 0x24 }
  - { offsetInCU: 0x35B02, offset: 0x35B02, size: 0x8, addend: 0x0, symName: __ZNSt3__116__variant_detail8__access7__union9__get_altB8ue170006IRKNS0_7__unionILNS0_6_TraitE1ELm1EJbxdNS_12basic_stringIcNS_11char_traitsIcEENS_9allocatorIcEEEENS_8functionIF5ValueRKNS_6vectorISD_NS9_ISD_EEEEEEEEEELm2EEEODaOT_NS_16in_place_index_tIXT0_EEE, symObjAddr: 0xE2B4, symBinAddr: 0x10000F188, symSize: 0x24 }
  - { offsetInCU: 0x35B45, offset: 0x35B45, size: 0x8, addend: 0x0, symName: __ZNSt3__116__variant_detail8__access7__union9__get_altB8ue170006IRKNS0_7__unionILNS0_6_TraitE1ELm2EJxdNS_12basic_stringIcNS_11char_traitsIcEENS_9allocatorIcEEEENS_8functionIF5ValueRKNS_6vectorISD_NS9_ISD_EEEEEEEEEELm1EEEODaOT_NS_16in_place_index_tIXT0_EEE, symObjAddr: 0xE2D8, symBinAddr: 0x10000F1AC, symSize: 0x24 }
  - { offsetInCU: 0x35B88, offset: 0x35B88, size: 0x8, addend: 0x0, symName: __ZNSt3__116__variant_detail8__access7__union9__get_altB8ue170006IRKNS0_7__unionILNS0_6_TraitE1ELm3EJdNS_12basic_stringIcNS_11char_traitsIcEENS_9allocatorIcEEEENS_8functionIF5ValueRKNS_6vectorISD_NS9_ISD_EEEEEEEEEEEEODaOT_NS_16in_place_index_tILm0EEE, symObjAddr: 0xE2FC, symBinAddr: 0x10000F1D0, symSize: 0x14 }
  - { offsetInCU: 0x35BCB, offset: 0x35BCB, size: 0x8, addend: 0x0, symName: __ZNSt3__116__variant_detail8__access9__variant9__get_altB8ue170006ILm4ERKNS_7variantIJNS_9monostateEbxdNS_12basic_stringIcNS_11char_traitsIcEENS_9allocatorIcEEEENS_8functionIF5ValueRKNS_6vectorISD_NS9_ISD_EEEEEEEEEEEEODaOT0_, symObjAddr: 0xE36C, symBinAddr: 0x10000F240, symSize: 0x24 }
  - { offsetInCU: 0x35C02, offset: 0x35C02, size: 0x8, addend: 0x0, symName: __ZNSt3__116__variant_detail8__access6__base9__get_altB8ue170006ILm4ERKNS0_6__implIJNS_9monostateEbxdNS_12basic_stringIcNS_11char_traitsIcEENS_9allocatorIcEEEENS_8functionIF5ValueRKNS_6vectorISD_NS9_ISD_EEEEEEEEEEEEODaOT0_, symObjAddr: 0xE390, symBinAddr: 0x10000F264, symSize: 0x24 }
  - { offsetInCU: 0x35C39, offset: 0x35C39, size: 0x8, addend: 0x0, symName: __ZNSt3__116__variant_detail8__access7__union9__get_altB8ue170006IRKNS0_7__unionILNS0_6_TraitE1ELm0EJNS_9monostateEbxdNS_12basic_stringIcNS_11char_traitsIcEENS_9allocatorIcEEEENS_8functionIF5ValueRKNS_6vectorISE_NSA_ISE_EEEEEEEEEELm4EEEODaOT_NS_16in_place_index_tIXT0_EEE, symObjAddr: 0xE3B4, symBinAddr: 0x10000F288, symSize: 0x24 }
  - { offsetInCU: 0x35C7C, offset: 0x35C7C, size: 0x8, addend: 0x0, symName: __ZNSt3__116__variant_detail8__access7__union9__get_altB8ue170006IRKNS0_7__unionILNS0_6_TraitE1ELm1EJbxdNS_12basic_stringIcNS_11char_traitsIcEENS_9allocatorIcEEEENS_8functionIF5ValueRKNS_6vectorISD_NS9_ISD_EEEEEEEEEELm3EEEODaOT_NS_16in_place_index_tIXT0_EEE, symObjAddr: 0xE3D8, symBinAddr: 0x10000F2AC, symSize: 0x24 }
  - { offsetInCU: 0x35CBF, offset: 0x35CBF, size: 0x8, addend: 0x0, symName: __ZNSt3__116__variant_detail8__access7__union9__get_altB8ue170006IRKNS0_7__unionILNS0_6_TraitE1ELm2EJxdNS_12basic_stringIcNS_11char_traitsIcEENS_9allocatorIcEEEENS_8functionIF5ValueRKNS_6vectorISD_NS9_ISD_EEEEEEEEEELm2EEEODaOT_NS_16in_place_index_tIXT0_EEE, symObjAddr: 0xE3FC, symBinAddr: 0x10000F2D0, symSize: 0x24 }
  - { offsetInCU: 0x35D02, offset: 0x35D02, size: 0x8, addend: 0x0, symName: __ZNSt3__116__variant_detail8__access7__union9__get_altB8ue170006IRKNS0_7__unionILNS0_6_TraitE1ELm3EJdNS_12basic_stringIcNS_11char_traitsIcEENS_9allocatorIcEEEENS_8functionIF5ValueRKNS_6vectorISD_NS9_ISD_EEEEEEEEEELm1EEEODaOT_NS_16in_place_index_tIXT0_EEE, symObjAddr: 0xE420, symBinAddr: 0x10000F2F4, symSize: 0x24 }
  - { offsetInCU: 0x35D45, offset: 0x35D45, size: 0x8, addend: 0x0, symName: __ZNSt3__116__variant_detail8__access7__union9__get_altB8ue170006IRKNS0_7__unionILNS0_6_TraitE1ELm4EJNS_12basic_stringIcNS_11char_traitsIcEENS_9allocatorIcEEEENS_8functionIF5ValueRKNS_6vectorISD_NS9_ISD_EEEEEEEEEEEEODaOT_NS_16in_place_index_tILm0EEE, symObjAddr: 0xE444, symBinAddr: 0x10000F318, symSize: 0x14 }
  - { offsetInCU: 0x35D7E, offset: 0x35D7E, size: 0x8, addend: 0x0, symName: __ZN5ValueC2ERKNSt3__112basic_stringIcNS0_11char_traitsIcEENS0_9allocatorIcEEEE, symObjAddr: 0xE458, symBinAddr: 0x10000F32C, symSize: 0x34 }
  - { offsetInCU: 0x35DB6, offset: 0x35DB6, size: 0x8, addend: 0x0, symName: __ZNSt3__17variantIJNS_9monostateEbxdNS_12basic_stringIcNS_11char_traitsIcEENS_9allocatorIcEEEENS_8functionIF5ValueRKNS_6vectorIS9_NS5_IS9_EEEEEEEEEC1B8ue170006IRKS7_Li0ELi0ELi0ES7_Lm4ELi0EEEOT_, symObjAddr: 0xE48C, symBinAddr: 0x10000F360, symSize: 0x34 }
  - { offsetInCU: 0x35E23, offset: 0x35E23, size: 0x8, addend: 0x0, symName: __ZNSt3__17variantIJNS_9monostateEbxdNS_12basic_stringIcNS_11char_traitsIcEENS_9allocatorIcEEEENS_8functionIF5ValueRKNS_6vectorIS9_NS5_IS9_EEEEEEEEEC2B8ue170006IRKS7_Li0ELi0ELi0ES7_Lm4ELi0EEEOT_, symObjAddr: 0xE4C0, symBinAddr: 0x10000F394, symSize: 0x34 }
  - { offsetInCU: 0x35E90, offset: 0x35E90, size: 0x8, addend: 0x0, symName: __ZNSt3__116__variant_detail6__implIJNS_9monostateEbxdNS_12basic_stringIcNS_11char_traitsIcEENS_9allocatorIcEEEENS_8functionIF5ValueRKNS_6vectorISA_NS6_ISA_EEEEEEEEECI1NS0_6__baseILNS0_6_TraitE1EJS2_bxdS8_SH_EEEILm4EJRKS8_EEENS_16in_place_index_tIXT_EEEDpOT0_, symObjAddr: 0xE4F4, symBinAddr: 0x10000F3C8, symSize: 0x34 }
  - { offsetInCU: 0x35ECF, offset: 0x35ECF, size: 0x8, addend: 0x0, symName: __ZNSt3__116__variant_detail6__implIJNS_9monostateEbxdNS_12basic_stringIcNS_11char_traitsIcEENS_9allocatorIcEEEENS_8functionIF5ValueRKNS_6vectorISA_NS6_ISA_EEEEEEEEECI2NS0_6__baseILNS0_6_TraitE1EJS2_bxdS8_SH_EEEILm4EJRKS8_EEENS_16in_place_index_tIXT_EEEDpOT0_, symObjAddr: 0xE528, symBinAddr: 0x10000F3FC, symSize: 0x34 }
  - { offsetInCU: 0x35F0E, offset: 0x35F0E, size: 0x8, addend: 0x0, symName: __ZNSt3__116__variant_detail17__copy_assignmentINS0_8__traitsIJNS_9monostateEbxdNS_12basic_stringIcNS_11char_traitsIcEENS_9allocatorIcEEEENS_8functionIF5ValueRKNS_6vectorISB_NS7_ISB_EEEEEEEEEELNS0_6_TraitE1EECI2NS0_6__baseILSK_1EJS3_bxdS9_SI_EEEILm4EJRKS9_EEENS_16in_place_index_tIXT_EEEDpOT0_, symObjAddr: 0xE55C, symBinAddr: 0x10000F430, symSize: 0x34 }
  - { offsetInCU: 0x35F4D, offset: 0x35F4D, size: 0x8, addend: 0x0, symName: __ZNSt3__116__variant_detail17__move_assignmentINS0_8__traitsIJNS_9monostateEbxdNS_12basic_stringIcNS_11char_traitsIcEENS_9allocatorIcEEEENS_8functionIF5ValueRKNS_6vectorISB_NS7_ISB_EEEEEEEEEELNS0_6_TraitE1EECI2NS0_6__baseILSK_1EJS3_bxdS9_SI_EEEILm4EJRKS9_EEENS_16in_place_index_tIXT_EEEDpOT0_, symObjAddr: 0xE590, symBinAddr: 0x10000F464, symSize: 0x34 }
  - { offsetInCU: 0x35F91, offset: 0x35F91, size: 0x8, addend: 0x0, symName: __ZNSt3__116__variant_detail12__assignmentINS0_8__traitsIJNS_9monostateEbxdNS_12basic_stringIcNS_11char_traitsIcEENS_9allocatorIcEEEENS_8functionIF5ValueRKNS_6vectorISB_NS7_ISB_EEEEEEEEEEECI2NS0_6__baseILNS0_6_TraitE1EJS3_bxdS9_SI_EEEILm4EJRKS9_EEENS_16in_place_index_tIXT_EEEDpOT0_, symObjAddr: 0xE5C4, symBinAddr: 0x10000F498, symSize: 0x34 }
  - { offsetInCU: 0x35FD0, offset: 0x35FD0, size: 0x8, addend: 0x0, symName: __ZNSt3__116__variant_detail18__copy_constructorINS0_8__traitsIJNS_9monostateEbxdNS_12basic_stringIcNS_11char_traitsIcEENS_9allocatorIcEEEENS_8functionIF5ValueRKNS_6vectorISB_NS7_ISB_EEEEEEEEEELNS0_6_TraitE1EECI2NS0_6__baseILSK_1EJS3_bxdS9_SI_EEEILm4EJRKS9_EEENS_16in_place_index_tIXT_EEEDpOT0_, symObjAddr: 0xE5F8, symBinAddr: 0x10000F4CC, symSize: 0x34 }
  - { offsetInCU: 0x3600F, offset: 0x3600F, size: 0x8, addend: 0x0, symName: __ZNSt3__116__variant_detail18__move_constructorINS0_8__traitsIJNS_9monostateEbxdNS_12basic_stringIcNS_11char_traitsIcEENS_9allocatorIcEEEENS_8functionIF5ValueRKNS_6vectorISB_NS7_ISB_EEEEEEEEEELNS0_6_TraitE1EECI2NS0_6__baseILSK_1EJS3_bxdS9_SI_EEEILm4EJRKS9_EEENS_16in_place_index_tIXT_EEEDpOT0_, symObjAddr: 0xE62C, symBinAddr: 0x10000F500, symSize: 0x34 }
  - { offsetInCU: 0x36053, offset: 0x36053, size: 0x8, addend: 0x0, symName: __ZNSt3__116__variant_detail6__ctorINS0_8__traitsIJNS_9monostateEbxdNS_12basic_stringIcNS_11char_traitsIcEENS_9allocatorIcEEEENS_8functionIF5ValueRKNS_6vectorISB_NS7_ISB_EEEEEEEEEEECI2NS0_6__baseILNS0_6_TraitE1EJS3_bxdS9_SI_EEEILm4EJRKS9_EEENS_16in_place_index_tIXT_EEEDpOT0_, symObjAddr: 0xE660, symBinAddr: 0x10000F534, symSize: 0x34 }
  - { offsetInCU: 0x36092, offset: 0x36092, size: 0x8, addend: 0x0, symName: __ZNSt3__116__variant_detail6__dtorINS0_8__traitsIJNS_9monostateEbxdNS_12basic_stringIcNS_11char_traitsIcEENS_9allocatorIcEEEENS_8functionIF5ValueRKNS_6vectorISB_NS7_ISB_EEEEEEEEEELNS0_6_TraitE1EECI2NS0_6__baseILSK_1EJS3_bxdS9_SI_EEEILm4EJRKS9_EEENS_16in_place_index_tIXT_EEEDpOT0_, symObjAddr: 0xE694, symBinAddr: 0x10000F568, symSize: 0x34 }
  - { offsetInCU: 0x360D1, offset: 0x360D1, size: 0x8, addend: 0x0, symName: __ZNSt3__116__variant_detail6__baseILNS0_6_TraitE1EJNS_9monostateEbxdNS_12basic_stringIcNS_11char_traitsIcEENS_9allocatorIcEEEENS_8functionIF5ValueRKNS_6vectorISB_NS7_ISB_EEEEEEEEEC2B8ue170006ILm4EJRKS9_EEENS_16in_place_index_tIXT_EEEDpOT0_, symObjAddr: 0xE6C8, symBinAddr: 0x10000F59C, symSize: 0x3C }
  - { offsetInCU: 0x3612B, offset: 0x3612B, size: 0x8, addend: 0x0, symName: __ZNSt3__116__variant_detail7__unionILNS0_6_TraitE1ELm0EJNS_9monostateEbxdNS_12basic_stringIcNS_11char_traitsIcEENS_9allocatorIcEEEENS_8functionIF5ValueRKNS_6vectorISB_NS7_ISB_EEEEEEEEEC1B8ue170006ILm4EJRKS9_EEENS_16in_place_index_tIXT_EEEDpOT0_, symObjAddr: 0xE704, symBinAddr: 0x10000F5D8, symSize: 0x34 }
  - { offsetInCU: 0x36185, offset: 0x36185, size: 0x8, addend: 0x0, symName: __ZNSt3__116__variant_detail7__unionILNS0_6_TraitE1ELm0EJNS_9monostateEbxdNS_12basic_stringIcNS_11char_traitsIcEENS_9allocatorIcEEEENS_8functionIF5ValueRKNS_6vectorISB_NS7_ISB_EEEEEEEEEC2B8ue170006ILm4EJRKS9_EEENS_16in_place_index_tIXT_EEEDpOT0_, symObjAddr: 0xE738, symBinAddr: 0x10000F60C, symSize: 0x34 }
  - { offsetInCU: 0x361DF, offset: 0x361DF, size: 0x8, addend: 0x0, symName: __ZNSt3__116__variant_detail7__unionILNS0_6_TraitE1ELm1EJbxdNS_12basic_stringIcNS_11char_traitsIcEENS_9allocatorIcEEEENS_8functionIF5ValueRKNS_6vectorISA_NS6_ISA_EEEEEEEEEC1B8ue170006ILm3EJRKS8_EEENS_16in_place_index_tIXT_EEEDpOT0_, symObjAddr: 0xE76C, symBinAddr: 0x10000F640, symSize: 0x34 }
  - { offsetInCU: 0x36239, offset: 0x36239, size: 0x8, addend: 0x0, symName: __ZNSt3__116__variant_detail7__unionILNS0_6_TraitE1ELm1EJbxdNS_12basic_stringIcNS_11char_traitsIcEENS_9allocatorIcEEEENS_8functionIF5ValueRKNS_6vectorISA_NS6_ISA_EEEEEEEEEC2B8ue170006ILm3EJRKS8_EEENS_16in_place_index_tIXT_EEEDpOT0_, symObjAddr: 0xE7A0, symBinAddr: 0x10000F674, symSize: 0x34 }
  - { offsetInCU: 0x36293, offset: 0x36293, size: 0x8, addend: 0x0, symName: __ZNSt3__116__variant_detail7__unionILNS0_6_TraitE1ELm2EJxdNS_12basic_stringIcNS_11char_traitsIcEENS_9allocatorIcEEEENS_8functionIF5ValueRKNS_6vectorISA_NS6_ISA_EEEEEEEEEC1B8ue170006ILm2EJRKS8_EEENS_16in_place_index_tIXT_EEEDpOT0_, symObjAddr: 0xE7D4, symBinAddr: 0x10000F6A8, symSize: 0x34 }
  - { offsetInCU: 0x362ED, offset: 0x362ED, size: 0x8, addend: 0x0, symName: __ZNSt3__116__variant_detail7__unionILNS0_6_TraitE1ELm2EJxdNS_12basic_stringIcNS_11char_traitsIcEENS_9allocatorIcEEEENS_8functionIF5ValueRKNS_6vectorISA_NS6_ISA_EEEEEEEEEC2B8ue170006ILm2EJRKS8_EEENS_16in_place_index_tIXT_EEEDpOT0_, symObjAddr: 0xE808, symBinAddr: 0x10000F6DC, symSize: 0x34 }
  - { offsetInCU: 0x36347, offset: 0x36347, size: 0x8, addend: 0x0, symName: __ZNSt3__116__variant_detail7__unionILNS0_6_TraitE1ELm3EJdNS_12basic_stringIcNS_11char_traitsIcEENS_9allocatorIcEEEENS_8functionIF5ValueRKNS_6vectorISA_NS6_ISA_EEEEEEEEEC1B8ue170006ILm1EJRKS8_EEENS_16in_place_index_tIXT_EEEDpOT0_, symObjAddr: 0xE83C, symBinAddr: 0x10000F710, symSize: 0x34 }
  - { offsetInCU: 0x363A1, offset: 0x363A1, size: 0x8, addend: 0x0, symName: __ZNSt3__116__variant_detail7__unionILNS0_6_TraitE1ELm3EJdNS_12basic_stringIcNS_11char_traitsIcEENS_9allocatorIcEEEENS_8functionIF5ValueRKNS_6vectorISA_NS6_ISA_EEEEEEEEEC2B8ue170006ILm1EJRKS8_EEENS_16in_place_index_tIXT_EEEDpOT0_, symObjAddr: 0xE870, symBinAddr: 0x10000F744, symSize: 0x34 }
  - { offsetInCU: 0x363FB, offset: 0x363FB, size: 0x8, addend: 0x0, symName: __ZNSt3__116__variant_detail7__unionILNS0_6_TraitE1ELm4EJNS_12basic_stringIcNS_11char_traitsIcEENS_9allocatorIcEEEENS_8functionIF5ValueRKNS_6vectorISA_NS6_ISA_EEEEEEEEEC1B8ue170006IJRKS8_EEENS_16in_place_index_tILm0EEEDpOT_, symObjAddr: 0xE8A4, symBinAddr: 0x10000F778, symSize: 0x34 }
  - { offsetInCU: 0x3644B, offset: 0x3644B, size: 0x8, addend: 0x0, symName: __ZNSt3__116__variant_detail7__unionILNS0_6_TraitE1ELm4EJNS_12basic_stringIcNS_11char_traitsIcEENS_9allocatorIcEEEENS_8functionIF5ValueRKNS_6vectorISA_NS6_ISA_EEEEEEEEEC2B8ue170006IJRKS8_EEENS_16in_place_index_tILm0EEEDpOT_, symObjAddr: 0xE8D8, symBinAddr: 0x10000F7AC, symSize: 0x34 }
  - { offsetInCU: 0x364A0, offset: 0x364A0, size: 0x8, addend: 0x0, symName: __ZNSt3__116__variant_detail5__altILm4ENS_12basic_stringIcNS_11char_traitsIcEENS_9allocatorIcEEEEEC1B8ue170006IJRKS7_EEENS_10in_place_tEDpOT_, symObjAddr: 0xE90C, symBinAddr: 0x10000F7E0, symSize: 0x34 }
  - { offsetInCU: 0x364F0, offset: 0x364F0, size: 0x8, addend: 0x0, symName: __ZNSt3__116__variant_detail5__altILm4ENS_12basic_stringIcNS_11char_traitsIcEENS_9allocatorIcEEEEEC2B8ue170006IJRKS7_EEENS_10in_place_tEDpOT_, symObjAddr: 0xE940, symBinAddr: 0x10000F814, symSize: 0x34 }
  - { offsetInCU: 0x36540, offset: 0x36540, size: 0x8, addend: 0x0, symName: __ZNSt3__118basic_stringstreamIcNS_11char_traitsIcEENS_9allocatorIcEEED2Ev, symObjAddr: 0xE974, symBinAddr: 0x10000F848, symSize: 0x6C }
  - { offsetInCU: 0x3657A, offset: 0x3657A, size: 0x8, addend: 0x0, symName: __ZThn16_NSt3__118basic_stringstreamIcNS_11char_traitsIcEENS_9allocatorIcEEED1Ev, symObjAddr: 0xE9E0, symBinAddr: 0x10000F8B4, symSize: 0x1C }
  - { offsetInCU: 0x36591, offset: 0x36591, size: 0x8, addend: 0x0, symName: __ZTv0_n24_NSt3__118basic_stringstreamIcNS_11char_traitsIcEENS_9allocatorIcEEED1Ev, symObjAddr: 0xE9FC, symBinAddr: 0x10000F8D0, symSize: 0x28 }
  - { offsetInCU: 0x365AD, offset: 0x365AD, size: 0x8, addend: 0x0, symName: __ZNSt3__115basic_stringbufIcNS_11char_traitsIcEENS_9allocatorIcEEED1Ev, symObjAddr: 0xEA24, symBinAddr: 0x10000F8F8, symSize: 0x2C }
  - { offsetInCU: 0x365DA, offset: 0x365DA, size: 0x8, addend: 0x0, symName: __ZNSt3__115basic_stringbufIcNS_11char_traitsIcEENS_9allocatorIcEEED2Ev, symObjAddr: 0xEA50, symBinAddr: 0x10000F924, symSize: 0x48 }
  - { offsetInCU: 0x36607, offset: 0x36607, size: 0x8, addend: 0x0, symName: __ZN5ValueC2Ed, symObjAddr: 0xEAC0, symBinAddr: 0x10000F994, symSize: 0x34 }
  - { offsetInCU: 0x3663F, offset: 0x3663F, size: 0x8, addend: 0x0, symName: __ZNSt3__17variantIJNS_9monostateEbxdNS_12basic_stringIcNS_11char_traitsIcEENS_9allocatorIcEEEENS_8functionIF5ValueRKNS_6vectorIS9_NS5_IS9_EEEEEEEEEC1B8ue170006IRdLi0ELi0ELi0EdLm3ELi0EEEOT_, symObjAddr: 0xEAF4, symBinAddr: 0x10000F9C8, symSize: 0x34 }
  - { offsetInCU: 0x366AC, offset: 0x366AC, size: 0x8, addend: 0x0, symName: __ZNSt3__17variantIJNS_9monostateEbxdNS_12basic_stringIcNS_11char_traitsIcEENS_9allocatorIcEEEENS_8functionIF5ValueRKNS_6vectorIS9_NS5_IS9_EEEEEEEEEC2B8ue170006IRdLi0ELi0ELi0EdLm3ELi0EEEOT_, symObjAddr: 0xEB28, symBinAddr: 0x10000F9FC, symSize: 0x3C }
  - { offsetInCU: 0x36719, offset: 0x36719, size: 0x8, addend: 0x0, symName: __ZNSt3__116__variant_detail6__implIJNS_9monostateEbxdNS_12basic_stringIcNS_11char_traitsIcEENS_9allocatorIcEEEENS_8functionIF5ValueRKNS_6vectorISA_NS6_ISA_EEEEEEEEECI1NS0_6__baseILNS0_6_TraitE1EJS2_bxdS8_SH_EEEILm3EJRdEEENS_16in_place_index_tIXT_EEEDpOT0_, symObjAddr: 0xEB64, symBinAddr: 0x10000FA38, symSize: 0x34 }
  - { offsetInCU: 0x36758, offset: 0x36758, size: 0x8, addend: 0x0, symName: __ZNSt3__116__variant_detail6__implIJNS_9monostateEbxdNS_12basic_stringIcNS_11char_traitsIcEENS_9allocatorIcEEEENS_8functionIF5ValueRKNS_6vectorISA_NS6_ISA_EEEEEEEEECI2NS0_6__baseILNS0_6_TraitE1EJS2_bxdS8_SH_EEEILm3EJRdEEENS_16in_place_index_tIXT_EEEDpOT0_, symObjAddr: 0xEB98, symBinAddr: 0x10000FA6C, symSize: 0x34 }
  - { offsetInCU: 0x36797, offset: 0x36797, size: 0x8, addend: 0x0, symName: __ZNSt3__116__variant_detail17__copy_assignmentINS0_8__traitsIJNS_9monostateEbxdNS_12basic_stringIcNS_11char_traitsIcEENS_9allocatorIcEEEENS_8functionIF5ValueRKNS_6vectorISB_NS7_ISB_EEEEEEEEEELNS0_6_TraitE1EECI2NS0_6__baseILSK_1EJS3_bxdS9_SI_EEEILm3EJRdEEENS_16in_place_index_tIXT_EEEDpOT0_, symObjAddr: 0xEBCC, symBinAddr: 0x10000FAA0, symSize: 0x34 }
  - { offsetInCU: 0x367D6, offset: 0x367D6, size: 0x8, addend: 0x0, symName: __ZNSt3__116__variant_detail17__move_assignmentINS0_8__traitsIJNS_9monostateEbxdNS_12basic_stringIcNS_11char_traitsIcEENS_9allocatorIcEEEENS_8functionIF5ValueRKNS_6vectorISB_NS7_ISB_EEEEEEEEEELNS0_6_TraitE1EECI2NS0_6__baseILSK_1EJS3_bxdS9_SI_EEEILm3EJRdEEENS_16in_place_index_tIXT_EEEDpOT0_, symObjAddr: 0xEC00, symBinAddr: 0x10000FAD4, symSize: 0x34 }
  - { offsetInCU: 0x36815, offset: 0x36815, size: 0x8, addend: 0x0, symName: __ZNSt3__116__variant_detail12__assignmentINS0_8__traitsIJNS_9monostateEbxdNS_12basic_stringIcNS_11char_traitsIcEENS_9allocatorIcEEEENS_8functionIF5ValueRKNS_6vectorISB_NS7_ISB_EEEEEEEEEEECI2NS0_6__baseILNS0_6_TraitE1EJS3_bxdS9_SI_EEEILm3EJRdEEENS_16in_place_index_tIXT_EEEDpOT0_, symObjAddr: 0xEC34, symBinAddr: 0x10000FB08, symSize: 0x34 }
  - { offsetInCU: 0x36854, offset: 0x36854, size: 0x8, addend: 0x0, symName: __ZNSt3__116__variant_detail18__copy_constructorINS0_8__traitsIJNS_9monostateEbxdNS_12basic_stringIcNS_11char_traitsIcEENS_9allocatorIcEEEENS_8functionIF5ValueRKNS_6vectorISB_NS7_ISB_EEEEEEEEEELNS0_6_TraitE1EECI2NS0_6__baseILSK_1EJS3_bxdS9_SI_EEEILm3EJRdEEENS_16in_place_index_tIXT_EEEDpOT0_, symObjAddr: 0xEC68, symBinAddr: 0x10000FB3C, symSize: 0x34 }
  - { offsetInCU: 0x36893, offset: 0x36893, size: 0x8, addend: 0x0, symName: __ZNSt3__116__variant_detail18__move_constructorINS0_8__traitsIJNS_9monostateEbxdNS_12basic_stringIcNS_11char_traitsIcEENS_9allocatorIcEEEENS_8functionIF5ValueRKNS_6vectorISB_NS7_ISB_EEEEEEEEEELNS0_6_TraitE1EECI2NS0_6__baseILSK_1EJS3_bxdS9_SI_EEEILm3EJRdEEENS_16in_place_index_tIXT_EEEDpOT0_, symObjAddr: 0xEC9C, symBinAddr: 0x10000FB70, symSize: 0x34 }
  - { offsetInCU: 0x368D2, offset: 0x368D2, size: 0x8, addend: 0x0, symName: __ZNSt3__116__variant_detail6__ctorINS0_8__traitsIJNS_9monostateEbxdNS_12basic_stringIcNS_11char_traitsIcEENS_9allocatorIcEEEENS_8functionIF5ValueRKNS_6vectorISB_NS7_ISB_EEEEEEEEEEECI2NS0_6__baseILNS0_6_TraitE1EJS3_bxdS9_SI_EEEILm3EJRdEEENS_16in_place_index_tIXT_EEEDpOT0_, symObjAddr: 0xECD0, symBinAddr: 0x10000FBA4, symSize: 0x34 }
  - { offsetInCU: 0x36911, offset: 0x36911, size: 0x8, addend: 0x0, symName: __ZNSt3__116__variant_detail6__dtorINS0_8__traitsIJNS_9monostateEbxdNS_12basic_stringIcNS_11char_traitsIcEENS_9allocatorIcEEEENS_8functionIF5ValueRKNS_6vectorISB_NS7_ISB_EEEEEEEEEELNS0_6_TraitE1EECI2NS0_6__baseILSK_1EJS3_bxdS9_SI_EEEILm3EJRdEEENS_16in_place_index_tIXT_EEEDpOT0_, symObjAddr: 0xED04, symBinAddr: 0x10000FBD8, symSize: 0x34 }
  - { offsetInCU: 0x36950, offset: 0x36950, size: 0x8, addend: 0x0, symName: __ZNSt3__116__variant_detail6__baseILNS0_6_TraitE1EJNS_9monostateEbxdNS_12basic_stringIcNS_11char_traitsIcEENS_9allocatorIcEEEENS_8functionIF5ValueRKNS_6vectorISB_NS7_ISB_EEEEEEEEEC2B8ue170006ILm3EJRdEEENS_16in_place_index_tIXT_EEEDpOT0_, symObjAddr: 0xED38, symBinAddr: 0x10000FC0C, symSize: 0x3C }
  - { offsetInCU: 0x369AA, offset: 0x369AA, size: 0x8, addend: 0x0, symName: __ZNSt3__116__variant_detail7__unionILNS0_6_TraitE1ELm0EJNS_9monostateEbxdNS_12basic_stringIcNS_11char_traitsIcEENS_9allocatorIcEEEENS_8functionIF5ValueRKNS_6vectorISB_NS7_ISB_EEEEEEEEEC1B8ue170006ILm3EJRdEEENS_16in_place_index_tIXT_EEEDpOT0_, symObjAddr: 0xED74, symBinAddr: 0x10000FC48, symSize: 0x34 }
  - { offsetInCU: 0x36A04, offset: 0x36A04, size: 0x8, addend: 0x0, symName: __ZNSt3__116__variant_detail7__unionILNS0_6_TraitE1ELm0EJNS_9monostateEbxdNS_12basic_stringIcNS_11char_traitsIcEENS_9allocatorIcEEEENS_8functionIF5ValueRKNS_6vectorISB_NS7_ISB_EEEEEEEEEC2B8ue170006ILm3EJRdEEENS_16in_place_index_tIXT_EEEDpOT0_, symObjAddr: 0xEDA8, symBinAddr: 0x10000FC7C, symSize: 0x34 }
  - { offsetInCU: 0x36A5E, offset: 0x36A5E, size: 0x8, addend: 0x0, symName: __ZNSt3__116__variant_detail7__unionILNS0_6_TraitE1ELm1EJbxdNS_12basic_stringIcNS_11char_traitsIcEENS_9allocatorIcEEEENS_8functionIF5ValueRKNS_6vectorISA_NS6_ISA_EEEEEEEEEC1B8ue170006ILm2EJRdEEENS_16in_place_index_tIXT_EEEDpOT0_, symObjAddr: 0xEDDC, symBinAddr: 0x10000FCB0, symSize: 0x34 }
  - { offsetInCU: 0x36AB8, offset: 0x36AB8, size: 0x8, addend: 0x0, symName: __ZNSt3__116__variant_detail7__unionILNS0_6_TraitE1ELm1EJbxdNS_12basic_stringIcNS_11char_traitsIcEENS_9allocatorIcEEEENS_8functionIF5ValueRKNS_6vectorISA_NS6_ISA_EEEEEEEEEC2B8ue170006ILm2EJRdEEENS_16in_place_index_tIXT_EEEDpOT0_, symObjAddr: 0xEE10, symBinAddr: 0x10000FCE4, symSize: 0x34 }
  - { offsetInCU: 0x36B12, offset: 0x36B12, size: 0x8, addend: 0x0, symName: __ZNSt3__116__variant_detail7__unionILNS0_6_TraitE1ELm2EJxdNS_12basic_stringIcNS_11char_traitsIcEENS_9allocatorIcEEEENS_8functionIF5ValueRKNS_6vectorISA_NS6_ISA_EEEEEEEEEC1B8ue170006ILm1EJRdEEENS_16in_place_index_tIXT_EEEDpOT0_, symObjAddr: 0xEE44, symBinAddr: 0x10000FD18, symSize: 0x34 }
  - { offsetInCU: 0x36B6C, offset: 0x36B6C, size: 0x8, addend: 0x0, symName: __ZNSt3__116__variant_detail7__unionILNS0_6_TraitE1ELm2EJxdNS_12basic_stringIcNS_11char_traitsIcEENS_9allocatorIcEEEENS_8functionIF5ValueRKNS_6vectorISA_NS6_ISA_EEEEEEEEEC2B8ue170006ILm1EJRdEEENS_16in_place_index_tIXT_EEEDpOT0_, symObjAddr: 0xEE78, symBinAddr: 0x10000FD4C, symSize: 0x34 }
  - { offsetInCU: 0x36BC6, offset: 0x36BC6, size: 0x8, addend: 0x0, symName: __ZNSt3__116__variant_detail7__unionILNS0_6_TraitE1ELm3EJdNS_12basic_stringIcNS_11char_traitsIcEENS_9allocatorIcEEEENS_8functionIF5ValueRKNS_6vectorISA_NS6_ISA_EEEEEEEEEC1B8ue170006IJRdEEENS_16in_place_index_tILm0EEEDpOT_, symObjAddr: 0xEEAC, symBinAddr: 0x10000FD80, symSize: 0x34 }
  - { offsetInCU: 0x36C16, offset: 0x36C16, size: 0x8, addend: 0x0, symName: __ZNSt3__116__variant_detail7__unionILNS0_6_TraitE1ELm3EJdNS_12basic_stringIcNS_11char_traitsIcEENS_9allocatorIcEEEENS_8functionIF5ValueRKNS_6vectorISA_NS6_ISA_EEEEEEEEEC2B8ue170006IJRdEEENS_16in_place_index_tILm0EEEDpOT_, symObjAddr: 0xEEE0, symBinAddr: 0x10000FDB4, symSize: 0x34 }
  - { offsetInCU: 0x36C6B, offset: 0x36C6B, size: 0x8, addend: 0x0, symName: __ZNSt3__116__variant_detail5__altILm3EdEC1B8ue170006IJRdEEENS_10in_place_tEDpOT_, symObjAddr: 0xEF14, symBinAddr: 0x10000FDE8, symSize: 0x34 }
  - { offsetInCU: 0x36CBB, offset: 0x36CBB, size: 0x8, addend: 0x0, symName: __ZNSt3__116__variant_detail5__altILm3EdEC2B8ue170006IJRdEEENS_10in_place_tEDpOT_, symObjAddr: 0xEF48, symBinAddr: 0x10000FE1C, symSize: 0x24 }
  - { offsetInCU: 0x36D0B, offset: 0x36D0B, size: 0x8, addend: 0x0, symName: __ZN5ValueC2Ex, symObjAddr: 0xEF6C, symBinAddr: 0x10000FE40, symSize: 0x38 }
  - { offsetInCU: 0x36D43, offset: 0x36D43, size: 0x8, addend: 0x0, symName: __ZNSt3__17variantIJNS_9monostateEbxdNS_12basic_stringIcNS_11char_traitsIcEENS_9allocatorIcEEEENS_8functionIF5ValueRKNS_6vectorIS9_NS5_IS9_EEEEEEEEEC1B8ue170006IRxLi0ELi0ELi0ExLm2ELi0EEEOT_, symObjAddr: 0xEFA4, symBinAddr: 0x10000FE78, symSize: 0x34 }
  - { offsetInCU: 0x36DB0, offset: 0x36DB0, size: 0x8, addend: 0x0, symName: __ZNSt3__17variantIJNS_9monostateEbxdNS_12basic_stringIcNS_11char_traitsIcEENS_9allocatorIcEEEENS_8functionIF5ValueRKNS_6vectorIS9_NS5_IS9_EEEEEEEEEC2B8ue170006IRxLi0ELi0ELi0ExLm2ELi0EEEOT_, symObjAddr: 0xEFD8, symBinAddr: 0x10000FEAC, symSize: 0x3C }
  - { offsetInCU: 0x36E1D, offset: 0x36E1D, size: 0x8, addend: 0x0, symName: __ZNSt3__116__variant_detail6__implIJNS_9monostateEbxdNS_12basic_stringIcNS_11char_traitsIcEENS_9allocatorIcEEEENS_8functionIF5ValueRKNS_6vectorISA_NS6_ISA_EEEEEEEEECI1NS0_6__baseILNS0_6_TraitE1EJS2_bxdS8_SH_EEEILm2EJRxEEENS_16in_place_index_tIXT_EEEDpOT0_, symObjAddr: 0xF014, symBinAddr: 0x10000FEE8, symSize: 0x34 }
  - { offsetInCU: 0x36E5C, offset: 0x36E5C, size: 0x8, addend: 0x0, symName: __ZNSt3__116__variant_detail6__implIJNS_9monostateEbxdNS_12basic_stringIcNS_11char_traitsIcEENS_9allocatorIcEEEENS_8functionIF5ValueRKNS_6vectorISA_NS6_ISA_EEEEEEEEECI2NS0_6__baseILNS0_6_TraitE1EJS2_bxdS8_SH_EEEILm2EJRxEEENS_16in_place_index_tIXT_EEEDpOT0_, symObjAddr: 0xF048, symBinAddr: 0x10000FF1C, symSize: 0x34 }
  - { offsetInCU: 0x36E9B, offset: 0x36E9B, size: 0x8, addend: 0x0, symName: __ZNSt3__116__variant_detail17__copy_assignmentINS0_8__traitsIJNS_9monostateEbxdNS_12basic_stringIcNS_11char_traitsIcEENS_9allocatorIcEEEENS_8functionIF5ValueRKNS_6vectorISB_NS7_ISB_EEEEEEEEEELNS0_6_TraitE1EECI2NS0_6__baseILSK_1EJS3_bxdS9_SI_EEEILm2EJRxEEENS_16in_place_index_tIXT_EEEDpOT0_, symObjAddr: 0xF07C, symBinAddr: 0x10000FF50, symSize: 0x34 }
  - { offsetInCU: 0x36EDA, offset: 0x36EDA, size: 0x8, addend: 0x0, symName: __ZNSt3__116__variant_detail17__move_assignmentINS0_8__traitsIJNS_9monostateEbxdNS_12basic_stringIcNS_11char_traitsIcEENS_9allocatorIcEEEENS_8functionIF5ValueRKNS_6vectorISB_NS7_ISB_EEEEEEEEEELNS0_6_TraitE1EECI2NS0_6__baseILSK_1EJS3_bxdS9_SI_EEEILm2EJRxEEENS_16in_place_index_tIXT_EEEDpOT0_, symObjAddr: 0xF0B0, symBinAddr: 0x10000FF84, symSize: 0x34 }
  - { offsetInCU: 0x36F19, offset: 0x36F19, size: 0x8, addend: 0x0, symName: __ZNSt3__116__variant_detail12__assignmentINS0_8__traitsIJNS_9monostateEbxdNS_12basic_stringIcNS_11char_traitsIcEENS_9allocatorIcEEEENS_8functionIF5ValueRKNS_6vectorISB_NS7_ISB_EEEEEEEEEEECI2NS0_6__baseILNS0_6_TraitE1EJS3_bxdS9_SI_EEEILm2EJRxEEENS_16in_place_index_tIXT_EEEDpOT0_, symObjAddr: 0xF0E4, symBinAddr: 0x10000FFB8, symSize: 0x34 }
  - { offsetInCU: 0x36F58, offset: 0x36F58, size: 0x8, addend: 0x0, symName: __ZNSt3__116__variant_detail18__copy_constructorINS0_8__traitsIJNS_9monostateEbxdNS_12basic_stringIcNS_11char_traitsIcEENS_9allocatorIcEEEENS_8functionIF5ValueRKNS_6vectorISB_NS7_ISB_EEEEEEEEEELNS0_6_TraitE1EECI2NS0_6__baseILSK_1EJS3_bxdS9_SI_EEEILm2EJRxEEENS_16in_place_index_tIXT_EEEDpOT0_, symObjAddr: 0xF118, symBinAddr: 0x10000FFEC, symSize: 0x34 }
  - { offsetInCU: 0x36F97, offset: 0x36F97, size: 0x8, addend: 0x0, symName: __ZNSt3__116__variant_detail18__move_constructorINS0_8__traitsIJNS_9monostateEbxdNS_12basic_stringIcNS_11char_traitsIcEENS_9allocatorIcEEEENS_8functionIF5ValueRKNS_6vectorISB_NS7_ISB_EEEEEEEEEELNS0_6_TraitE1EECI2NS0_6__baseILSK_1EJS3_bxdS9_SI_EEEILm2EJRxEEENS_16in_place_index_tIXT_EEEDpOT0_, symObjAddr: 0xF14C, symBinAddr: 0x100010020, symSize: 0x34 }
  - { offsetInCU: 0x36FD6, offset: 0x36FD6, size: 0x8, addend: 0x0, symName: __ZNSt3__116__variant_detail6__ctorINS0_8__traitsIJNS_9monostateEbxdNS_12basic_stringIcNS_11char_traitsIcEENS_9allocatorIcEEEENS_8functionIF5ValueRKNS_6vectorISB_NS7_ISB_EEEEEEEEEEECI2NS0_6__baseILNS0_6_TraitE1EJS3_bxdS9_SI_EEEILm2EJRxEEENS_16in_place_index_tIXT_EEEDpOT0_, symObjAddr: 0xF180, symBinAddr: 0x100010054, symSize: 0x34 }
  - { offsetInCU: 0x37015, offset: 0x37015, size: 0x8, addend: 0x0, symName: __ZNSt3__116__variant_detail6__dtorINS0_8__traitsIJNS_9monostateEbxdNS_12basic_stringIcNS_11char_traitsIcEENS_9allocatorIcEEEENS_8functionIF5ValueRKNS_6vectorISB_NS7_ISB_EEEEEEEEEELNS0_6_TraitE1EECI2NS0_6__baseILSK_1EJS3_bxdS9_SI_EEEILm2EJRxEEENS_16in_place_index_tIXT_EEEDpOT0_, symObjAddr: 0xF1B4, symBinAddr: 0x100010088, symSize: 0x34 }
  - { offsetInCU: 0x37054, offset: 0x37054, size: 0x8, addend: 0x0, symName: __ZNSt3__116__variant_detail6__baseILNS0_6_TraitE1EJNS_9monostateEbxdNS_12basic_stringIcNS_11char_traitsIcEENS_9allocatorIcEEEENS_8functionIF5ValueRKNS_6vectorISB_NS7_ISB_EEEEEEEEEC2B8ue170006ILm2EJRxEEENS_16in_place_index_tIXT_EEEDpOT0_, symObjAddr: 0xF1E8, symBinAddr: 0x1000100BC, symSize: 0x3C }
  - { offsetInCU: 0x370AE, offset: 0x370AE, size: 0x8, addend: 0x0, symName: __ZNSt3__116__variant_detail7__unionILNS0_6_TraitE1ELm0EJNS_9monostateEbxdNS_12basic_stringIcNS_11char_traitsIcEENS_9allocatorIcEEEENS_8functionIF5ValueRKNS_6vectorISB_NS7_ISB_EEEEEEEEEC1B8ue170006ILm2EJRxEEENS_16in_place_index_tIXT_EEEDpOT0_, symObjAddr: 0xF224, symBinAddr: 0x1000100F8, symSize: 0x34 }
  - { offsetInCU: 0x37108, offset: 0x37108, size: 0x8, addend: 0x0, symName: __ZNSt3__116__variant_detail7__unionILNS0_6_TraitE1ELm0EJNS_9monostateEbxdNS_12basic_stringIcNS_11char_traitsIcEENS_9allocatorIcEEEENS_8functionIF5ValueRKNS_6vectorISB_NS7_ISB_EEEEEEEEEC2B8ue170006ILm2EJRxEEENS_16in_place_index_tIXT_EEEDpOT0_, symObjAddr: 0xF258, symBinAddr: 0x10001012C, symSize: 0x34 }
  - { offsetInCU: 0x37162, offset: 0x37162, size: 0x8, addend: 0x0, symName: __ZNSt3__116__variant_detail7__unionILNS0_6_TraitE1ELm1EJbxdNS_12basic_stringIcNS_11char_traitsIcEENS_9allocatorIcEEEENS_8functionIF5ValueRKNS_6vectorISA_NS6_ISA_EEEEEEEEEC1B8ue170006ILm1EJRxEEENS_16in_place_index_tIXT_EEEDpOT0_, symObjAddr: 0xF28C, symBinAddr: 0x100010160, symSize: 0x34 }
  - { offsetInCU: 0x371BC, offset: 0x371BC, size: 0x8, addend: 0x0, symName: __ZNSt3__116__variant_detail7__unionILNS0_6_TraitE1ELm1EJbxdNS_12basic_stringIcNS_11char_traitsIcEENS_9allocatorIcEEEENS_8functionIF5ValueRKNS_6vectorISA_NS6_ISA_EEEEEEEEEC2B8ue170006ILm1EJRxEEENS_16in_place_index_tIXT_EEEDpOT0_, symObjAddr: 0xF2C0, symBinAddr: 0x100010194, symSize: 0x34 }
  - { offsetInCU: 0x37216, offset: 0x37216, size: 0x8, addend: 0x0, symName: __ZNSt3__116__variant_detail7__unionILNS0_6_TraitE1ELm2EJxdNS_12basic_stringIcNS_11char_traitsIcEENS_9allocatorIcEEEENS_8functionIF5ValueRKNS_6vectorISA_NS6_ISA_EEEEEEEEEC1B8ue170006IJRxEEENS_16in_place_index_tILm0EEEDpOT_, symObjAddr: 0xF2F4, symBinAddr: 0x1000101C8, symSize: 0x34 }
  - { offsetInCU: 0x37266, offset: 0x37266, size: 0x8, addend: 0x0, symName: __ZNSt3__116__variant_detail7__unionILNS0_6_TraitE1ELm2EJxdNS_12basic_stringIcNS_11char_traitsIcEENS_9allocatorIcEEEENS_8functionIF5ValueRKNS_6vectorISA_NS6_ISA_EEEEEEEEEC2B8ue170006IJRxEEENS_16in_place_index_tILm0EEEDpOT_, symObjAddr: 0xF328, symBinAddr: 0x1000101FC, symSize: 0x34 }
  - { offsetInCU: 0x372BB, offset: 0x372BB, size: 0x8, addend: 0x0, symName: __ZNSt3__116__variant_detail5__altILm2ExEC1B8ue170006IJRxEEENS_10in_place_tEDpOT_, symObjAddr: 0xF35C, symBinAddr: 0x100010230, symSize: 0x34 }
  - { offsetInCU: 0x3730B, offset: 0x3730B, size: 0x8, addend: 0x0, symName: __ZNSt3__116__variant_detail5__altILm2ExEC2B8ue170006IJRxEEENS_10in_place_tEDpOT_, symObjAddr: 0xF390, symBinAddr: 0x100010264, symSize: 0x24 }
  - { offsetInCU: 0x3735B, offset: 0x3735B, size: 0x8, addend: 0x0, symName: __ZN5ValueC2Eb, symObjAddr: 0xF40C, symBinAddr: 0x1000102E0, symSize: 0x38 }
  - { offsetInCU: 0x37393, offset: 0x37393, size: 0x8, addend: 0x0, symName: __ZNSt3__17variantIJNS_9monostateEbxdNS_12basic_stringIcNS_11char_traitsIcEENS_9allocatorIcEEEENS_8functionIF5ValueRKNS_6vectorIS9_NS5_IS9_EEEEEEEEEC1B8ue170006IRbLi0ELi0ELi0EbLm1ELi0EEEOT_, symObjAddr: 0xF444, symBinAddr: 0x100010318, symSize: 0x34 }
  - { offsetInCU: 0x37400, offset: 0x37400, size: 0x8, addend: 0x0, symName: __ZNSt3__17variantIJNS_9monostateEbxdNS_12basic_stringIcNS_11char_traitsIcEENS_9allocatorIcEEEENS_8functionIF5ValueRKNS_6vectorIS9_NS5_IS9_EEEEEEEEEC2B8ue170006IRbLi0ELi0ELi0EbLm1ELi0EEEOT_, symObjAddr: 0xF478, symBinAddr: 0x10001034C, symSize: 0x3C }
  - { offsetInCU: 0x3746D, offset: 0x3746D, size: 0x8, addend: 0x0, symName: __ZNSt3__116__variant_detail6__implIJNS_9monostateEbxdNS_12basic_stringIcNS_11char_traitsIcEENS_9allocatorIcEEEENS_8functionIF5ValueRKNS_6vectorISA_NS6_ISA_EEEEEEEEECI1NS0_6__baseILNS0_6_TraitE1EJS2_bxdS8_SH_EEEILm1EJRbEEENS_16in_place_index_tIXT_EEEDpOT0_, symObjAddr: 0xF4B4, symBinAddr: 0x100010388, symSize: 0x34 }
  - { offsetInCU: 0x374AC, offset: 0x374AC, size: 0x8, addend: 0x0, symName: __ZNSt3__116__variant_detail6__implIJNS_9monostateEbxdNS_12basic_stringIcNS_11char_traitsIcEENS_9allocatorIcEEEENS_8functionIF5ValueRKNS_6vectorISA_NS6_ISA_EEEEEEEEECI2NS0_6__baseILNS0_6_TraitE1EJS2_bxdS8_SH_EEEILm1EJRbEEENS_16in_place_index_tIXT_EEEDpOT0_, symObjAddr: 0xF4E8, symBinAddr: 0x1000103BC, symSize: 0x34 }
  - { offsetInCU: 0x374EB, offset: 0x374EB, size: 0x8, addend: 0x0, symName: __ZNSt3__116__variant_detail17__copy_assignmentINS0_8__traitsIJNS_9monostateEbxdNS_12basic_stringIcNS_11char_traitsIcEENS_9allocatorIcEEEENS_8functionIF5ValueRKNS_6vectorISB_NS7_ISB_EEEEEEEEEELNS0_6_TraitE1EECI2NS0_6__baseILSK_1EJS3_bxdS9_SI_EEEILm1EJRbEEENS_16in_place_index_tIXT_EEEDpOT0_, symObjAddr: 0xF51C, symBinAddr: 0x1000103F0, symSize: 0x34 }
  - { offsetInCU: 0x3752A, offset: 0x3752A, size: 0x8, addend: 0x0, symName: __ZNSt3__116__variant_detail17__move_assignmentINS0_8__traitsIJNS_9monostateEbxdNS_12basic_stringIcNS_11char_traitsIcEENS_9allocatorIcEEEENS_8functionIF5ValueRKNS_6vectorISB_NS7_ISB_EEEEEEEEEELNS0_6_TraitE1EECI2NS0_6__baseILSK_1EJS3_bxdS9_SI_EEEILm1EJRbEEENS_16in_place_index_tIXT_EEEDpOT0_, symObjAddr: 0xF550, symBinAddr: 0x100010424, symSize: 0x34 }
  - { offsetInCU: 0x37569, offset: 0x37569, size: 0x8, addend: 0x0, symName: __ZNSt3__116__variant_detail12__assignmentINS0_8__traitsIJNS_9monostateEbxdNS_12basic_stringIcNS_11char_traitsIcEENS_9allocatorIcEEEENS_8functionIF5ValueRKNS_6vectorISB_NS7_ISB_EEEEEEEEEEECI2NS0_6__baseILNS0_6_TraitE1EJS3_bxdS9_SI_EEEILm1EJRbEEENS_16in_place_index_tIXT_EEEDpOT0_, symObjAddr: 0xF584, symBinAddr: 0x100010458, symSize: 0x34 }
  - { offsetInCU: 0x375A8, offset: 0x375A8, size: 0x8, addend: 0x0, symName: __ZNSt3__116__variant_detail18__copy_constructorINS0_8__traitsIJNS_9monostateEbxdNS_12basic_stringIcNS_11char_traitsIcEENS_9allocatorIcEEEENS_8functionIF5ValueRKNS_6vectorISB_NS7_ISB_EEEEEEEEEELNS0_6_TraitE1EECI2NS0_6__baseILSK_1EJS3_bxdS9_SI_EEEILm1EJRbEEENS_16in_place_index_tIXT_EEEDpOT0_, symObjAddr: 0xF5B8, symBinAddr: 0x10001048C, symSize: 0x34 }
  - { offsetInCU: 0x375E7, offset: 0x375E7, size: 0x8, addend: 0x0, symName: __ZNSt3__116__variant_detail18__move_constructorINS0_8__traitsIJNS_9monostateEbxdNS_12basic_stringIcNS_11char_traitsIcEENS_9allocatorIcEEEENS_8functionIF5ValueRKNS_6vectorISB_NS7_ISB_EEEEEEEEEELNS0_6_TraitE1EECI2NS0_6__baseILSK_1EJS3_bxdS9_SI_EEEILm1EJRbEEENS_16in_place_index_tIXT_EEEDpOT0_, symObjAddr: 0xF5EC, symBinAddr: 0x1000104C0, symSize: 0x34 }
  - { offsetInCU: 0x37626, offset: 0x37626, size: 0x8, addend: 0x0, symName: __ZNSt3__116__variant_detail6__ctorINS0_8__traitsIJNS_9monostateEbxdNS_12basic_stringIcNS_11char_traitsIcEENS_9allocatorIcEEEENS_8functionIF5ValueRKNS_6vectorISB_NS7_ISB_EEEEEEEEEEECI2NS0_6__baseILNS0_6_TraitE1EJS3_bxdS9_SI_EEEILm1EJRbEEENS_16in_place_index_tIXT_EEEDpOT0_, symObjAddr: 0xF620, symBinAddr: 0x1000104F4, symSize: 0x34 }
  - { offsetInCU: 0x37665, offset: 0x37665, size: 0x8, addend: 0x0, symName: __ZNSt3__116__variant_detail6__dtorINS0_8__traitsIJNS_9monostateEbxdNS_12basic_stringIcNS_11char_traitsIcEENS_9allocatorIcEEEENS_8functionIF5ValueRKNS_6vectorISB_NS7_ISB_EEEEEEEEEELNS0_6_TraitE1EECI2NS0_6__baseILSK_1EJS3_bxdS9_SI_EEEILm1EJRbEEENS_16in_place_index_tIXT_EEEDpOT0_, symObjAddr: 0xF654, symBinAddr: 0x100010528, symSize: 0x34 }
  - { offsetInCU: 0x376A4, offset: 0x376A4, size: 0x8, addend: 0x0, symName: __ZNSt3__116__variant_detail6__baseILNS0_6_TraitE1EJNS_9monostateEbxdNS_12basic_stringIcNS_11char_traitsIcEENS_9allocatorIcEEEENS_8functionIF5ValueRKNS_6vectorISB_NS7_ISB_EEEEEEEEEC2B8ue170006ILm1EJRbEEENS_16in_place_index_tIXT_EEEDpOT0_, symObjAddr: 0xF688, symBinAddr: 0x10001055C, symSize: 0x3C }
  - { offsetInCU: 0x376FE, offset: 0x376FE, size: 0x8, addend: 0x0, symName: __ZNSt3__116__variant_detail7__unionILNS0_6_TraitE1ELm0EJNS_9monostateEbxdNS_12basic_stringIcNS_11char_traitsIcEENS_9allocatorIcEEEENS_8functionIF5ValueRKNS_6vectorISB_NS7_ISB_EEEEEEEEEC1B8ue170006ILm1EJRbEEENS_16in_place_index_tIXT_EEEDpOT0_, symObjAddr: 0xF6C4, symBinAddr: 0x100010598, symSize: 0x34 }
  - { offsetInCU: 0x37758, offset: 0x37758, size: 0x8, addend: 0x0, symName: __ZNSt3__116__variant_detail7__unionILNS0_6_TraitE1ELm0EJNS_9monostateEbxdNS_12basic_stringIcNS_11char_traitsIcEENS_9allocatorIcEEEENS_8functionIF5ValueRKNS_6vectorISB_NS7_ISB_EEEEEEEEEC2B8ue170006ILm1EJRbEEENS_16in_place_index_tIXT_EEEDpOT0_, symObjAddr: 0xF6F8, symBinAddr: 0x1000105CC, symSize: 0x34 }
  - { offsetInCU: 0x377B2, offset: 0x377B2, size: 0x8, addend: 0x0, symName: __ZNSt3__116__variant_detail7__unionILNS0_6_TraitE1ELm1EJbxdNS_12basic_stringIcNS_11char_traitsIcEENS_9allocatorIcEEEENS_8functionIF5ValueRKNS_6vectorISA_NS6_ISA_EEEEEEEEEC1B8ue170006IJRbEEENS_16in_place_index_tILm0EEEDpOT_, symObjAddr: 0xF72C, symBinAddr: 0x100010600, symSize: 0x34 }
  - { offsetInCU: 0x37802, offset: 0x37802, size: 0x8, addend: 0x0, symName: __ZNSt3__116__variant_detail7__unionILNS0_6_TraitE1ELm1EJbxdNS_12basic_stringIcNS_11char_traitsIcEENS_9allocatorIcEEEENS_8functionIF5ValueRKNS_6vectorISA_NS6_ISA_EEEEEEEEEC2B8ue170006IJRbEEENS_16in_place_index_tILm0EEEDpOT_, symObjAddr: 0xF760, symBinAddr: 0x100010634, symSize: 0x34 }
  - { offsetInCU: 0x37857, offset: 0x37857, size: 0x8, addend: 0x0, symName: __ZNSt3__116__variant_detail5__altILm1EbEC1B8ue170006IJRbEEENS_10in_place_tEDpOT_, symObjAddr: 0xF794, symBinAddr: 0x100010668, symSize: 0x34 }
  - { offsetInCU: 0x378A7, offset: 0x378A7, size: 0x8, addend: 0x0, symName: __ZNSt3__116__variant_detail5__altILm1EbEC2B8ue170006IJRbEEENS_10in_place_tEDpOT_, symObjAddr: 0xF7C8, symBinAddr: 0x10001069C, symSize: 0x28 }
  - { offsetInCU: 0x37901, offset: 0x37901, size: 0x8, addend: 0x0, symName: __ZNSt3__116__variant_detail8__access9__variant9__get_altB8ue170006ILm1ERKNS_7variantIJNS_9monostateEbxdNS_12basic_stringIcNS_11char_traitsIcEENS_9allocatorIcEEEENS_8functionIF5ValueRKNS_6vectorISD_NS9_ISD_EEEEEEEEEEEEODaOT0_, symObjAddr: 0xF8A4, symBinAddr: 0x100010778, symSize: 0x24 }
  - { offsetInCU: 0x37938, offset: 0x37938, size: 0x8, addend: 0x0, symName: __ZNSt3__116__variant_detail8__access6__base9__get_altB8ue170006ILm1ERKNS0_6__implIJNS_9monostateEbxdNS_12basic_stringIcNS_11char_traitsIcEENS_9allocatorIcEEEENS_8functionIF5ValueRKNS_6vectorISD_NS9_ISD_EEEEEEEEEEEEODaOT0_, symObjAddr: 0xF8C8, symBinAddr: 0x10001079C, symSize: 0x24 }
  - { offsetInCU: 0x3796F, offset: 0x3796F, size: 0x8, addend: 0x0, symName: __ZNSt3__116__variant_detail8__access7__union9__get_altB8ue170006IRKNS0_7__unionILNS0_6_TraitE1ELm0EJNS_9monostateEbxdNS_12basic_stringIcNS_11char_traitsIcEENS_9allocatorIcEEEENS_8functionIF5ValueRKNS_6vectorISE_NSA_ISE_EEEEEEEEEELm1EEEODaOT_NS_16in_place_index_tIXT0_EEE, symObjAddr: 0xF8EC, symBinAddr: 0x1000107C0, symSize: 0x24 }
  - { offsetInCU: 0x379B2, offset: 0x379B2, size: 0x8, addend: 0x0, symName: __ZNSt3__116__variant_detail8__access7__union9__get_altB8ue170006IRKNS0_7__unionILNS0_6_TraitE1ELm1EJbxdNS_12basic_stringIcNS_11char_traitsIcEENS_9allocatorIcEEEENS_8functionIF5ValueRKNS_6vectorISD_NS9_ISD_EEEEEEEEEEEEODaOT_NS_16in_place_index_tILm0EEE, symObjAddr: 0xF910, symBinAddr: 0x1000107E4, symSize: 0x14 }
  - { offsetInCU: 0x379F0, offset: 0x379F0, size: 0x8, addend: 0x0, symName: __ZNSt3__116__variant_detail8__access9__variant9__get_altB8ue170006ILm1ENS_7variantIJNS_9monostateEbxdNS_12basic_stringIcNS_11char_traitsIcEENS_9allocatorIcEEEENS_8functionIF5ValueRKNS_6vectorISD_NS9_ISD_EEEEEEEEEEEEODaOT0_, symObjAddr: 0xF980, symBinAddr: 0x100010854, symSize: 0x24 }
  - { offsetInCU: 0x37A27, offset: 0x37A27, size: 0x8, addend: 0x0, symName: __ZNSt3__116__variant_detail8__access6__base9__get_altB8ue170006ILm1ENS0_6__implIJNS_9monostateEbxdNS_12basic_stringIcNS_11char_traitsIcEENS_9allocatorIcEEEENS_8functionIF5ValueRKNS_6vectorISD_NS9_ISD_EEEEEEEEEEEEODaOT0_, symObjAddr: 0xF9A4, symBinAddr: 0x100010878, symSize: 0x24 }
  - { offsetInCU: 0x37A5E, offset: 0x37A5E, size: 0x8, addend: 0x0, symName: __ZNSt3__116__variant_detail8__access7__union9__get_altB8ue170006INS0_7__unionILNS0_6_TraitE1ELm0EJNS_9monostateEbxdNS_12basic_stringIcNS_11char_traitsIcEENS_9allocatorIcEEEENS_8functionIF5ValueRKNS_6vectorISE_NSA_ISE_EEEEEEEEEELm1EEEODaOT_NS_16in_place_index_tIXT0_EEE, symObjAddr: 0xF9C8, symBinAddr: 0x10001089C, symSize: 0x24 }
  - { offsetInCU: 0x37AA1, offset: 0x37AA1, size: 0x8, addend: 0x0, symName: __ZNSt3__116__variant_detail8__access7__union9__get_altB8ue170006INS0_7__unionILNS0_6_TraitE1ELm1EJbxdNS_12basic_stringIcNS_11char_traitsIcEENS_9allocatorIcEEEENS_8functionIF5ValueRKNS_6vectorISD_NS9_ISD_EEEEEEEEEEEEODaOT_NS_16in_place_index_tILm0EEE, symObjAddr: 0xF9EC, symBinAddr: 0x1000108C0, symSize: 0x14 }
  - { offsetInCU: 0x37ADA, offset: 0x37ADA, size: 0x8, addend: 0x0, symName: __ZN5ValueD2Ev, symObjAddr: 0xFA00, symBinAddr: 0x1000108D4, symSize: 0x2C }
  - { offsetInCU: 0x37B06, offset: 0x37B06, size: 0x8, addend: 0x0, symName: __ZNSt3__17variantIJNS_9monostateEbxdNS_12basic_stringIcNS_11char_traitsIcEENS_9allocatorIcEEEENS_8functionIF5ValueRKNS_6vectorIS9_NS5_IS9_EEEEEEEEED1B8ue170006Ev, symObjAddr: 0xFA2C, symBinAddr: 0x100010900, symSize: 0x2C }
  - { offsetInCU: 0x37B30, offset: 0x37B30, size: 0x8, addend: 0x0, symName: __ZNSt3__17variantIJNS_9monostateEbxdNS_12basic_stringIcNS_11char_traitsIcEENS_9allocatorIcEEEENS_8functionIF5ValueRKNS_6vectorIS9_NS5_IS9_EEEEEEEEED2B8ue170006Ev, symObjAddr: 0xFA58, symBinAddr: 0x10001092C, symSize: 0x2C }
  - { offsetInCU: 0x37B5A, offset: 0x37B5A, size: 0x8, addend: 0x0, symName: __ZNSt3__116__variant_detail6__implIJNS_9monostateEbxdNS_12basic_stringIcNS_11char_traitsIcEENS_9allocatorIcEEEENS_8functionIF5ValueRKNS_6vectorISA_NS6_ISA_EEEEEEEEED1Ev, symObjAddr: 0xFA84, symBinAddr: 0x100010958, symSize: 0x2C }
  - { offsetInCU: 0x37B87, offset: 0x37B87, size: 0x8, addend: 0x0, symName: __ZNSt3__116__variant_detail6__implIJNS_9monostateEbxdNS_12basic_stringIcNS_11char_traitsIcEENS_9allocatorIcEEEENS_8functionIF5ValueRKNS_6vectorISA_NS6_ISA_EEEEEEEEED2Ev, symObjAddr: 0xFAB0, symBinAddr: 0x100010984, symSize: 0x2C }
  - { offsetInCU: 0x37BB4, offset: 0x37BB4, size: 0x8, addend: 0x0, symName: __ZNSt3__116__variant_detail17__copy_assignmentINS0_8__traitsIJNS_9monostateEbxdNS_12basic_stringIcNS_11char_traitsIcEENS_9allocatorIcEEEENS_8functionIF5ValueRKNS_6vectorISB_NS7_ISB_EEEEEEEEEELNS0_6_TraitE1EED2Ev, symObjAddr: 0xFADC, symBinAddr: 0x1000109B0, symSize: 0x2C }
  - { offsetInCU: 0x37BDE, offset: 0x37BDE, size: 0x8, addend: 0x0, symName: __ZNSt3__116__variant_detail17__move_assignmentINS0_8__traitsIJNS_9monostateEbxdNS_12basic_stringIcNS_11char_traitsIcEENS_9allocatorIcEEEENS_8functionIF5ValueRKNS_6vectorISB_NS7_ISB_EEEEEEEEEELNS0_6_TraitE1EED2Ev, symObjAddr: 0xFB08, symBinAddr: 0x1000109DC, symSize: 0x2C }
  - { offsetInCU: 0x37C08, offset: 0x37C08, size: 0x8, addend: 0x0, symName: __ZNSt3__116__variant_detail12__assignmentINS0_8__traitsIJNS_9monostateEbxdNS_12basic_stringIcNS_11char_traitsIcEENS_9allocatorIcEEEENS_8functionIF5ValueRKNS_6vectorISB_NS7_ISB_EEEEEEEEEEED2Ev, symObjAddr: 0xFB34, symBinAddr: 0x100010A08, symSize: 0x2C }
  - { offsetInCU: 0x37C35, offset: 0x37C35, size: 0x8, addend: 0x0, symName: __ZNSt3__116__variant_detail18__copy_constructorINS0_8__traitsIJNS_9monostateEbxdNS_12basic_stringIcNS_11char_traitsIcEENS_9allocatorIcEEEENS_8functionIF5ValueRKNS_6vectorISB_NS7_ISB_EEEEEEEEEELNS0_6_TraitE1EED2Ev, symObjAddr: 0xFB60, symBinAddr: 0x100010A34, symSize: 0x2C }
  - { offsetInCU: 0x37C5F, offset: 0x37C5F, size: 0x8, addend: 0x0, symName: __ZNSt3__116__variant_detail18__move_constructorINS0_8__traitsIJNS_9monostateEbxdNS_12basic_stringIcNS_11char_traitsIcEENS_9allocatorIcEEEENS_8functionIF5ValueRKNS_6vectorISB_NS7_ISB_EEEEEEEEEELNS0_6_TraitE1EED2Ev, symObjAddr: 0xFB8C, symBinAddr: 0x100010A60, symSize: 0x2C }
  - { offsetInCU: 0x37C89, offset: 0x37C89, size: 0x8, addend: 0x0, symName: __ZNSt3__116__variant_detail6__ctorINS0_8__traitsIJNS_9monostateEbxdNS_12basic_stringIcNS_11char_traitsIcEENS_9allocatorIcEEEENS_8functionIF5ValueRKNS_6vectorISB_NS7_ISB_EEEEEEEEEEED2Ev, symObjAddr: 0xFBB8, symBinAddr: 0x100010A8C, symSize: 0x2C }
  - { offsetInCU: 0x37CB6, offset: 0x37CB6, size: 0x8, addend: 0x0, symName: __ZNSt3__116__variant_detail6__dtorINS0_8__traitsIJNS_9monostateEbxdNS_12basic_stringIcNS_11char_traitsIcEENS_9allocatorIcEEEENS_8functionIF5ValueRKNS_6vectorISB_NS7_ISB_EEEEEEEEEELNS0_6_TraitE1EED2Ev, symObjAddr: 0xFBE4, symBinAddr: 0x100010AB8, symSize: 0x34 }
  - { offsetInCU: 0x37CE0, offset: 0x37CE0, size: 0x8, addend: 0x0, symName: __ZNSt3__116__variant_detail6__dtorINS0_8__traitsIJNS_9monostateEbxdNS_12basic_stringIcNS_11char_traitsIcEENS_9allocatorIcEEEENS_8functionIF5ValueRKNS_6vectorISB_NS7_ISB_EEEEEEEEEELNS0_6_TraitE1EE9__destroyB8ue170006Ev, symObjAddr: 0xFC18, symBinAddr: 0x100010AEC, symSize: 0x54 }
  - { offsetInCU: 0x37DBC, offset: 0x37DBC, size: 0x8, addend: 0x0, symName: __ZNSt3__116__variant_detail6__baseILNS0_6_TraitE1EJNS_9monostateEbxdNS_12basic_stringIcNS_11char_traitsIcEENS_9allocatorIcEEEENS_8functionIF5ValueRKNS_6vectorISB_NS7_ISB_EEEEEEEEED2Ev, symObjAddr: 0xFC6C, symBinAddr: 0x100010B40, symSize: 0x2C }
  - { offsetInCU: 0x37DE9, offset: 0x37DE9, size: 0x8, addend: 0x0, symName: __ZNKSt3__116__variant_detail6__baseILNS0_6_TraitE1EJNS_9monostateEbxdNS_12basic_stringIcNS_11char_traitsIcEENS_9allocatorIcEEEENS_8functionIF5ValueRKNS_6vectorISB_NS7_ISB_EEEEEEEEE22valueless_by_exceptionB8ue170006Ev, symObjAddr: 0xFC98, symBinAddr: 0x100010B6C, symSize: 0x30 }
  - { offsetInCU: 0x37E14, offset: 0x37E14, size: 0x8, addend: 0x0, symName: __ZNSt3__116__variant_detail12__visitation6__base11__visit_altB8ue170006IZNS0_6__dtorINS0_8__traitsIJNS_9monostateEbxdNS_12basic_stringIcNS_11char_traitsIcEENS_9allocatorIcEEEENS_8functionIF5ValueRKNS_6vectorISE_NSA_ISE_EEEEEEEEEELNS0_6_TraitE1EE9__destroyB8ue170006EvEUlRT_E_JRSO_EEEDcOSP_DpOT0_, symObjAddr: 0xFCC8, symBinAddr: 0x100010B9C, symSize: 0x74 }
  - { offsetInCU: 0x37E6F, offset: 0x37E6F, size: 0x8, addend: 0x0, symName: __ZNSt3__116__variant_detail12__visitation6__base12__dispatcherIJLm0EEE10__dispatchB8ue170006IOZNS0_6__dtorINS0_8__traitsIJNS_9monostateEbxdNS_12basic_stringIcNS_11char_traitsIcEENS_9allocatorIcEEEENS_8functionIF5ValueRKNS_6vectorISG_NSC_ISG_EEEEEEEEEELNS0_6_TraitE1EE9__destroyB8ue170006EvEUlRT_E_JRNS0_6__baseILSP_1EJS8_bxdSE_SN_EEEEEEDcSR_DpT0_, symObjAddr: 0xFD3C, symBinAddr: 0x100010C10, symSize: 0x3C }
  - { offsetInCU: 0x37EB6, offset: 0x37EB6, size: 0x8, addend: 0x0, symName: __ZNSt3__116__variant_detail12__visitation6__base12__dispatcherIJLm1EEE10__dispatchB8ue170006IOZNS0_6__dtorINS0_8__traitsIJNS_9monostateEbxdNS_12basic_stringIcNS_11char_traitsIcEENS_9allocatorIcEEEENS_8functionIF5ValueRKNS_6vectorISG_NSC_ISG_EEEEEEEEEELNS0_6_TraitE1EE9__destroyB8ue170006EvEUlRT_E_JRNS0_6__baseILSP_1EJS8_bxdSE_SN_EEEEEEDcSR_DpT0_, symObjAddr: 0xFD78, symBinAddr: 0x100010C4C, symSize: 0x3C }
  - { offsetInCU: 0x37EFD, offset: 0x37EFD, size: 0x8, addend: 0x0, symName: __ZNSt3__116__variant_detail12__visitation6__base12__dispatcherIJLm2EEE10__dispatchB8ue170006IOZNS0_6__dtorINS0_8__traitsIJNS_9monostateEbxdNS_12basic_stringIcNS_11char_traitsIcEENS_9allocatorIcEEEENS_8functionIF5ValueRKNS_6vectorISG_NSC_ISG_EEEEEEEEEELNS0_6_TraitE1EE9__destroyB8ue170006EvEUlRT_E_JRNS0_6__baseILSP_1EJS8_bxdSE_SN_EEEEEEDcSR_DpT0_, symObjAddr: 0xFDB4, symBinAddr: 0x100010C88, symSize: 0x3C }
  - { offsetInCU: 0x37F44, offset: 0x37F44, size: 0x8, addend: 0x0, symName: __ZNSt3__116__variant_detail12__visitation6__base12__dispatcherIJLm3EEE10__dispatchB8ue170006IOZNS0_6__dtorINS0_8__traitsIJNS_9monostateEbxdNS_12basic_stringIcNS_11char_traitsIcEENS_9allocatorIcEEEENS_8functionIF5ValueRKNS_6vectorISG_NSC_ISG_EEEEEEEEEELNS0_6_TraitE1EE9__destroyB8ue170006EvEUlRT_E_JRNS0_6__baseILSP_1EJS8_bxdSE_SN_EEEEEEDcSR_DpT0_, symObjAddr: 0xFDF0, symBinAddr: 0x100010CC4, symSize: 0x3C }
  - { offsetInCU: 0x37F8B, offset: 0x37F8B, size: 0x8, addend: 0x0, symName: __ZNSt3__116__variant_detail12__visitation6__base12__dispatcherIJLm4EEE10__dispatchB8ue170006IOZNS0_6__dtorINS0_8__traitsIJNS_9monostateEbxdNS_12basic_stringIcNS_11char_traitsIcEENS_9allocatorIcEEEENS_8functionIF5ValueRKNS_6vectorISG_NSC_ISG_EEEEEEEEEELNS0_6_TraitE1EE9__destroyB8ue170006EvEUlRT_E_JRNS0_6__baseILSP_1EJS8_bxdSE_SN_EEEEEEDcSR_DpT0_, symObjAddr: 0xFE2C, symBinAddr: 0x100010D00, symSize: 0x3C }
  - { offsetInCU: 0x37FD2, offset: 0x37FD2, size: 0x8, addend: 0x0, symName: __ZNSt3__116__variant_detail12__visitation6__base12__dispatcherIJLm5EEE10__dispatchB8ue170006IOZNS0_6__dtorINS0_8__traitsIJNS_9monostateEbxdNS_12basic_stringIcNS_11char_traitsIcEENS_9allocatorIcEEEENS_8functionIF5ValueRKNS_6vectorISG_NSC_ISG_EEEEEEEEEELNS0_6_TraitE1EE9__destroyB8ue170006EvEUlRT_E_JRNS0_6__baseILSP_1EJS8_bxdSE_SN_EEEEEEDcSR_DpT0_, symObjAddr: 0xFE68, symBinAddr: 0x100010D3C, symSize: 0x3C }
  - { offsetInCU: 0x38052, offset: 0x38052, size: 0x8, addend: 0x0, symName: __ZNSt3__116__variant_detail12__visitation6__base4__atB8ue170006IPFvOZNS0_6__dtorINS0_8__traitsIJNS_9monostateEbxdNS_12basic_stringIcNS_11char_traitsIcEENS_9allocatorIcEEEENS_8functionIF5ValueRKNS_6vectorISE_NSA_ISE_EEEEEEEEEELNS0_6_TraitE1EE9__destroyB8ue170006EvEUlRT_E_RNS0_6__baseILSN_1EJS6_bxdSC_SL_EEEELm6EJEEEODaRKNS_8__farrayISP_XT0_EEEmDpT1_, symObjAddr: 0xFEA4, symBinAddr: 0x100010D78, symSize: 0x30 }
  - { offsetInCU: 0x3809D, offset: 0x3809D, size: 0x8, addend: 0x0, symName: __ZNRSt3__116__variant_detail6__baseILNS0_6_TraitE1EJNS_9monostateEbxdNS_12basic_stringIcNS_11char_traitsIcEENS_9allocatorIcEEEENS_8functionIF5ValueRKNS_6vectorISB_NS7_ISB_EEEEEEEEE9__as_baseB8ue170006Ev, symObjAddr: 0xFED4, symBinAddr: 0x100010DA8, symSize: 0x14 }
  - { offsetInCU: 0x380C8, offset: 0x380C8, size: 0x8, addend: 0x0, symName: __ZNSt3__116__variant_detail8__access6__base9__get_altB8ue170006ILm0ERNS0_6__baseILNS0_6_TraitE1EJNS_9monostateEbxdNS_12basic_stringIcNS_11char_traitsIcEENS_9allocatorIcEEEENS_8functionIF5ValueRKNS_6vectorISE_NSA_ISE_EEEEEEEEEEEEODaOT0_, symObjAddr: 0xFF14, symBinAddr: 0x100010DE8, symSize: 0x24 }
  - { offsetInCU: 0x38109, offset: 0x38109, size: 0x8, addend: 0x0, symName: __ZZNSt3__116__variant_detail6__dtorINS0_8__traitsIJNS_9monostateEbxdNS_12basic_stringIcNS_11char_traitsIcEENS_9allocatorIcEEEENS_8functionIF5ValueRKNS_6vectorISB_NS7_ISB_EEEEEEEEEELNS0_6_TraitE1EE9__destroyB8ue170006EvENKUlRT_E_clINS0_5__altILm0ES3_EEEEDaSN_, symObjAddr: 0xFF38, symBinAddr: 0x100010E0C, symSize: 0x14 }
  - { offsetInCU: 0x3814B, offset: 0x3814B, size: 0x8, addend: 0x0, symName: __ZNSt3__116__variant_detail8__access7__union9__get_altB8ue170006IRNS0_7__unionILNS0_6_TraitE1ELm0EJNS_9monostateEbxdNS_12basic_stringIcNS_11char_traitsIcEENS_9allocatorIcEEEENS_8functionIF5ValueRKNS_6vectorISE_NSA_ISE_EEEEEEEEEEEEODaOT_NS_16in_place_index_tILm0EEE, symObjAddr: 0xFF4C, symBinAddr: 0x100010E20, symSize: 0x14 }
  - { offsetInCU: 0x38189, offset: 0x38189, size: 0x8, addend: 0x0, symName: __ZNSt3__116__variant_detail8__access6__base9__get_altB8ue170006ILm1ERNS0_6__baseILNS0_6_TraitE1EJNS_9monostateEbxdNS_12basic_stringIcNS_11char_traitsIcEENS_9allocatorIcEEEENS_8functionIF5ValueRKNS_6vectorISE_NSA_ISE_EEEEEEEEEEEEODaOT0_, symObjAddr: 0xFF8C, symBinAddr: 0x100010E60, symSize: 0x24 }
  - { offsetInCU: 0x381C0, offset: 0x381C0, size: 0x8, addend: 0x0, symName: __ZZNSt3__116__variant_detail6__dtorINS0_8__traitsIJNS_9monostateEbxdNS_12basic_stringIcNS_11char_traitsIcEENS_9allocatorIcEEEENS_8functionIF5ValueRKNS_6vectorISB_NS7_ISB_EEEEEEEEEELNS0_6_TraitE1EE9__destroyB8ue170006EvENKUlRT_E_clINS0_5__altILm1EbEEEEDaSN_, symObjAddr: 0xFFB0, symBinAddr: 0x100010E84, symSize: 0x14 }
  - { offsetInCU: 0x38202, offset: 0x38202, size: 0x8, addend: 0x0, symName: __ZNSt3__116__variant_detail8__access7__union9__get_altB8ue170006IRNS0_7__unionILNS0_6_TraitE1ELm0EJNS_9monostateEbxdNS_12basic_stringIcNS_11char_traitsIcEENS_9allocatorIcEEEENS_8functionIF5ValueRKNS_6vectorISE_NSA_ISE_EEEEEEEEEELm1EEEODaOT_NS_16in_place_index_tIXT0_EEE, symObjAddr: 0xFFC4, symBinAddr: 0x100010E98, symSize: 0x24 }
  - { offsetInCU: 0x38245, offset: 0x38245, size: 0x8, addend: 0x0, symName: __ZNSt3__116__variant_detail8__access7__union9__get_altB8ue170006IRNS0_7__unionILNS0_6_TraitE1ELm1EJbxdNS_12basic_stringIcNS_11char_traitsIcEENS_9allocatorIcEEEENS_8functionIF5ValueRKNS_6vectorISD_NS9_ISD_EEEEEEEEEEEEODaOT_NS_16in_place_index_tILm0EEE, symObjAddr: 0xFFE8, symBinAddr: 0x100010EBC, symSize: 0x14 }
  - { offsetInCU: 0x38283, offset: 0x38283, size: 0x8, addend: 0x0, symName: __ZNSt3__116__variant_detail8__access6__base9__get_altB8ue170006ILm2ERNS0_6__baseILNS0_6_TraitE1EJNS_9monostateEbxdNS_12basic_stringIcNS_11char_traitsIcEENS_9allocatorIcEEEENS_8functionIF5ValueRKNS_6vectorISE_NSA_ISE_EEEEEEEEEEEEODaOT0_, symObjAddr: 0x10028, symBinAddr: 0x100010EFC, symSize: 0x24 }
  - { offsetInCU: 0x382BA, offset: 0x382BA, size: 0x8, addend: 0x0, symName: __ZZNSt3__116__variant_detail6__dtorINS0_8__traitsIJNS_9monostateEbxdNS_12basic_stringIcNS_11char_traitsIcEENS_9allocatorIcEEEENS_8functionIF5ValueRKNS_6vectorISB_NS7_ISB_EEEEEEEEEELNS0_6_TraitE1EE9__destroyB8ue170006EvENKUlRT_E_clINS0_5__altILm2ExEEEEDaSN_, symObjAddr: 0x1004C, symBinAddr: 0x100010F20, symSize: 0x14 }
  - { offsetInCU: 0x382FC, offset: 0x382FC, size: 0x8, addend: 0x0, symName: __ZNSt3__116__variant_detail8__access7__union9__get_altB8ue170006IRNS0_7__unionILNS0_6_TraitE1ELm0EJNS_9monostateEbxdNS_12basic_stringIcNS_11char_traitsIcEENS_9allocatorIcEEEENS_8functionIF5ValueRKNS_6vectorISE_NSA_ISE_EEEEEEEEEELm2EEEODaOT_NS_16in_place_index_tIXT0_EEE, symObjAddr: 0x10060, symBinAddr: 0x100010F34, symSize: 0x24 }
  - { offsetInCU: 0x3833F, offset: 0x3833F, size: 0x8, addend: 0x0, symName: __ZNSt3__116__variant_detail8__access7__union9__get_altB8ue170006IRNS0_7__unionILNS0_6_TraitE1ELm1EJbxdNS_12basic_stringIcNS_11char_traitsIcEENS_9allocatorIcEEEENS_8functionIF5ValueRKNS_6vectorISD_NS9_ISD_EEEEEEEEEELm1EEEODaOT_NS_16in_place_index_tIXT0_EEE, symObjAddr: 0x10084, symBinAddr: 0x100010F58, symSize: 0x24 }
  - { offsetInCU: 0x38382, offset: 0x38382, size: 0x8, addend: 0x0, symName: __ZNSt3__116__variant_detail8__access7__union9__get_altB8ue170006IRNS0_7__unionILNS0_6_TraitE1ELm2EJxdNS_12basic_stringIcNS_11char_traitsIcEENS_9allocatorIcEEEENS_8functionIF5ValueRKNS_6vectorISD_NS9_ISD_EEEEEEEEEEEEODaOT_NS_16in_place_index_tILm0EEE, symObjAddr: 0x100A8, symBinAddr: 0x100010F7C, symSize: 0x14 }
  - { offsetInCU: 0x383C0, offset: 0x383C0, size: 0x8, addend: 0x0, symName: __ZNSt3__116__variant_detail8__access6__base9__get_altB8ue170006ILm3ERNS0_6__baseILNS0_6_TraitE1EJNS_9monostateEbxdNS_12basic_stringIcNS_11char_traitsIcEENS_9allocatorIcEEEENS_8functionIF5ValueRKNS_6vectorISE_NSA_ISE_EEEEEEEEEEEEODaOT0_, symObjAddr: 0x100E8, symBinAddr: 0x100010FBC, symSize: 0x24 }
  - { offsetInCU: 0x383F7, offset: 0x383F7, size: 0x8, addend: 0x0, symName: __ZZNSt3__116__variant_detail6__dtorINS0_8__traitsIJNS_9monostateEbxdNS_12basic_stringIcNS_11char_traitsIcEENS_9allocatorIcEEEENS_8functionIF5ValueRKNS_6vectorISB_NS7_ISB_EEEEEEEEEELNS0_6_TraitE1EE9__destroyB8ue170006EvENKUlRT_E_clINS0_5__altILm3EdEEEEDaSN_, symObjAddr: 0x1010C, symBinAddr: 0x100010FE0, symSize: 0x14 }
  - { offsetInCU: 0x38439, offset: 0x38439, size: 0x8, addend: 0x0, symName: __ZNSt3__116__variant_detail8__access7__union9__get_altB8ue170006IRNS0_7__unionILNS0_6_TraitE1ELm0EJNS_9monostateEbxdNS_12basic_stringIcNS_11char_traitsIcEENS_9allocatorIcEEEENS_8functionIF5ValueRKNS_6vectorISE_NSA_ISE_EEEEEEEEEELm3EEEODaOT_NS_16in_place_index_tIXT0_EEE, symObjAddr: 0x10120, symBinAddr: 0x100010FF4, symSize: 0x24 }
  - { offsetInCU: 0x3847C, offset: 0x3847C, size: 0x8, addend: 0x0, symName: __ZNSt3__116__variant_detail8__access7__union9__get_altB8ue170006IRNS0_7__unionILNS0_6_TraitE1ELm1EJbxdNS_12basic_stringIcNS_11char_traitsIcEENS_9allocatorIcEEEENS_8functionIF5ValueRKNS_6vectorISD_NS9_ISD_EEEEEEEEEELm2EEEODaOT_NS_16in_place_index_tIXT0_EEE, symObjAddr: 0x10144, symBinAddr: 0x100011018, symSize: 0x24 }
  - { offsetInCU: 0x384BF, offset: 0x384BF, size: 0x8, addend: 0x0, symName: __ZNSt3__116__variant_detail8__access7__union9__get_altB8ue170006IRNS0_7__unionILNS0_6_TraitE1ELm2EJxdNS_12basic_stringIcNS_11char_traitsIcEENS_9allocatorIcEEEENS_8functionIF5ValueRKNS_6vectorISD_NS9_ISD_EEEEEEEEEELm1EEEODaOT_NS_16in_place_index_tIXT0_EEE, symObjAddr: 0x10168, symBinAddr: 0x10001103C, symSize: 0x24 }
  - { offsetInCU: 0x38502, offset: 0x38502, size: 0x8, addend: 0x0, symName: __ZNSt3__116__variant_detail8__access7__union9__get_altB8ue170006IRNS0_7__unionILNS0_6_TraitE1ELm3EJdNS_12basic_stringIcNS_11char_traitsIcEENS_9allocatorIcEEEENS_8functionIF5ValueRKNS_6vectorISD_NS9_ISD_EEEEEEEEEEEEODaOT_NS_16in_place_index_tILm0EEE, symObjAddr: 0x1018C, symBinAddr: 0x100011060, symSize: 0x14 }
  - { offsetInCU: 0x38540, offset: 0x38540, size: 0x8, addend: 0x0, symName: __ZNSt3__116__variant_detail8__access6__base9__get_altB8ue170006ILm4ERNS0_6__baseILNS0_6_TraitE1EJNS_9monostateEbxdNS_12basic_stringIcNS_11char_traitsIcEENS_9allocatorIcEEEENS_8functionIF5ValueRKNS_6vectorISE_NSA_ISE_EEEEEEEEEEEEODaOT0_, symObjAddr: 0x101CC, symBinAddr: 0x1000110A0, symSize: 0x24 }
  - { offsetInCU: 0x38577, offset: 0x38577, size: 0x8, addend: 0x0, symName: __ZZNSt3__116__variant_detail6__dtorINS0_8__traitsIJNS_9monostateEbxdNS_12basic_stringIcNS_11char_traitsIcEENS_9allocatorIcEEEENS_8functionIF5ValueRKNS_6vectorISB_NS7_ISB_EEEEEEEEEELNS0_6_TraitE1EE9__destroyB8ue170006EvENKUlRT_E_clINS0_5__altILm4ES9_EEEEDaSN_, symObjAddr: 0x101F0, symBinAddr: 0x1000110C4, symSize: 0x28 }
  - { offsetInCU: 0x385B9, offset: 0x385B9, size: 0x8, addend: 0x0, symName: __ZNSt3__116__variant_detail5__altILm4ENS_12basic_stringIcNS_11char_traitsIcEENS_9allocatorIcEEEEED1Ev, symObjAddr: 0x10218, symBinAddr: 0x1000110EC, symSize: 0x2C }
  - { offsetInCU: 0x385E6, offset: 0x385E6, size: 0x8, addend: 0x0, symName: __ZNSt3__116__variant_detail5__altILm4ENS_12basic_stringIcNS_11char_traitsIcEENS_9allocatorIcEEEEED2Ev, symObjAddr: 0x10244, symBinAddr: 0x100011118, symSize: 0x2C }
  - { offsetInCU: 0x38613, offset: 0x38613, size: 0x8, addend: 0x0, symName: __ZNSt3__116__variant_detail8__access7__union9__get_altB8ue170006IRNS0_7__unionILNS0_6_TraitE1ELm0EJNS_9monostateEbxdNS_12basic_stringIcNS_11char_traitsIcEENS_9allocatorIcEEEENS_8functionIF5ValueRKNS_6vectorISE_NSA_ISE_EEEEEEEEEELm4EEEODaOT_NS_16in_place_index_tIXT0_EEE, symObjAddr: 0x10270, symBinAddr: 0x100011144, symSize: 0x24 }
  - { offsetInCU: 0x38656, offset: 0x38656, size: 0x8, addend: 0x0, symName: __ZNSt3__116__variant_detail8__access7__union9__get_altB8ue170006IRNS0_7__unionILNS0_6_TraitE1ELm1EJbxdNS_12basic_stringIcNS_11char_traitsIcEENS_9allocatorIcEEEENS_8functionIF5ValueRKNS_6vectorISD_NS9_ISD_EEEEEEEEEELm3EEEODaOT_NS_16in_place_index_tIXT0_EEE, symObjAddr: 0x10294, symBinAddr: 0x100011168, symSize: 0x24 }
  - { offsetInCU: 0x38699, offset: 0x38699, size: 0x8, addend: 0x0, symName: __ZNSt3__116__variant_detail8__access7__union9__get_altB8ue170006IRNS0_7__unionILNS0_6_TraitE1ELm2EJxdNS_12basic_stringIcNS_11char_traitsIcEENS_9allocatorIcEEEENS_8functionIF5ValueRKNS_6vectorISD_NS9_ISD_EEEEEEEEEELm2EEEODaOT_NS_16in_place_index_tIXT0_EEE, symObjAddr: 0x102B8, symBinAddr: 0x10001118C, symSize: 0x24 }
  - { offsetInCU: 0x386DC, offset: 0x386DC, size: 0x8, addend: 0x0, symName: __ZNSt3__116__variant_detail8__access7__union9__get_altB8ue170006IRNS0_7__unionILNS0_6_TraitE1ELm3EJdNS_12basic_stringIcNS_11char_traitsIcEENS_9allocatorIcEEEENS_8functionIF5ValueRKNS_6vectorISD_NS9_ISD_EEEEEEEEEELm1EEEODaOT_NS_16in_place_index_tIXT0_EEE, symObjAddr: 0x102DC, symBinAddr: 0x1000111B0, symSize: 0x24 }
  - { offsetInCU: 0x3871F, offset: 0x3871F, size: 0x8, addend: 0x0, symName: __ZNSt3__116__variant_detail8__access7__union9__get_altB8ue170006IRNS0_7__unionILNS0_6_TraitE1ELm4EJNS_12basic_stringIcNS_11char_traitsIcEENS_9allocatorIcEEEENS_8functionIF5ValueRKNS_6vectorISD_NS9_ISD_EEEEEEEEEEEEODaOT_NS_16in_place_index_tILm0EEE, symObjAddr: 0x10300, symBinAddr: 0x1000111D4, symSize: 0x14 }
  - { offsetInCU: 0x3875D, offset: 0x3875D, size: 0x8, addend: 0x0, symName: __ZNSt3__116__variant_detail8__access6__base9__get_altB8ue170006ILm5ERNS0_6__baseILNS0_6_TraitE1EJNS_9monostateEbxdNS_12basic_stringIcNS_11char_traitsIcEENS_9allocatorIcEEEENS_8functionIF5ValueRKNS_6vectorISE_NSA_ISE_EEEEEEEEEEEEODaOT0_, symObjAddr: 0x10340, symBinAddr: 0x100011214, symSize: 0x24 }
  - { offsetInCU: 0x38794, offset: 0x38794, size: 0x8, addend: 0x0, symName: __ZZNSt3__116__variant_detail6__dtorINS0_8__traitsIJNS_9monostateEbxdNS_12basic_stringIcNS_11char_traitsIcEENS_9allocatorIcEEEENS_8functionIF5ValueRKNS_6vectorISB_NS7_ISB_EEEEEEEEEELNS0_6_TraitE1EE9__destroyB8ue170006EvENKUlRT_E_clINS0_5__altILm5ESI_EEEEDaSN_, symObjAddr: 0x10364, symBinAddr: 0x100011238, symSize: 0x28 }
  - { offsetInCU: 0x387DB, offset: 0x387DB, size: 0x8, addend: 0x0, symName: __ZNSt3__116__variant_detail5__altILm5ENS_8functionIF5ValueRKNS_6vectorIS3_NS_9allocatorIS3_EEEEEEEED1Ev, symObjAddr: 0x1038C, symBinAddr: 0x100011260, symSize: 0x2C }
  - { offsetInCU: 0x38808, offset: 0x38808, size: 0x8, addend: 0x0, symName: __ZNSt3__116__variant_detail5__altILm5ENS_8functionIF5ValueRKNS_6vectorIS3_NS_9allocatorIS3_EEEEEEEED2Ev, symObjAddr: 0x103B8, symBinAddr: 0x10001128C, symSize: 0x2C }
  - { offsetInCU: 0x38835, offset: 0x38835, size: 0x8, addend: 0x0, symName: __ZNSt3__116__variant_detail8__access7__union9__get_altB8ue170006IRNS0_7__unionILNS0_6_TraitE1ELm0EJNS_9monostateEbxdNS_12basic_stringIcNS_11char_traitsIcEENS_9allocatorIcEEEENS_8functionIF5ValueRKNS_6vectorISE_NSA_ISE_EEEEEEEEEELm5EEEODaOT_NS_16in_place_index_tIXT0_EEE, symObjAddr: 0x103E4, symBinAddr: 0x1000112B8, symSize: 0x24 }
  - { offsetInCU: 0x38878, offset: 0x38878, size: 0x8, addend: 0x0, symName: __ZNSt3__116__variant_detail8__access7__union9__get_altB8ue170006IRNS0_7__unionILNS0_6_TraitE1ELm1EJbxdNS_12basic_stringIcNS_11char_traitsIcEENS_9allocatorIcEEEENS_8functionIF5ValueRKNS_6vectorISD_NS9_ISD_EEEEEEEEEELm4EEEODaOT_NS_16in_place_index_tIXT0_EEE, symObjAddr: 0x10408, symBinAddr: 0x1000112DC, symSize: 0x24 }
  - { offsetInCU: 0x388BB, offset: 0x388BB, size: 0x8, addend: 0x0, symName: __ZNSt3__116__variant_detail8__access7__union9__get_altB8ue170006IRNS0_7__unionILNS0_6_TraitE1ELm2EJxdNS_12basic_stringIcNS_11char_traitsIcEENS_9allocatorIcEEEENS_8functionIF5ValueRKNS_6vectorISD_NS9_ISD_EEEEEEEEEELm3EEEODaOT_NS_16in_place_index_tIXT0_EEE, symObjAddr: 0x1042C, symBinAddr: 0x100011300, symSize: 0x24 }
  - { offsetInCU: 0x388FE, offset: 0x388FE, size: 0x8, addend: 0x0, symName: __ZNSt3__116__variant_detail8__access7__union9__get_altB8ue170006IRNS0_7__unionILNS0_6_TraitE1ELm3EJdNS_12basic_stringIcNS_11char_traitsIcEENS_9allocatorIcEEEENS_8functionIF5ValueRKNS_6vectorISD_NS9_ISD_EEEEEEEEEELm2EEEODaOT_NS_16in_place_index_tIXT0_EEE, symObjAddr: 0x10450, symBinAddr: 0x100011324, symSize: 0x24 }
  - { offsetInCU: 0x38941, offset: 0x38941, size: 0x8, addend: 0x0, symName: __ZNSt3__116__variant_detail8__access7__union9__get_altB8ue170006IRNS0_7__unionILNS0_6_TraitE1ELm4EJNS_12basic_stringIcNS_11char_traitsIcEENS_9allocatorIcEEEENS_8functionIF5ValueRKNS_6vectorISD_NS9_ISD_EEEEEEEEEELm1EEEODaOT_NS_16in_place_index_tIXT0_EEE, symObjAddr: 0x10474, symBinAddr: 0x100011348, symSize: 0x24 }
  - { offsetInCU: 0x38984, offset: 0x38984, size: 0x8, addend: 0x0, symName: __ZNSt3__116__variant_detail8__access7__union9__get_altB8ue170006IRNS0_7__unionILNS0_6_TraitE1ELm5EJNS_8functionIF5ValueRKNS_6vectorIS7_NS_9allocatorIS7_EEEEEEEEEEEEODaOT_NS_16in_place_index_tILm0EEE, symObjAddr: 0x10498, symBinAddr: 0x10001136C, symSize: 0x14 }
  - { offsetInCU: 0x389BD, offset: 0x389BD, size: 0x8, addend: 0x0, symName: __ZNSt3__116__variant_detail12__visitation6__base4__atB8ue170006IPFvOZNS0_6__dtorINS0_8__traitsIJNS_9monostateEbxdNS_12basic_stringIcNS_11char_traitsIcEENS_9allocatorIcEEEENS_8functionIF5ValueRKNS_6vectorISE_NSA_ISE_EEEEEEEEEELNS0_6_TraitE1EE9__destroyB8ue170006EvEUlRT_E_RNS0_6__baseILSN_1EJS6_bxdSC_SL_EEEEEERKSP_SZ_, symObjAddr: 0x104AC, symBinAddr: 0x100011380, symSize: 0x14 }
  - { offsetInCU: 0x389EA, offset: 0x389EA, size: 0x8, addend: 0x0, symName: __ZNKSt3__18__farrayIPFvOZNS_16__variant_detail6__dtorINS1_8__traitsIJNS_9monostateEbxdNS_12basic_stringIcNS_11char_traitsIcEENS_9allocatorIcEEEENS_8functionIF5ValueRKNS_6vectorISC_NS8_ISC_EEEEEEEEEELNS1_6_TraitE1EE9__destroyB8ue170006EvEUlRT_E_RNS1_6__baseILSL_1EJS4_bxdSA_SJ_EEEELm6EEixB8ue170006Em, symObjAddr: 0x104C0, symBinAddr: 0x100011394, symSize: 0x20 }
  - { offsetInCU: 0x38A1F, offset: 0x38A1F, size: 0x8, addend: 0x0, symName: __ZNSt3__116__variant_detail7__unionILNS0_6_TraitE1ELm0EJNS_9monostateEbxdNS_12basic_stringIcNS_11char_traitsIcEENS_9allocatorIcEEEENS_8functionIF5ValueRKNS_6vectorISB_NS7_ISB_EEEEEEEEED1Ev, symObjAddr: 0x104E0, symBinAddr: 0x1000113B4, symSize: 0x2C }
  - { offsetInCU: 0x38A49, offset: 0x38A49, size: 0x8, addend: 0x0, symName: __ZNSt3__116__variant_detail7__unionILNS0_6_TraitE1ELm0EJNS_9monostateEbxdNS_12basic_stringIcNS_11char_traitsIcEENS_9allocatorIcEEEENS_8functionIF5ValueRKNS_6vectorISB_NS7_ISB_EEEEEEEEED2Ev, symObjAddr: 0x1050C, symBinAddr: 0x1000113E0, symSize: 0x14 }
  - { offsetInCU: 0x38A73, offset: 0x38A73, size: 0x8, addend: 0x0, symName: __ZNSt3__120_CmpUnspecifiedParamC2B8ue170006EMS0_i, symObjAddr: 0x1059C, symBinAddr: 0x100011470, symSize: 0x18 }
  - { offsetInCU: 0x38AA7, offset: 0x38AA7, size: 0x8, addend: 0x0, symName: __ZN5ValueC2ENSt3__18functionIFS_RKNS0_6vectorIS_NS0_9allocatorIS_EEEEEEE, symObjAddr: 0x105B4, symBinAddr: 0x100011488, symSize: 0x34 }
  - { offsetInCU: 0x38AE0, offset: 0x38AE0, size: 0x8, addend: 0x0, symName: __ZNSt3__17variantIJNS_9monostateEbxdNS_12basic_stringIcNS_11char_traitsIcEENS_9allocatorIcEEEENS_8functionIF5ValueRKNS_6vectorIS9_NS5_IS9_EEEEEEEEEC1B8ue170006IRSG_Li0ELi0ELi0ESG_Lm5ELi0EEEOT_, symObjAddr: 0x105E8, symBinAddr: 0x1000114BC, symSize: 0x34 }
  - { offsetInCU: 0x38B4D, offset: 0x38B4D, size: 0x8, addend: 0x0, symName: __ZNSt3__17variantIJNS_9monostateEbxdNS_12basic_stringIcNS_11char_traitsIcEENS_9allocatorIcEEEENS_8functionIF5ValueRKNS_6vectorIS9_NS5_IS9_EEEEEEEEEC2B8ue170006IRSG_Li0ELi0ELi0ESG_Lm5ELi0EEEOT_, symObjAddr: 0x1061C, symBinAddr: 0x1000114F0, symSize: 0x34 }
  - { offsetInCU: 0x38BBA, offset: 0x38BBA, size: 0x8, addend: 0x0, symName: __ZNSt3__116__variant_detail6__implIJNS_9monostateEbxdNS_12basic_stringIcNS_11char_traitsIcEENS_9allocatorIcEEEENS_8functionIF5ValueRKNS_6vectorISA_NS6_ISA_EEEEEEEEECI1NS0_6__baseILNS0_6_TraitE1EJS2_bxdS8_SH_EEEILm5EJRSH_EEENS_16in_place_index_tIXT_EEEDpOT0_, symObjAddr: 0x10650, symBinAddr: 0x100011524, symSize: 0x34 }
  - { offsetInCU: 0x38BF9, offset: 0x38BF9, size: 0x8, addend: 0x0, symName: __ZNSt3__116__variant_detail6__implIJNS_9monostateEbxdNS_12basic_stringIcNS_11char_traitsIcEENS_9allocatorIcEEEENS_8functionIF5ValueRKNS_6vectorISA_NS6_ISA_EEEEEEEEECI2NS0_6__baseILNS0_6_TraitE1EJS2_bxdS8_SH_EEEILm5EJRSH_EEENS_16in_place_index_tIXT_EEEDpOT0_, symObjAddr: 0x10684, symBinAddr: 0x100011558, symSize: 0x34 }
  - { offsetInCU: 0x38C38, offset: 0x38C38, size: 0x8, addend: 0x0, symName: __ZNSt3__116__variant_detail17__copy_assignmentINS0_8__traitsIJNS_9monostateEbxdNS_12basic_stringIcNS_11char_traitsIcEENS_9allocatorIcEEEENS_8functionIF5ValueRKNS_6vectorISB_NS7_ISB_EEEEEEEEEELNS0_6_TraitE1EECI2NS0_6__baseILSK_1EJS3_bxdS9_SI_EEEILm5EJRSI_EEENS_16in_place_index_tIXT_EEEDpOT0_, symObjAddr: 0x106B8, symBinAddr: 0x10001158C, symSize: 0x34 }
  - { offsetInCU: 0x38C77, offset: 0x38C77, size: 0x8, addend: 0x0, symName: __ZNSt3__116__variant_detail17__move_assignmentINS0_8__traitsIJNS_9monostateEbxdNS_12basic_stringIcNS_11char_traitsIcEENS_9allocatorIcEEEENS_8functionIF5ValueRKNS_6vectorISB_NS7_ISB_EEEEEEEEEELNS0_6_TraitE1EECI2NS0_6__baseILSK_1EJS3_bxdS9_SI_EEEILm5EJRSI_EEENS_16in_place_index_tIXT_EEEDpOT0_, symObjAddr: 0x106EC, symBinAddr: 0x1000115C0, symSize: 0x34 }
  - { offsetInCU: 0x38CB6, offset: 0x38CB6, size: 0x8, addend: 0x0, symName: __ZNSt3__116__variant_detail12__assignmentINS0_8__traitsIJNS_9monostateEbxdNS_12basic_stringIcNS_11char_traitsIcEENS_9allocatorIcEEEENS_8functionIF5ValueRKNS_6vectorISB_NS7_ISB_EEEEEEEEEEECI2NS0_6__baseILNS0_6_TraitE1EJS3_bxdS9_SI_EEEILm5EJRSI_EEENS_16in_place_index_tIXT_EEEDpOT0_, symObjAddr: 0x10720, symBinAddr: 0x1000115F4, symSize: 0x34 }
  - { offsetInCU: 0x38CF5, offset: 0x38CF5, size: 0x8, addend: 0x0, symName: __ZNSt3__116__variant_detail18__copy_constructorINS0_8__traitsIJNS_9monostateEbxdNS_12basic_stringIcNS_11char_traitsIcEENS_9allocatorIcEEEENS_8functionIF5ValueRKNS_6vectorISB_NS7_ISB_EEEEEEEEEELNS0_6_TraitE1EECI2NS0_6__baseILSK_1EJS3_bxdS9_SI_EEEILm5EJRSI_EEENS_16in_place_index_tIXT_EEEDpOT0_, symObjAddr: 0x10754, symBinAddr: 0x100011628, symSize: 0x34 }
  - { offsetInCU: 0x38D34, offset: 0x38D34, size: 0x8, addend: 0x0, symName: __ZNSt3__116__variant_detail18__move_constructorINS0_8__traitsIJNS_9monostateEbxdNS_12basic_stringIcNS_11char_traitsIcEENS_9allocatorIcEEEENS_8functionIF5ValueRKNS_6vectorISB_NS7_ISB_EEEEEEEEEELNS0_6_TraitE1EECI2NS0_6__baseILSK_1EJS3_bxdS9_SI_EEEILm5EJRSI_EEENS_16in_place_index_tIXT_EEEDpOT0_, symObjAddr: 0x10788, symBinAddr: 0x10001165C, symSize: 0x34 }
  - { offsetInCU: 0x38D73, offset: 0x38D73, size: 0x8, addend: 0x0, symName: __ZNSt3__116__variant_detail6__ctorINS0_8__traitsIJNS_9monostateEbxdNS_12basic_stringIcNS_11char_traitsIcEENS_9allocatorIcEEEENS_8functionIF5ValueRKNS_6vectorISB_NS7_ISB_EEEEEEEEEEECI2NS0_6__baseILNS0_6_TraitE1EJS3_bxdS9_SI_EEEILm5EJRSI_EEENS_16in_place_index_tIXT_EEEDpOT0_, symObjAddr: 0x107BC, symBinAddr: 0x100011690, symSize: 0x34 }
  - { offsetInCU: 0x38DB2, offset: 0x38DB2, size: 0x8, addend: 0x0, symName: __ZNSt3__116__variant_detail6__dtorINS0_8__traitsIJNS_9monostateEbxdNS_12basic_stringIcNS_11char_traitsIcEENS_9allocatorIcEEEENS_8functionIF5ValueRKNS_6vectorISB_NS7_ISB_EEEEEEEEEELNS0_6_TraitE1EECI2NS0_6__baseILSK_1EJS3_bxdS9_SI_EEEILm5EJRSI_EEENS_16in_place_index_tIXT_EEEDpOT0_, symObjAddr: 0x107F0, symBinAddr: 0x1000116C4, symSize: 0x34 }
  - { offsetInCU: 0x38DF1, offset: 0x38DF1, size: 0x8, addend: 0x0, symName: __ZNSt3__116__variant_detail6__baseILNS0_6_TraitE1EJNS_9monostateEbxdNS_12basic_stringIcNS_11char_traitsIcEENS_9allocatorIcEEEENS_8functionIF5ValueRKNS_6vectorISB_NS7_ISB_EEEEEEEEEC2B8ue170006ILm5EJRSI_EEENS_16in_place_index_tIXT_EEEDpOT0_, symObjAddr: 0x10824, symBinAddr: 0x1000116F8, symSize: 0x3C }
  - { offsetInCU: 0x38E4B, offset: 0x38E4B, size: 0x8, addend: 0x0, symName: __ZNSt3__116__variant_detail7__unionILNS0_6_TraitE1ELm0EJNS_9monostateEbxdNS_12basic_stringIcNS_11char_traitsIcEENS_9allocatorIcEEEENS_8functionIF5ValueRKNS_6vectorISB_NS7_ISB_EEEEEEEEEC1B8ue170006ILm5EJRSI_EEENS_16in_place_index_tIXT_EEEDpOT0_, symObjAddr: 0x10860, symBinAddr: 0x100011734, symSize: 0x34 }
  - { offsetInCU: 0x38EA5, offset: 0x38EA5, size: 0x8, addend: 0x0, symName: __ZNSt3__116__variant_detail7__unionILNS0_6_TraitE1ELm0EJNS_9monostateEbxdNS_12basic_stringIcNS_11char_traitsIcEENS_9allocatorIcEEEENS_8functionIF5ValueRKNS_6vectorISB_NS7_ISB_EEEEEEEEEC2B8ue170006ILm5EJRSI_EEENS_16in_place_index_tIXT_EEEDpOT0_, symObjAddr: 0x10894, symBinAddr: 0x100011768, symSize: 0x34 }
  - { offsetInCU: 0x38EFF, offset: 0x38EFF, size: 0x8, addend: 0x0, symName: __ZNSt3__116__variant_detail7__unionILNS0_6_TraitE1ELm1EJbxdNS_12basic_stringIcNS_11char_traitsIcEENS_9allocatorIcEEEENS_8functionIF5ValueRKNS_6vectorISA_NS6_ISA_EEEEEEEEEC1B8ue170006ILm4EJRSH_EEENS_16in_place_index_tIXT_EEEDpOT0_, symObjAddr: 0x108C8, symBinAddr: 0x10001179C, symSize: 0x34 }
  - { offsetInCU: 0x38F59, offset: 0x38F59, size: 0x8, addend: 0x0, symName: __ZNSt3__116__variant_detail7__unionILNS0_6_TraitE1ELm1EJbxdNS_12basic_stringIcNS_11char_traitsIcEENS_9allocatorIcEEEENS_8functionIF5ValueRKNS_6vectorISA_NS6_ISA_EEEEEEEEEC2B8ue170006ILm4EJRSH_EEENS_16in_place_index_tIXT_EEEDpOT0_, symObjAddr: 0x108FC, symBinAddr: 0x1000117D0, symSize: 0x34 }
  - { offsetInCU: 0x38FB3, offset: 0x38FB3, size: 0x8, addend: 0x0, symName: __ZNSt3__116__variant_detail7__unionILNS0_6_TraitE1ELm2EJxdNS_12basic_stringIcNS_11char_traitsIcEENS_9allocatorIcEEEENS_8functionIF5ValueRKNS_6vectorISA_NS6_ISA_EEEEEEEEEC1B8ue170006ILm3EJRSH_EEENS_16in_place_index_tIXT_EEEDpOT0_, symObjAddr: 0x10930, symBinAddr: 0x100011804, symSize: 0x34 }
  - { offsetInCU: 0x3900D, offset: 0x3900D, size: 0x8, addend: 0x0, symName: __ZNSt3__116__variant_detail7__unionILNS0_6_TraitE1ELm2EJxdNS_12basic_stringIcNS_11char_traitsIcEENS_9allocatorIcEEEENS_8functionIF5ValueRKNS_6vectorISA_NS6_ISA_EEEEEEEEEC2B8ue170006ILm3EJRSH_EEENS_16in_place_index_tIXT_EEEDpOT0_, symObjAddr: 0x10964, symBinAddr: 0x100011838, symSize: 0x34 }
  - { offsetInCU: 0x39067, offset: 0x39067, size: 0x8, addend: 0x0, symName: __ZNSt3__116__variant_detail7__unionILNS0_6_TraitE1ELm3EJdNS_12basic_stringIcNS_11char_traitsIcEENS_9allocatorIcEEEENS_8functionIF5ValueRKNS_6vectorISA_NS6_ISA_EEEEEEEEEC1B8ue170006ILm2EJRSH_EEENS_16in_place_index_tIXT_EEEDpOT0_, symObjAddr: 0x10998, symBinAddr: 0x10001186C, symSize: 0x34 }
  - { offsetInCU: 0x390C1, offset: 0x390C1, size: 0x8, addend: 0x0, symName: __ZNSt3__116__variant_detail7__unionILNS0_6_TraitE1ELm3EJdNS_12basic_stringIcNS_11char_traitsIcEENS_9allocatorIcEEEENS_8functionIF5ValueRKNS_6vectorISA_NS6_ISA_EEEEEEEEEC2B8ue170006ILm2EJRSH_EEENS_16in_place_index_tIXT_EEEDpOT0_, symObjAddr: 0x109CC, symBinAddr: 0x1000118A0, symSize: 0x34 }
  - { offsetInCU: 0x3911B, offset: 0x3911B, size: 0x8, addend: 0x0, symName: __ZNSt3__116__variant_detail7__unionILNS0_6_TraitE1ELm4EJNS_12basic_stringIcNS_11char_traitsIcEENS_9allocatorIcEEEENS_8functionIF5ValueRKNS_6vectorISA_NS6_ISA_EEEEEEEEEC1B8ue170006ILm1EJRSH_EEENS_16in_place_index_tIXT_EEEDpOT0_, symObjAddr: 0x10A00, symBinAddr: 0x1000118D4, symSize: 0x34 }
  - { offsetInCU: 0x39175, offset: 0x39175, size: 0x8, addend: 0x0, symName: __ZNSt3__116__variant_detail7__unionILNS0_6_TraitE1ELm4EJNS_12basic_stringIcNS_11char_traitsIcEENS_9allocatorIcEEEENS_8functionIF5ValueRKNS_6vectorISA_NS6_ISA_EEEEEEEEEC2B8ue170006ILm1EJRSH_EEENS_16in_place_index_tIXT_EEEDpOT0_, symObjAddr: 0x10A34, symBinAddr: 0x100011908, symSize: 0x34 }
  - { offsetInCU: 0x391CF, offset: 0x391CF, size: 0x8, addend: 0x0, symName: __ZNSt3__116__variant_detail7__unionILNS0_6_TraitE1ELm5EJNS_8functionIF5ValueRKNS_6vectorIS4_NS_9allocatorIS4_EEEEEEEEEC1B8ue170006IJRSC_EEENS_16in_place_index_tILm0EEEDpOT_, symObjAddr: 0x10A68, symBinAddr: 0x10001193C, symSize: 0x34 }
  - { offsetInCU: 0x3921F, offset: 0x3921F, size: 0x8, addend: 0x0, symName: __ZNSt3__116__variant_detail7__unionILNS0_6_TraitE1ELm5EJNS_8functionIF5ValueRKNS_6vectorIS4_NS_9allocatorIS4_EEEEEEEEEC2B8ue170006IJRSC_EEENS_16in_place_index_tILm0EEEDpOT_, symObjAddr: 0x10A9C, symBinAddr: 0x100011970, symSize: 0x34 }
  - { offsetInCU: 0x3926F, offset: 0x3926F, size: 0x8, addend: 0x0, symName: __ZNSt3__116__variant_detail5__altILm5ENS_8functionIF5ValueRKNS_6vectorIS3_NS_9allocatorIS3_EEEEEEEEC1B8ue170006IJRSB_EEENS_10in_place_tEDpOT_, symObjAddr: 0x10AD0, symBinAddr: 0x1000119A4, symSize: 0x34 }
  - { offsetInCU: 0x392BF, offset: 0x392BF, size: 0x8, addend: 0x0, symName: __ZNSt3__116__variant_detail5__altILm5ENS_8functionIF5ValueRKNS_6vectorIS3_NS_9allocatorIS3_EEEEEEEEC2B8ue170006IJRSB_EEENS_10in_place_tEDpOT_, symObjAddr: 0x10B04, symBinAddr: 0x1000119D8, symSize: 0x34 }
  - { offsetInCU: 0x3930F, offset: 0x3930F, size: 0x8, addend: 0x0, symName: __ZNSt3__18functionIF5ValueRKNS_6vectorIS1_NS_9allocatorIS1_EEEEEEC1ERKS9_, symObjAddr: 0x10B38, symBinAddr: 0x100011A0C, symSize: 0x34 }
  - { offsetInCU: 0x3934A, offset: 0x3934A, size: 0x8, addend: 0x0, symName: __ZNSt3__18functionIF5ValueRKNS_6vectorIS1_NS_9allocatorIS1_EEEEEEC2ERKS9_, symObjAddr: 0x10B6C, symBinAddr: 0x100011A40, symSize: 0x34 }
  - { offsetInCU: 0x39385, offset: 0x39385, size: 0x8, addend: 0x0, symName: __ZNSt3__110__function12__value_funcIF5ValueRKNS_6vectorIS2_NS_9allocatorIS2_EEEEEEC1B8ue170006ERKSA_, symObjAddr: 0x10BA0, symBinAddr: 0x100011A74, symSize: 0x34 }
  - { offsetInCU: 0x393BE, offset: 0x393BE, size: 0x8, addend: 0x0, symName: __ZNSt3__110__function12__value_funcIF5ValueRKNS_6vectorIS2_NS_9allocatorIS2_EEEEEEC2B8ue170006ERKSA_, symObjAddr: 0x10BD4, symBinAddr: 0x100011AA8, symSize: 0xC0 }
  - { offsetInCU: 0x393F7, offset: 0x393F7, size: 0x8, addend: 0x0, symName: __ZNSt3__110__function12__value_funcIF5ValueRKNS_6vectorIS2_NS_9allocatorIS2_EEEEEE9__as_baseB8ue170006EPv, symObjAddr: 0x10C94, symBinAddr: 0x100011B68, symSize: 0x14 }
  - { offsetInCU: 0x3941B, offset: 0x3941B, size: 0x8, addend: 0x0, symName: __ZNSt3__112basic_stringIcNS_11char_traitsIcEENS_9allocatorIcEEEC2B8ue170006ILi0EEEPKc, symObjAddr: 0x10CA8, symBinAddr: 0x100011B7C, symSize: 0x58 }
  - { offsetInCU: 0x3945A, offset: 0x3945A, size: 0x8, addend: 0x0, symName: __ZNSt3__17variantIJNS_9monostateEbxdNS_12basic_stringIcNS_11char_traitsIcEENS_9allocatorIcEEEENS_8functionIF5ValueRKNS_6vectorIS9_NS5_IS9_EEEEEEEEEaSB8ue170006EOSH_, symObjAddr: 0x10D00, symBinAddr: 0x100011BD4, symSize: 0x34 }
  - { offsetInCU: 0x3948C, offset: 0x3948C, size: 0x8, addend: 0x0, symName: __ZNSt3__116__variant_detail6__implIJNS_9monostateEbxdNS_12basic_stringIcNS_11char_traitsIcEENS_9allocatorIcEEEENS_8functionIF5ValueRKNS_6vectorISA_NS6_ISA_EEEEEEEEEaSB8ue170006EOSI_, symObjAddr: 0x10D34, symBinAddr: 0x100011C08, symSize: 0x34 }
  - { offsetInCU: 0x394BE, offset: 0x394BE, size: 0x8, addend: 0x0, symName: __ZNSt3__116__variant_detail17__copy_assignmentINS0_8__traitsIJNS_9monostateEbxdNS_12basic_stringIcNS_11char_traitsIcEENS_9allocatorIcEEEENS_8functionIF5ValueRKNS_6vectorISB_NS7_ISB_EEEEEEEEEELNS0_6_TraitE1EEaSEOSL_, symObjAddr: 0x10D68, symBinAddr: 0x100011C3C, symSize: 0x34 }
  - { offsetInCU: 0x394F0, offset: 0x394F0, size: 0x8, addend: 0x0, symName: __ZNSt3__116__variant_detail17__move_assignmentINS0_8__traitsIJNS_9monostateEbxdNS_12basic_stringIcNS_11char_traitsIcEENS_9allocatorIcEEEENS_8functionIF5ValueRKNS_6vectorISB_NS7_ISB_EEEEEEEEEELNS0_6_TraitE1EEaSEOSL_, symObjAddr: 0x10D9C, symBinAddr: 0x100011C70, symSize: 0x3C }
  - { offsetInCU: 0x39525, offset: 0x39525, size: 0x8, addend: 0x0, symName: __ZNSt3__116__variant_detail12__assignmentINS0_8__traitsIJNS_9monostateEbxdNS_12basic_stringIcNS_11char_traitsIcEENS_9allocatorIcEEEENS_8functionIF5ValueRKNS_6vectorISB_NS7_ISB_EEEEEEEEEEE16__generic_assignB8ue170006INS0_17__move_assignmentISJ_LNS0_6_TraitE1EEEEEvOT_, symObjAddr: 0x10DD8, symBinAddr: 0x100011CAC, symSize: 0x88 }
  - { offsetInCU: 0x39689, offset: 0x39689, size: 0x8, addend: 0x0, symName: __ZNSt3__116__variant_detail12__visitation6__base14__visit_alt_atB8ue170006IZNS0_12__assignmentINS0_8__traitsIJNS_9monostateEbxdNS_12basic_stringIcNS_11char_traitsIcEENS_9allocatorIcEEEENS_8functionIF5ValueRKNS_6vectorISE_NSA_ISE_EEEEEEEEEEE16__generic_assignB8ue170006INS0_17__move_assignmentISM_LNS0_6_TraitE1EEEEEvOT_EUlRSS_OT0_E_JRSN_SR_EEEDcmST_DpOT0_, symObjAddr: 0x10E60, symBinAddr: 0x100011D34, symSize: 0x84 }
  - { offsetInCU: 0x39707, offset: 0x39707, size: 0x8, addend: 0x0, symName: __ZNSt3__116__variant_detail12__visitation6__base12__dispatcherIJLm0ELm0EEE10__dispatchB8ue170006IOZNS0_12__assignmentINS0_8__traitsIJNS_9monostateEbxdNS_12basic_stringIcNS_11char_traitsIcEENS_9allocatorIcEEEENS_8functionIF5ValueRKNS_6vectorISG_NSC_ISG_EEEEEEEEEEE16__generic_assignB8ue170006INS0_17__move_assignmentISO_LNS0_6_TraitE1EEEEEvOT_EUlRSU_OT0_E_JRNS0_6__baseILSS_1EJS8_bxdSE_SN_EEEOS12_EEEDcSU_DpT0_, symObjAddr: 0x10EE4, symBinAddr: 0x100011DB8, symSize: 0x50 }
  - { offsetInCU: 0x39762, offset: 0x39762, size: 0x8, addend: 0x0, symName: __ZNSt3__116__variant_detail12__visitation6__base12__dispatcherIJLm1ELm1EEE10__dispatchB8ue170006IOZNS0_12__assignmentINS0_8__traitsIJNS_9monostateEbxdNS_12basic_stringIcNS_11char_traitsIcEENS_9allocatorIcEEEENS_8functionIF5ValueRKNS_6vectorISG_NSC_ISG_EEEEEEEEEEE16__generic_assignB8ue170006INS0_17__move_assignmentISO_LNS0_6_TraitE1EEEEEvOT_EUlRSU_OT0_E_JRNS0_6__baseILSS_1EJS8_bxdSE_SN_EEEOS12_EEEDcSU_DpT0_, symObjAddr: 0x10F34, symBinAddr: 0x100011E08, symSize: 0x50 }
  - { offsetInCU: 0x397BD, offset: 0x397BD, size: 0x8, addend: 0x0, symName: __ZNSt3__116__variant_detail12__visitation6__base12__dispatcherIJLm2ELm2EEE10__dispatchB8ue170006IOZNS0_12__assignmentINS0_8__traitsIJNS_9monostateEbxdNS_12basic_stringIcNS_11char_traitsIcEENS_9allocatorIcEEEENS_8functionIF5ValueRKNS_6vectorISG_NSC_ISG_EEEEEEEEEEE16__generic_assignB8ue170006INS0_17__move_assignmentISO_LNS0_6_TraitE1EEEEEvOT_EUlRSU_OT0_E_JRNS0_6__baseILSS_1EJS8_bxdSE_SN_EEEOS12_EEEDcSU_DpT0_, symObjAddr: 0x10F84, symBinAddr: 0x100011E58, symSize: 0x50 }
  - { offsetInCU: 0x39818, offset: 0x39818, size: 0x8, addend: 0x0, symName: __ZNSt3__116__variant_detail12__visitation6__base12__dispatcherIJLm3ELm3EEE10__dispatchB8ue170006IOZNS0_12__assignmentINS0_8__traitsIJNS_9monostateEbxdNS_12basic_stringIcNS_11char_traitsIcEENS_9allocatorIcEEEENS_8functionIF5ValueRKNS_6vectorISG_NSC_ISG_EEEEEEEEEEE16__generic_assignB8ue170006INS0_17__move_assignmentISO_LNS0_6_TraitE1EEEEEvOT_EUlRSU_OT0_E_JRNS0_6__baseILSS_1EJS8_bxdSE_SN_EEEOS12_EEEDcSU_DpT0_, symObjAddr: 0x10FD4, symBinAddr: 0x100011EA8, symSize: 0x50 }
  - { offsetInCU: 0x39873, offset: 0x39873, size: 0x8, addend: 0x0, symName: __ZNSt3__116__variant_detail12__visitation6__base12__dispatcherIJLm4ELm4EEE10__dispatchB8ue170006IOZNS0_12__assignmentINS0_8__traitsIJNS_9monostateEbxdNS_12basic_stringIcNS_11char_traitsIcEENS_9allocatorIcEEEENS_8functionIF5ValueRKNS_6vectorISG_NSC_ISG_EEEEEEEEEEE16__generic_assignB8ue170006INS0_17__move_assignmentISO_LNS0_6_TraitE1EEEEEvOT_EUlRSU_OT0_E_JRNS0_6__baseILSS_1EJS8_bxdSE_SN_EEEOS12_EEEDcSU_DpT0_, symObjAddr: 0x11024, symBinAddr: 0x100011EF8, symSize: 0x50 }
  - { offsetInCU: 0x398CE, offset: 0x398CE, size: 0x8, addend: 0x0, symName: __ZNSt3__116__variant_detail12__visitation6__base12__dispatcherIJLm5ELm5EEE10__dispatchB8ue170006IOZNS0_12__assignmentINS0_8__traitsIJNS_9monostateEbxdNS_12basic_stringIcNS_11char_traitsIcEENS_9allocatorIcEEEENS_8functionIF5ValueRKNS_6vectorISG_NSC_ISG_EEEEEEEEEEE16__generic_assignB8ue170006INS0_17__move_assignmentISO_LNS0_6_TraitE1EEEEEvOT_EUlRSU_OT0_E_JRNS0_6__baseILSS_1EJS8_bxdSE_SN_EEEOS12_EEEDcSU_DpT0_, symObjAddr: 0x11074, symBinAddr: 0x100011F48, symSize: 0x50 }
  - { offsetInCU: 0x39962, offset: 0x39962, size: 0x8, addend: 0x0, symName: __ZNKSt3__18__farrayIPFvOZNS_16__variant_detail12__assignmentINS1_8__traitsIJNS_9monostateEbxdNS_12basic_stringIcNS_11char_traitsIcEENS_9allocatorIcEEEENS_8functionIF5ValueRKNS_6vectorISC_NS8_ISC_EEEEEEEEEEE16__generic_assignB8ue170006INS1_17__move_assignmentISK_LNS1_6_TraitE1EEEEEvOT_EUlRSQ_OT0_E_RNS1_6__baseILSO_1EJS4_bxdSA_SJ_EEEOSY_ELm6EEixB8ue170006Em, symObjAddr: 0x110C4, symBinAddr: 0x100011F98, symSize: 0x20 }
  - { offsetInCU: 0x3999C, offset: 0x3999C, size: 0x8, addend: 0x0, symName: __ZNOSt3__116__variant_detail6__baseILNS0_6_TraitE1EJNS_9monostateEbxdNS_12basic_stringIcNS_11char_traitsIcEENS_9allocatorIcEEEENS_8functionIF5ValueRKNS_6vectorISB_NS7_ISB_EEEEEEEEE9__as_baseB8ue170006Ev, symObjAddr: 0x110E4, symBinAddr: 0x100011FB8, symSize: 0x14 }
  - { offsetInCU: 0x399C7, offset: 0x399C7, size: 0x8, addend: 0x0, symName: __ZNSt3__116__variant_detail8__access6__base9__get_altB8ue170006ILm0ENS0_6__baseILNS0_6_TraitE1EJNS_9monostateEbxdNS_12basic_stringIcNS_11char_traitsIcEENS_9allocatorIcEEEENS_8functionIF5ValueRKNS_6vectorISE_NSA_ISE_EEEEEEEEEEEEODaOT0_, symObjAddr: 0x1112C, symBinAddr: 0x100012000, symSize: 0x24 }
  - { offsetInCU: 0x39A08, offset: 0x39A08, size: 0x8, addend: 0x0, symName: __ZZNSt3__116__variant_detail12__assignmentINS0_8__traitsIJNS_9monostateEbxdNS_12basic_stringIcNS_11char_traitsIcEENS_9allocatorIcEEEENS_8functionIF5ValueRKNS_6vectorISB_NS7_ISB_EEEEEEEEEEE16__generic_assignB8ue170006INS0_17__move_assignmentISJ_LNS0_6_TraitE1EEEEEvOT_ENKUlRSP_OT0_E_clINS0_5__altILm0ES3_EESX_EEDaSR_ST_, symObjAddr: 0x11150, symBinAddr: 0x100012024, symSize: 0x38 }
  - { offsetInCU: 0x39A67, offset: 0x39A67, size: 0x8, addend: 0x0, symName: __ZNSt3__116__variant_detail12__assignmentINS0_8__traitsIJNS_9monostateEbxdNS_12basic_stringIcNS_11char_traitsIcEENS_9allocatorIcEEEENS_8functionIF5ValueRKNS_6vectorISB_NS7_ISB_EEEEEEEEEEE12__assign_altB8ue170006ILm0ES3_S3_EEvRNS0_5__altIXT_ET0_EEOT1_, symObjAddr: 0x11188, symBinAddr: 0x10001205C, symSize: 0x60 }
  - { offsetInCU: 0x39B36, offset: 0x39B36, size: 0x8, addend: 0x0, symName: __ZZNSt3__116__variant_detail12__assignmentINS0_8__traitsIJNS_9monostateEbxdNS_12basic_stringIcNS_11char_traitsIcEENS_9allocatorIcEEEENS_8functionIF5ValueRKNS_6vectorISB_NS7_ISB_EEEEEEEEEEE12__assign_altB8ue170006ILm0ES3_S3_EEvRNS0_5__altIXT_ET0_EEOT1_ENKUt_clB8ue170006ENS_17integral_constantIbLb1EEE, symObjAddr: 0x111E8, symBinAddr: 0x1000120BC, symSize: 0x2C }
  - { offsetInCU: 0x39B71, offset: 0x39B71, size: 0x8, addend: 0x0, symName: __ZNSt3__116__variant_detail12__assignmentINS0_8__traitsIJNS_9monostateEbxdNS_12basic_stringIcNS_11char_traitsIcEENS_9allocatorIcEEEENS_8functionIF5ValueRKNS_6vectorISB_NS7_ISB_EEEEEEEEEEE9__emplaceB8ue170006ILm0EJS3_EEERDaDpOT0_, symObjAddr: 0x11214, symBinAddr: 0x1000120E8, symSize: 0x4C }
  - { offsetInCU: 0x39BCA, offset: 0x39BCA, size: 0x8, addend: 0x0, symName: __ZNSt3__116__variant_detail6__ctorINS0_8__traitsIJNS_9monostateEbxdNS_12basic_stringIcNS_11char_traitsIcEENS_9allocatorIcEEEENS_8functionIF5ValueRKNS_6vectorISB_NS7_ISB_EEEEEEEEEEE15__construct_altB8ue170006ILm0ES3_JS3_EEERT0_RNS0_5__altIXT_ESM_EEDpOT1_, symObjAddr: 0x11260, symBinAddr: 0x100012134, symSize: 0x30 }
  - { offsetInCU: 0x39C1B, offset: 0x39C1B, size: 0x8, addend: 0x0, symName: __ZNSt3__116__variant_detail8__access6__base9__get_altB8ue170006ILm0ERNS0_12__assignmentINS0_8__traitsIJNS_9monostateEbxdNS_12basic_stringIcNS_11char_traitsIcEENS_9allocatorIcEEEENS_8functionIF5ValueRKNS_6vectorISE_NSA_ISE_EEEEEEEEEEEEEEODaOT0_, symObjAddr: 0x11290, symBinAddr: 0x100012164, symSize: 0x24 }
  - { offsetInCU: 0x39C57, offset: 0x39C57, size: 0x8, addend: 0x0, symName: __ZNSt3__116__variant_detail5__altILm0ENS_9monostateEEC1B8ue170006IJS2_EEENS_10in_place_tEDpOT_, symObjAddr: 0x112B4, symBinAddr: 0x100012188, symSize: 0x34 }
  - { offsetInCU: 0x39CA7, offset: 0x39CA7, size: 0x8, addend: 0x0, symName: __ZNSt3__116__variant_detail5__altILm0ENS_9monostateEEC2B8ue170006IJS2_EEENS_10in_place_tEDpOT_, symObjAddr: 0x112E8, symBinAddr: 0x1000121BC, symSize: 0x18 }
  - { offsetInCU: 0x39CF7, offset: 0x39CF7, size: 0x8, addend: 0x0, symName: __ZNSt3__116__variant_detail8__access7__union9__get_altB8ue170006INS0_7__unionILNS0_6_TraitE1ELm0EJNS_9monostateEbxdNS_12basic_stringIcNS_11char_traitsIcEENS_9allocatorIcEEEENS_8functionIF5ValueRKNS_6vectorISE_NSA_ISE_EEEEEEEEEEEEODaOT_NS_16in_place_index_tILm0EEE, symObjAddr: 0x11300, symBinAddr: 0x1000121D4, symSize: 0x14 }
  - { offsetInCU: 0x39D30, offset: 0x39D30, size: 0x8, addend: 0x0, symName: __ZNSt3__116__variant_detail8__access6__base9__get_altB8ue170006ILm1ENS0_6__baseILNS0_6_TraitE1EJNS_9monostateEbxdNS_12basic_stringIcNS_11char_traitsIcEENS_9allocatorIcEEEENS_8functionIF5ValueRKNS_6vectorISE_NSA_ISE_EEEEEEEEEEEEODaOT0_, symObjAddr: 0x11348, symBinAddr: 0x10001221C, symSize: 0x24 }
  - { offsetInCU: 0x39D67, offset: 0x39D67, size: 0x8, addend: 0x0, symName: __ZZNSt3__116__variant_detail12__assignmentINS0_8__traitsIJNS_9monostateEbxdNS_12basic_stringIcNS_11char_traitsIcEENS_9allocatorIcEEEENS_8functionIF5ValueRKNS_6vectorISB_NS7_ISB_EEEEEEEEEEE16__generic_assignB8ue170006INS0_17__move_assignmentISJ_LNS0_6_TraitE1EEEEEvOT_ENKUlRSP_OT0_E_clINS0_5__altILm1EbEESX_EEDaSR_ST_, symObjAddr: 0x1136C, symBinAddr: 0x100012240, symSize: 0x38 }
  - { offsetInCU: 0x39DC6, offset: 0x39DC6, size: 0x8, addend: 0x0, symName: __ZNSt3__116__variant_detail12__assignmentINS0_8__traitsIJNS_9monostateEbxdNS_12basic_stringIcNS_11char_traitsIcEENS_9allocatorIcEEEENS_8functionIF5ValueRKNS_6vectorISB_NS7_ISB_EEEEEEEEEEE12__assign_altB8ue170006ILm1EbbEEvRNS0_5__altIXT_ET0_EEOT1_, symObjAddr: 0x113A4, symBinAddr: 0x100012278, symSize: 0x74 }
  - { offsetInCU: 0x39E95, offset: 0x39E95, size: 0x8, addend: 0x0, symName: __ZZNSt3__116__variant_detail12__assignmentINS0_8__traitsIJNS_9monostateEbxdNS_12basic_stringIcNS_11char_traitsIcEENS_9allocatorIcEEEENS_8functionIF5ValueRKNS_6vectorISB_NS7_ISB_EEEEEEEEEEE12__assign_altB8ue170006ILm1EbbEEvRNS0_5__altIXT_ET0_EEOT1_ENKUt_clB8ue170006ENS_17integral_constantIbLb1EEE, symObjAddr: 0x11418, symBinAddr: 0x1000122EC, symSize: 0x2C }
  - { offsetInCU: 0x39ECB, offset: 0x39ECB, size: 0x8, addend: 0x0, symName: __ZNSt3__116__variant_detail12__assignmentINS0_8__traitsIJNS_9monostateEbxdNS_12basic_stringIcNS_11char_traitsIcEENS_9allocatorIcEEEENS_8functionIF5ValueRKNS_6vectorISB_NS7_ISB_EEEEEEEEEEE9__emplaceB8ue170006ILm1EJbEEERDaDpOT0_, symObjAddr: 0x11444, symBinAddr: 0x100012318, symSize: 0x50 }
  - { offsetInCU: 0x39F24, offset: 0x39F24, size: 0x8, addend: 0x0, symName: __ZNSt3__116__variant_detail6__ctorINS0_8__traitsIJNS_9monostateEbxdNS_12basic_stringIcNS_11char_traitsIcEENS_9allocatorIcEEEENS_8functionIF5ValueRKNS_6vectorISB_NS7_ISB_EEEEEEEEEEE15__construct_altB8ue170006ILm1EbJbEEERT0_RNS0_5__altIXT_ESM_EEDpOT1_, symObjAddr: 0x11494, symBinAddr: 0x100012368, symSize: 0x30 }
  - { offsetInCU: 0x39F75, offset: 0x39F75, size: 0x8, addend: 0x0, symName: __ZNSt3__116__variant_detail8__access6__base9__get_altB8ue170006ILm1ERNS0_12__assignmentINS0_8__traitsIJNS_9monostateEbxdNS_12basic_stringIcNS_11char_traitsIcEENS_9allocatorIcEEEENS_8functionIF5ValueRKNS_6vectorISE_NSA_ISE_EEEEEEEEEEEEEEODaOT0_, symObjAddr: 0x114C4, symBinAddr: 0x100012398, symSize: 0x24 }
  - { offsetInCU: 0x39FAC, offset: 0x39FAC, size: 0x8, addend: 0x0, symName: __ZNSt3__116__variant_detail5__altILm1EbEC1B8ue170006IJbEEENS_10in_place_tEDpOT_, symObjAddr: 0x114E8, symBinAddr: 0x1000123BC, symSize: 0x34 }
  - { offsetInCU: 0x39FFC, offset: 0x39FFC, size: 0x8, addend: 0x0, symName: __ZNSt3__116__variant_detail5__altILm1EbEC2B8ue170006IJbEEENS_10in_place_tEDpOT_, symObjAddr: 0x1151C, symBinAddr: 0x1000123F0, symSize: 0x28 }
  - { offsetInCU: 0x3A051, offset: 0x3A051, size: 0x8, addend: 0x0, symName: __ZNSt3__116__variant_detail8__access6__base9__get_altB8ue170006ILm2ENS0_6__baseILNS0_6_TraitE1EJNS_9monostateEbxdNS_12basic_stringIcNS_11char_traitsIcEENS_9allocatorIcEEEENS_8functionIF5ValueRKNS_6vectorISE_NSA_ISE_EEEEEEEEEEEEODaOT0_, symObjAddr: 0x11578, symBinAddr: 0x10001244C, symSize: 0x24 }
  - { offsetInCU: 0x3A088, offset: 0x3A088, size: 0x8, addend: 0x0, symName: __ZZNSt3__116__variant_detail12__assignmentINS0_8__traitsIJNS_9monostateEbxdNS_12basic_stringIcNS_11char_traitsIcEENS_9allocatorIcEEEENS_8functionIF5ValueRKNS_6vectorISB_NS7_ISB_EEEEEEEEEEE16__generic_assignB8ue170006INS0_17__move_assignmentISJ_LNS0_6_TraitE1EEEEEvOT_ENKUlRSP_OT0_E_clINS0_5__altILm2ExEESX_EEDaSR_ST_, symObjAddr: 0x1159C, symBinAddr: 0x100012470, symSize: 0x38 }
  - { offsetInCU: 0x3A0E7, offset: 0x3A0E7, size: 0x8, addend: 0x0, symName: __ZNSt3__116__variant_detail12__assignmentINS0_8__traitsIJNS_9monostateEbxdNS_12basic_stringIcNS_11char_traitsIcEENS_9allocatorIcEEEENS_8functionIF5ValueRKNS_6vectorISB_NS7_ISB_EEEEEEEEEEE12__assign_altB8ue170006ILm2ExxEEvRNS0_5__altIXT_ET0_EEOT1_, symObjAddr: 0x115D4, symBinAddr: 0x1000124A8, symSize: 0x70 }
  - { offsetInCU: 0x3A1B6, offset: 0x3A1B6, size: 0x8, addend: 0x0, symName: __ZZNSt3__116__variant_detail12__assignmentINS0_8__traitsIJNS_9monostateEbxdNS_12basic_stringIcNS_11char_traitsIcEENS_9allocatorIcEEEENS_8functionIF5ValueRKNS_6vectorISB_NS7_ISB_EEEEEEEEEEE12__assign_altB8ue170006ILm2ExxEEvRNS0_5__altIXT_ET0_EEOT1_ENKUt_clB8ue170006ENS_17integral_constantIbLb1EEE, symObjAddr: 0x11644, symBinAddr: 0x100012518, symSize: 0x2C }
  - { offsetInCU: 0x3A1EC, offset: 0x3A1EC, size: 0x8, addend: 0x0, symName: __ZNSt3__116__variant_detail12__assignmentINS0_8__traitsIJNS_9monostateEbxdNS_12basic_stringIcNS_11char_traitsIcEENS_9allocatorIcEEEENS_8functionIF5ValueRKNS_6vectorISB_NS7_ISB_EEEEEEEEEEE9__emplaceB8ue170006ILm2EJxEEERDaDpOT0_, symObjAddr: 0x11670, symBinAddr: 0x100012544, symSize: 0x50 }
  - { offsetInCU: 0x3A245, offset: 0x3A245, size: 0x8, addend: 0x0, symName: __ZNSt3__116__variant_detail6__ctorINS0_8__traitsIJNS_9monostateEbxdNS_12basic_stringIcNS_11char_traitsIcEENS_9allocatorIcEEEENS_8functionIF5ValueRKNS_6vectorISB_NS7_ISB_EEEEEEEEEEE15__construct_altB8ue170006ILm2ExJxEEERT0_RNS0_5__altIXT_ESM_EEDpOT1_, symObjAddr: 0x116C0, symBinAddr: 0x100012594, symSize: 0x30 }
  - { offsetInCU: 0x3A296, offset: 0x3A296, size: 0x8, addend: 0x0, symName: __ZNSt3__116__variant_detail8__access6__base9__get_altB8ue170006ILm2ERNS0_12__assignmentINS0_8__traitsIJNS_9monostateEbxdNS_12basic_stringIcNS_11char_traitsIcEENS_9allocatorIcEEEENS_8functionIF5ValueRKNS_6vectorISE_NSA_ISE_EEEEEEEEEEEEEEODaOT0_, symObjAddr: 0x116F0, symBinAddr: 0x1000125C4, symSize: 0x24 }
  - { offsetInCU: 0x3A2CD, offset: 0x3A2CD, size: 0x8, addend: 0x0, symName: __ZNSt3__116__variant_detail5__altILm2ExEC1B8ue170006IJxEEENS_10in_place_tEDpOT_, symObjAddr: 0x11714, symBinAddr: 0x1000125E8, symSize: 0x34 }
  - { offsetInCU: 0x3A31D, offset: 0x3A31D, size: 0x8, addend: 0x0, symName: __ZNSt3__116__variant_detail5__altILm2ExEC2B8ue170006IJxEEENS_10in_place_tEDpOT_, symObjAddr: 0x11748, symBinAddr: 0x10001261C, symSize: 0x24 }
  - { offsetInCU: 0x3A36D, offset: 0x3A36D, size: 0x8, addend: 0x0, symName: __ZNSt3__116__variant_detail8__access7__union9__get_altB8ue170006INS0_7__unionILNS0_6_TraitE1ELm0EJNS_9monostateEbxdNS_12basic_stringIcNS_11char_traitsIcEENS_9allocatorIcEEEENS_8functionIF5ValueRKNS_6vectorISE_NSA_ISE_EEEEEEEEEELm2EEEODaOT_NS_16in_place_index_tIXT0_EEE, symObjAddr: 0x1176C, symBinAddr: 0x100012640, symSize: 0x24 }
  - { offsetInCU: 0x3A3B0, offset: 0x3A3B0, size: 0x8, addend: 0x0, symName: __ZNSt3__116__variant_detail8__access7__union9__get_altB8ue170006INS0_7__unionILNS0_6_TraitE1ELm1EJbxdNS_12basic_stringIcNS_11char_traitsIcEENS_9allocatorIcEEEENS_8functionIF5ValueRKNS_6vectorISD_NS9_ISD_EEEEEEEEEELm1EEEODaOT_NS_16in_place_index_tIXT0_EEE, symObjAddr: 0x11790, symBinAddr: 0x100012664, symSize: 0x24 }
  - { offsetInCU: 0x3A3F3, offset: 0x3A3F3, size: 0x8, addend: 0x0, symName: __ZNSt3__116__variant_detail8__access7__union9__get_altB8ue170006INS0_7__unionILNS0_6_TraitE1ELm2EJxdNS_12basic_stringIcNS_11char_traitsIcEENS_9allocatorIcEEEENS_8functionIF5ValueRKNS_6vectorISD_NS9_ISD_EEEEEEEEEEEEODaOT_NS_16in_place_index_tILm0EEE, symObjAddr: 0x117B4, symBinAddr: 0x100012688, symSize: 0x14 }
  - { offsetInCU: 0x3A431, offset: 0x3A431, size: 0x8, addend: 0x0, symName: __ZNSt3__116__variant_detail8__access6__base9__get_altB8ue170006ILm3ENS0_6__baseILNS0_6_TraitE1EJNS_9monostateEbxdNS_12basic_stringIcNS_11char_traitsIcEENS_9allocatorIcEEEENS_8functionIF5ValueRKNS_6vectorISE_NSA_ISE_EEEEEEEEEEEEODaOT0_, symObjAddr: 0x117FC, symBinAddr: 0x1000126D0, symSize: 0x24 }
  - { offsetInCU: 0x3A468, offset: 0x3A468, size: 0x8, addend: 0x0, symName: __ZZNSt3__116__variant_detail12__assignmentINS0_8__traitsIJNS_9monostateEbxdNS_12basic_stringIcNS_11char_traitsIcEENS_9allocatorIcEEEENS_8functionIF5ValueRKNS_6vectorISB_NS7_ISB_EEEEEEEEEEE16__generic_assignB8ue170006INS0_17__move_assignmentISJ_LNS0_6_TraitE1EEEEEvOT_ENKUlRSP_OT0_E_clINS0_5__altILm3EdEESX_EEDaSR_ST_, symObjAddr: 0x11820, symBinAddr: 0x1000126F4, symSize: 0x38 }
  - { offsetInCU: 0x3A4C7, offset: 0x3A4C7, size: 0x8, addend: 0x0, symName: __ZNSt3__116__variant_detail12__assignmentINS0_8__traitsIJNS_9monostateEbxdNS_12basic_stringIcNS_11char_traitsIcEENS_9allocatorIcEEEENS_8functionIF5ValueRKNS_6vectorISB_NS7_ISB_EEEEEEEEEEE12__assign_altB8ue170006ILm3EddEEvRNS0_5__altIXT_ET0_EEOT1_, symObjAddr: 0x11858, symBinAddr: 0x10001272C, symSize: 0x70 }
  - { offsetInCU: 0x3A596, offset: 0x3A596, size: 0x8, addend: 0x0, symName: __ZZNSt3__116__variant_detail12__assignmentINS0_8__traitsIJNS_9monostateEbxdNS_12basic_stringIcNS_11char_traitsIcEENS_9allocatorIcEEEENS_8functionIF5ValueRKNS_6vectorISB_NS7_ISB_EEEEEEEEEEE12__assign_altB8ue170006ILm3EddEEvRNS0_5__altIXT_ET0_EEOT1_ENKUt_clB8ue170006ENS_17integral_constantIbLb1EEE, symObjAddr: 0x118C8, symBinAddr: 0x10001279C, symSize: 0x2C }
  - { offsetInCU: 0x3A5CC, offset: 0x3A5CC, size: 0x8, addend: 0x0, symName: __ZNSt3__116__variant_detail12__assignmentINS0_8__traitsIJNS_9monostateEbxdNS_12basic_stringIcNS_11char_traitsIcEENS_9allocatorIcEEEENS_8functionIF5ValueRKNS_6vectorISB_NS7_ISB_EEEEEEEEEEE9__emplaceB8ue170006ILm3EJdEEERDaDpOT0_, symObjAddr: 0x118F4, symBinAddr: 0x1000127C8, symSize: 0x50 }
  - { offsetInCU: 0x3A625, offset: 0x3A625, size: 0x8, addend: 0x0, symName: __ZNSt3__116__variant_detail6__ctorINS0_8__traitsIJNS_9monostateEbxdNS_12basic_stringIcNS_11char_traitsIcEENS_9allocatorIcEEEENS_8functionIF5ValueRKNS_6vectorISB_NS7_ISB_EEEEEEEEEEE15__construct_altB8ue170006ILm3EdJdEEERT0_RNS0_5__altIXT_ESM_EEDpOT1_, symObjAddr: 0x11944, symBinAddr: 0x100012818, symSize: 0x30 }
  - { offsetInCU: 0x3A676, offset: 0x3A676, size: 0x8, addend: 0x0, symName: __ZNSt3__116__variant_detail8__access6__base9__get_altB8ue170006ILm3ERNS0_12__assignmentINS0_8__traitsIJNS_9monostateEbxdNS_12basic_stringIcNS_11char_traitsIcEENS_9allocatorIcEEEENS_8functionIF5ValueRKNS_6vectorISE_NSA_ISE_EEEEEEEEEEEEEEODaOT0_, symObjAddr: 0x11974, symBinAddr: 0x100012848, symSize: 0x24 }
  - { offsetInCU: 0x3A6AD, offset: 0x3A6AD, size: 0x8, addend: 0x0, symName: __ZNSt3__116__variant_detail5__altILm3EdEC1B8ue170006IJdEEENS_10in_place_tEDpOT_, symObjAddr: 0x11998, symBinAddr: 0x10001286C, symSize: 0x34 }
  - { offsetInCU: 0x3A6FD, offset: 0x3A6FD, size: 0x8, addend: 0x0, symName: __ZNSt3__116__variant_detail5__altILm3EdEC2B8ue170006IJdEEENS_10in_place_tEDpOT_, symObjAddr: 0x119CC, symBinAddr: 0x1000128A0, symSize: 0x24 }
  - { offsetInCU: 0x3A74D, offset: 0x3A74D, size: 0x8, addend: 0x0, symName: __ZNSt3__116__variant_detail8__access7__union9__get_altB8ue170006INS0_7__unionILNS0_6_TraitE1ELm0EJNS_9monostateEbxdNS_12basic_stringIcNS_11char_traitsIcEENS_9allocatorIcEEEENS_8functionIF5ValueRKNS_6vectorISE_NSA_ISE_EEEEEEEEEELm3EEEODaOT_NS_16in_place_index_tIXT0_EEE, symObjAddr: 0x119F0, symBinAddr: 0x1000128C4, symSize: 0x24 }
  - { offsetInCU: 0x3A790, offset: 0x3A790, size: 0x8, addend: 0x0, symName: __ZNSt3__116__variant_detail8__access7__union9__get_altB8ue170006INS0_7__unionILNS0_6_TraitE1ELm1EJbxdNS_12basic_stringIcNS_11char_traitsIcEENS_9allocatorIcEEEENS_8functionIF5ValueRKNS_6vectorISD_NS9_ISD_EEEEEEEEEELm2EEEODaOT_NS_16in_place_index_tIXT0_EEE, symObjAddr: 0x11A14, symBinAddr: 0x1000128E8, symSize: 0x24 }
  - { offsetInCU: 0x3A7D3, offset: 0x3A7D3, size: 0x8, addend: 0x0, symName: __ZNSt3__116__variant_detail8__access7__union9__get_altB8ue170006INS0_7__unionILNS0_6_TraitE1ELm2EJxdNS_12basic_stringIcNS_11char_traitsIcEENS_9allocatorIcEEEENS_8functionIF5ValueRKNS_6vectorISD_NS9_ISD_EEEEEEEEEELm1EEEODaOT_NS_16in_place_index_tIXT0_EEE, symObjAddr: 0x11A38, symBinAddr: 0x10001290C, symSize: 0x24 }
  - { offsetInCU: 0x3A816, offset: 0x3A816, size: 0x8, addend: 0x0, symName: __ZNSt3__116__variant_detail8__access7__union9__get_altB8ue170006INS0_7__unionILNS0_6_TraitE1ELm3EJdNS_12basic_stringIcNS_11char_traitsIcEENS_9allocatorIcEEEENS_8functionIF5ValueRKNS_6vectorISD_NS9_ISD_EEEEEEEEEEEEODaOT_NS_16in_place_index_tILm0EEE, symObjAddr: 0x11A5C, symBinAddr: 0x100012930, symSize: 0x14 }
  - { offsetInCU: 0x3A854, offset: 0x3A854, size: 0x8, addend: 0x0, symName: __ZNSt3__116__variant_detail8__access6__base9__get_altB8ue170006ILm4ENS0_6__baseILNS0_6_TraitE1EJNS_9monostateEbxdNS_12basic_stringIcNS_11char_traitsIcEENS_9allocatorIcEEEENS_8functionIF5ValueRKNS_6vectorISE_NSA_ISE_EEEEEEEEEEEEODaOT0_, symObjAddr: 0x11AA4, symBinAddr: 0x100012978, symSize: 0x24 }
  - { offsetInCU: 0x3A88B, offset: 0x3A88B, size: 0x8, addend: 0x0, symName: __ZZNSt3__116__variant_detail12__assignmentINS0_8__traitsIJNS_9monostateEbxdNS_12basic_stringIcNS_11char_traitsIcEENS_9allocatorIcEEEENS_8functionIF5ValueRKNS_6vectorISB_NS7_ISB_EEEEEEEEEEE16__generic_assignB8ue170006INS0_17__move_assignmentISJ_LNS0_6_TraitE1EEEEEvOT_ENKUlRSP_OT0_E_clINS0_5__altILm4ES9_EESX_EEDaSR_ST_, symObjAddr: 0x11AC8, symBinAddr: 0x10001299C, symSize: 0x38 }
  - { offsetInCU: 0x3A8E5, offset: 0x3A8E5, size: 0x8, addend: 0x0, symName: __ZNSt3__116__variant_detail12__assignmentINS0_8__traitsIJNS_9monostateEbxdNS_12basic_stringIcNS_11char_traitsIcEENS_9allocatorIcEEEENS_8functionIF5ValueRKNS_6vectorISB_NS7_ISB_EEEEEEEEEEE12__assign_altB8ue170006ILm4ES9_S9_EEvRNS0_5__altIXT_ET0_EEOT1_, symObjAddr: 0x11B00, symBinAddr: 0x1000129D4, symSize: 0x6C }
  - { offsetInCU: 0x3A9AA, offset: 0x3A9AA, size: 0x8, addend: 0x0, symName: __ZNSt3__112basic_stringIcNS_11char_traitsIcEENS_9allocatorIcEEEaSB8ue170006EOS5_, symObjAddr: 0x11B6C, symBinAddr: 0x100012A40, symSize: 0x34 }
  - { offsetInCU: 0x3A9E9, offset: 0x3A9E9, size: 0x8, addend: 0x0, symName: __ZZNSt3__116__variant_detail12__assignmentINS0_8__traitsIJNS_9monostateEbxdNS_12basic_stringIcNS_11char_traitsIcEENS_9allocatorIcEEEENS_8functionIF5ValueRKNS_6vectorISB_NS7_ISB_EEEEEEEEEEE12__assign_altB8ue170006ILm4ES9_S9_EEvRNS0_5__altIXT_ET0_EEOT1_ENKUt_clB8ue170006ENS_17integral_constantIbLb1EEE, symObjAddr: 0x11BA0, symBinAddr: 0x100012A74, symSize: 0x2C }
  - { offsetInCU: 0x3AA1F, offset: 0x3AA1F, size: 0x8, addend: 0x0, symName: __ZNSt3__112basic_stringIcNS_11char_traitsIcEENS_9allocatorIcEEE13__move_assignB8ue170006ERS5_NS_17integral_constantIbLb1EEE, symObjAddr: 0x11BCC, symBinAddr: 0x100012AA0, symSize: 0xC8 }
  - { offsetInCU: 0x3AA62, offset: 0x3AA62, size: 0x8, addend: 0x0, symName: __ZNSt3__116allocator_traitsINS_9allocatorIcEEE10deallocateB8ue170006ERS2_Pcm, symObjAddr: 0x11C94, symBinAddr: 0x100012B68, symSize: 0x34 }
  - { offsetInCU: 0x3AAA4, offset: 0x3AAA4, size: 0x8, addend: 0x0, symName: __ZNSt3__112basic_stringIcNS_11char_traitsIcEENS_9allocatorIcEEE7__allocB8ue170006Ev, symObjAddr: 0x11CC8, symBinAddr: 0x100012B9C, symSize: 0x24 }
  - { offsetInCU: 0x3AACA, offset: 0x3AACA, size: 0x8, addend: 0x0, symName: __ZNKSt3__112basic_stringIcNS_11char_traitsIcEENS_9allocatorIcEEE14__get_long_capB8ue170006Ev, symObjAddr: 0x11CEC, symBinAddr: 0x100012BC0, symSize: 0x30 }
  - { offsetInCU: 0x3AAF0, offset: 0x3AAF0, size: 0x8, addend: 0x0, symName: __ZNSt3__112basic_stringIcNS_11char_traitsIcEENS_9allocatorIcEEE19__move_assign_allocB8ue170006ERS5_, symObjAddr: 0x11D1C, symBinAddr: 0x100012BF0, symSize: 0x2C }
  - { offsetInCU: 0x3AB25, offset: 0x3AB25, size: 0x8, addend: 0x0, symName: __ZNSt3__112basic_stringIcNS_11char_traitsIcEENS_9allocatorIcEEE16__set_short_sizeB8ue170006Em, symObjAddr: 0x11D48, symBinAddr: 0x100012C1C, symSize: 0x78 }
  - { offsetInCU: 0x3AB5A, offset: 0x3AB5A, size: 0x8, addend: 0x0, symName: __ZNSt3__111char_traitsIcE6assignB8ue170006ERcRKc, symObjAddr: 0x11DC0, symBinAddr: 0x100012C94, symSize: 0x24 }
  - { offsetInCU: 0x3AB8B, offset: 0x3AB8B, size: 0x8, addend: 0x0, symName: __ZNSt3__19allocatorIcE10deallocateB8ue170006EPcm, symObjAddr: 0x11DE4, symBinAddr: 0x100012CB8, symSize: 0x40 }
  - { offsetInCU: 0x3ABCD, offset: 0x3ABCD, size: 0x8, addend: 0x0, symName: __ZNSt3__117__compressed_pairINS_12basic_stringIcNS_11char_traitsIcEENS_9allocatorIcEEE5__repES5_E6secondB8ue170006Ev, symObjAddr: 0x11E24, symBinAddr: 0x100012CF8, symSize: 0x24 }
  - { offsetInCU: 0x3ABF3, offset: 0x3ABF3, size: 0x8, addend: 0x0, symName: __ZNSt3__122__compressed_pair_elemINS_9allocatorIcEELi1ELb1EE5__getB8ue170006Ev, symObjAddr: 0x11E48, symBinAddr: 0x100012D1C, symSize: 0x14 }
  - { offsetInCU: 0x3AC19, offset: 0x3AC19, size: 0x8, addend: 0x0, symName: __ZNSt3__112basic_stringIcNS_11char_traitsIcEENS_9allocatorIcEEE19__move_assign_allocB8ue170006ERS5_NS_17integral_constantIbLb1EEE, symObjAddr: 0x11E5C, symBinAddr: 0x100012D30, symSize: 0x38 }
  - { offsetInCU: 0x3AC5A, offset: 0x3AC5A, size: 0x8, addend: 0x0, symName: __ZNSt3__116__variant_detail12__assignmentINS0_8__traitsIJNS_9monostateEbxdNS_12basic_stringIcNS_11char_traitsIcEENS_9allocatorIcEEEENS_8functionIF5ValueRKNS_6vectorISB_NS7_ISB_EEEEEEEEEEE9__emplaceB8ue170006ILm4EJS9_EEERDaDpOT0_, symObjAddr: 0x11E94, symBinAddr: 0x100012D68, symSize: 0x50 }
  - { offsetInCU: 0x3ACB3, offset: 0x3ACB3, size: 0x8, addend: 0x0, symName: __ZNSt3__116__variant_detail6__ctorINS0_8__traitsIJNS_9monostateEbxdNS_12basic_stringIcNS_11char_traitsIcEENS_9allocatorIcEEEENS_8functionIF5ValueRKNS_6vectorISB_NS7_ISB_EEEEEEEEEEE15__construct_altB8ue170006ILm4ES9_JS9_EEERT0_RNS0_5__altIXT_ESM_EEDpOT1_, symObjAddr: 0x11EE4, symBinAddr: 0x100012DB8, symSize: 0x30 }
  - { offsetInCU: 0x3AD04, offset: 0x3AD04, size: 0x8, addend: 0x0, symName: __ZNSt3__116__variant_detail8__access6__base9__get_altB8ue170006ILm4ERNS0_12__assignmentINS0_8__traitsIJNS_9monostateEbxdNS_12basic_stringIcNS_11char_traitsIcEENS_9allocatorIcEEEENS_8functionIF5ValueRKNS_6vectorISE_NSA_ISE_EEEEEEEEEEEEEEODaOT0_, symObjAddr: 0x11F14, symBinAddr: 0x100012DE8, symSize: 0x24 }
  - { offsetInCU: 0x3AD3B, offset: 0x3AD3B, size: 0x8, addend: 0x0, symName: __ZNSt3__116__variant_detail5__altILm4ENS_12basic_stringIcNS_11char_traitsIcEENS_9allocatorIcEEEEEC1B8ue170006IJS7_EEENS_10in_place_tEDpOT_, symObjAddr: 0x11F38, symBinAddr: 0x100012E0C, symSize: 0x34 }
  - { offsetInCU: 0x3AD8B, offset: 0x3AD8B, size: 0x8, addend: 0x0, symName: __ZNSt3__116__variant_detail5__altILm4ENS_12basic_stringIcNS_11char_traitsIcEENS_9allocatorIcEEEEEC2B8ue170006IJS7_EEENS_10in_place_tEDpOT_, symObjAddr: 0x11F6C, symBinAddr: 0x100012E40, symSize: 0x34 }
  - { offsetInCU: 0x3ADDB, offset: 0x3ADDB, size: 0x8, addend: 0x0, symName: __ZNSt3__112basic_stringIcNS_11char_traitsIcEENS_9allocatorIcEEEC1B8ue170006EOS5_, symObjAddr: 0x11FA0, symBinAddr: 0x100012E74, symSize: 0x34 }
  - { offsetInCU: 0x3AE14, offset: 0x3AE14, size: 0x8, addend: 0x0, symName: __ZNSt3__112basic_stringIcNS_11char_traitsIcEENS_9allocatorIcEEEC2B8ue170006EOS5_, symObjAddr: 0x11FD4, symBinAddr: 0x100012EA8, symSize: 0x48 }
  - { offsetInCU: 0x3AE4D, offset: 0x3AE4D, size: 0x8, addend: 0x0, symName: __ZNSt3__116__variant_detail8__access7__union9__get_altB8ue170006INS0_7__unionILNS0_6_TraitE1ELm0EJNS_9monostateEbxdNS_12basic_stringIcNS_11char_traitsIcEENS_9allocatorIcEEEENS_8functionIF5ValueRKNS_6vectorISE_NSA_ISE_EEEEEEEEEELm4EEEODaOT_NS_16in_place_index_tIXT0_EEE, symObjAddr: 0x1201C, symBinAddr: 0x100012EF0, symSize: 0x24 }
  - { offsetInCU: 0x3AE90, offset: 0x3AE90, size: 0x8, addend: 0x0, symName: __ZNSt3__116__variant_detail8__access7__union9__get_altB8ue170006INS0_7__unionILNS0_6_TraitE1ELm1EJbxdNS_12basic_stringIcNS_11char_traitsIcEENS_9allocatorIcEEEENS_8functionIF5ValueRKNS_6vectorISD_NS9_ISD_EEEEEEEEEELm3EEEODaOT_NS_16in_place_index_tIXT0_EEE, symObjAddr: 0x12040, symBinAddr: 0x100012F14, symSize: 0x24 }
  - { offsetInCU: 0x3AED3, offset: 0x3AED3, size: 0x8, addend: 0x0, symName: __ZNSt3__116__variant_detail8__access7__union9__get_altB8ue170006INS0_7__unionILNS0_6_TraitE1ELm2EJxdNS_12basic_stringIcNS_11char_traitsIcEENS_9allocatorIcEEEENS_8functionIF5ValueRKNS_6vectorISD_NS9_ISD_EEEEEEEEEELm2EEEODaOT_NS_16in_place_index_tIXT0_EEE, symObjAddr: 0x12064, symBinAddr: 0x100012F38, symSize: 0x24 }
  - { offsetInCU: 0x3AF16, offset: 0x3AF16, size: 0x8, addend: 0x0, symName: __ZNSt3__116__variant_detail8__access7__union9__get_altB8ue170006INS0_7__unionILNS0_6_TraitE1ELm3EJdNS_12basic_stringIcNS_11char_traitsIcEENS_9allocatorIcEEEENS_8functionIF5ValueRKNS_6vectorISD_NS9_ISD_EEEEEEEEEELm1EEEODaOT_NS_16in_place_index_tIXT0_EEE, symObjAddr: 0x12088, symBinAddr: 0x100012F5C, symSize: 0x24 }
  - { offsetInCU: 0x3AF59, offset: 0x3AF59, size: 0x8, addend: 0x0, symName: __ZNSt3__116__variant_detail8__access7__union9__get_altB8ue170006INS0_7__unionILNS0_6_TraitE1ELm4EJNS_12basic_stringIcNS_11char_traitsIcEENS_9allocatorIcEEEENS_8functionIF5ValueRKNS_6vectorISD_NS9_ISD_EEEEEEEEEEEEODaOT_NS_16in_place_index_tILm0EEE, symObjAddr: 0x120AC, symBinAddr: 0x100012F80, symSize: 0x14 }
  - { offsetInCU: 0x3AF97, offset: 0x3AF97, size: 0x8, addend: 0x0, symName: __ZNSt3__116__variant_detail8__access6__base9__get_altB8ue170006ILm5ENS0_6__baseILNS0_6_TraitE1EJNS_9monostateEbxdNS_12basic_stringIcNS_11char_traitsIcEENS_9allocatorIcEEEENS_8functionIF5ValueRKNS_6vectorISE_NSA_ISE_EEEEEEEEEEEEODaOT0_, symObjAddr: 0x120F4, symBinAddr: 0x100012FC8, symSize: 0x24 }
  - { offsetInCU: 0x3AFCE, offset: 0x3AFCE, size: 0x8, addend: 0x0, symName: __ZZNSt3__116__variant_detail12__assignmentINS0_8__traitsIJNS_9monostateEbxdNS_12basic_stringIcNS_11char_traitsIcEENS_9allocatorIcEEEENS_8functionIF5ValueRKNS_6vectorISB_NS7_ISB_EEEEEEEEEEE16__generic_assignB8ue170006INS0_17__move_assignmentISJ_LNS0_6_TraitE1EEEEEvOT_ENKUlRSP_OT0_E_clINS0_5__altILm5ESI_EESX_EEDaSR_ST_, symObjAddr: 0x12118, symBinAddr: 0x100012FEC, symSize: 0x38 }
  - { offsetInCU: 0x3B028, offset: 0x3B028, size: 0x8, addend: 0x0, symName: __ZNSt3__116__variant_detail12__assignmentINS0_8__traitsIJNS_9monostateEbxdNS_12basic_stringIcNS_11char_traitsIcEENS_9allocatorIcEEEENS_8functionIF5ValueRKNS_6vectorISB_NS7_ISB_EEEEEEEEEEE12__assign_altB8ue170006ILm5ESI_SI_EEvRNS0_5__altIXT_ET0_EEOT1_, symObjAddr: 0x12150, symBinAddr: 0x100013024, symSize: 0x6C }
  - { offsetInCU: 0x3B0ED, offset: 0x3B0ED, size: 0x8, addend: 0x0, symName: __ZNSt3__18functionIF5ValueRKNS_6vectorIS1_NS_9allocatorIS1_EEEEEEaSEOS9_, symObjAddr: 0x121BC, symBinAddr: 0x100013090, symSize: 0x3C }
  - { offsetInCU: 0x3B12E, offset: 0x3B12E, size: 0x8, addend: 0x0, symName: __ZZNSt3__116__variant_detail12__assignmentINS0_8__traitsIJNS_9monostateEbxdNS_12basic_stringIcNS_11char_traitsIcEENS_9allocatorIcEEEENS_8functionIF5ValueRKNS_6vectorISB_NS7_ISB_EEEEEEEEEEE12__assign_altB8ue170006ILm5ESI_SI_EEvRNS0_5__altIXT_ET0_EEOT1_ENKUt_clB8ue170006ENS_17integral_constantIbLb1EEE, symObjAddr: 0x121F8, symBinAddr: 0x1000130CC, symSize: 0x2C }
  - { offsetInCU: 0x3B164, offset: 0x3B164, size: 0x8, addend: 0x0, symName: __ZNSt3__110__function12__value_funcIF5ValueRKNS_6vectorIS2_NS_9allocatorIS2_EEEEEEaSB8ue170006EOSA_, symObjAddr: 0x12224, symBinAddr: 0x1000130F8, symSize: 0xC0 }
  - { offsetInCU: 0x3B199, offset: 0x3B199, size: 0x8, addend: 0x0, symName: __ZNSt3__110__function12__value_funcIF5ValueRKNS_6vectorIS2_NS_9allocatorIS2_EEEEEEaSB8ue170006EDn, symObjAddr: 0x122E4, symBinAddr: 0x1000131B8, symSize: 0x8C }
  - { offsetInCU: 0x3B1DA, offset: 0x3B1DA, size: 0x8, addend: 0x0, symName: __ZNSt3__116__variant_detail12__assignmentINS0_8__traitsIJNS_9monostateEbxdNS_12basic_stringIcNS_11char_traitsIcEENS_9allocatorIcEEEENS_8functionIF5ValueRKNS_6vectorISB_NS7_ISB_EEEEEEEEEEE9__emplaceB8ue170006ILm5EJSI_EEERDaDpOT0_, symObjAddr: 0x12370, symBinAddr: 0x100013244, symSize: 0x50 }
  - { offsetInCU: 0x3B233, offset: 0x3B233, size: 0x8, addend: 0x0, symName: __ZNSt3__116__variant_detail6__ctorINS0_8__traitsIJNS_9monostateEbxdNS_12basic_stringIcNS_11char_traitsIcEENS_9allocatorIcEEEENS_8functionIF5ValueRKNS_6vectorISB_NS7_ISB_EEEEEEEEEEE15__construct_altB8ue170006ILm5ESI_JSI_EEERT0_RNS0_5__altIXT_ESM_EEDpOT1_, symObjAddr: 0x123C0, symBinAddr: 0x100013294, symSize: 0x30 }
  - { offsetInCU: 0x3B284, offset: 0x3B284, size: 0x8, addend: 0x0, symName: __ZNSt3__116__variant_detail8__access6__base9__get_altB8ue170006ILm5ERNS0_12__assignmentINS0_8__traitsIJNS_9monostateEbxdNS_12basic_stringIcNS_11char_traitsIcEENS_9allocatorIcEEEENS_8functionIF5ValueRKNS_6vectorISE_NSA_ISE_EEEEEEEEEEEEEEODaOT0_, symObjAddr: 0x123F0, symBinAddr: 0x1000132C4, symSize: 0x24 }
  - { offsetInCU: 0x3B2BB, offset: 0x3B2BB, size: 0x8, addend: 0x0, symName: __ZNSt3__116__variant_detail5__altILm5ENS_8functionIF5ValueRKNS_6vectorIS3_NS_9allocatorIS3_EEEEEEEEC1B8ue170006IJSB_EEENS_10in_place_tEDpOT_, symObjAddr: 0x12414, symBinAddr: 0x1000132E8, symSize: 0x34 }
  - { offsetInCU: 0x3B30B, offset: 0x3B30B, size: 0x8, addend: 0x0, symName: __ZNSt3__116__variant_detail5__altILm5ENS_8functionIF5ValueRKNS_6vectorIS3_NS_9allocatorIS3_EEEEEEEEC2B8ue170006IJSB_EEENS_10in_place_tEDpOT_, symObjAddr: 0x12448, symBinAddr: 0x10001331C, symSize: 0x34 }
  - { offsetInCU: 0x3B35B, offset: 0x3B35B, size: 0x8, addend: 0x0, symName: __ZNSt3__18functionIF5ValueRKNS_6vectorIS1_NS_9allocatorIS1_EEEEEEC1EOS9_, symObjAddr: 0x1247C, symBinAddr: 0x100013350, symSize: 0x34 }
  - { offsetInCU: 0x3B396, offset: 0x3B396, size: 0x8, addend: 0x0, symName: __ZNSt3__18functionIF5ValueRKNS_6vectorIS1_NS_9allocatorIS1_EEEEEEC2EOS9_, symObjAddr: 0x124B0, symBinAddr: 0x100013384, symSize: 0x34 }
  - { offsetInCU: 0x3B3D1, offset: 0x3B3D1, size: 0x8, addend: 0x0, symName: __ZNSt3__110__function12__value_funcIF5ValueRKNS_6vectorIS2_NS_9allocatorIS2_EEEEEEC1B8ue170006EOSA_, symObjAddr: 0x124E4, symBinAddr: 0x1000133B8, symSize: 0x34 }
  - { offsetInCU: 0x3B40A, offset: 0x3B40A, size: 0x8, addend: 0x0, symName: __ZNSt3__110__function12__value_funcIF5ValueRKNS_6vectorIS2_NS_9allocatorIS2_EEEEEEC2B8ue170006EOSA_, symObjAddr: 0x12518, symBinAddr: 0x1000133EC, symSize: 0xC4 }
  - { offsetInCU: 0x3B443, offset: 0x3B443, size: 0x8, addend: 0x0, symName: __ZNSt3__116__variant_detail8__access7__union9__get_altB8ue170006INS0_7__unionILNS0_6_TraitE1ELm0EJNS_9monostateEbxdNS_12basic_stringIcNS_11char_traitsIcEENS_9allocatorIcEEEENS_8functionIF5ValueRKNS_6vectorISE_NSA_ISE_EEEEEEEEEELm5EEEODaOT_NS_16in_place_index_tIXT0_EEE, symObjAddr: 0x125DC, symBinAddr: 0x1000134B0, symSize: 0x24 }
  - { offsetInCU: 0x3B486, offset: 0x3B486, size: 0x8, addend: 0x0, symName: __ZNSt3__116__variant_detail8__access7__union9__get_altB8ue170006INS0_7__unionILNS0_6_TraitE1ELm1EJbxdNS_12basic_stringIcNS_11char_traitsIcEENS_9allocatorIcEEEENS_8functionIF5ValueRKNS_6vectorISD_NS9_ISD_EEEEEEEEEELm4EEEODaOT_NS_16in_place_index_tIXT0_EEE, symObjAddr: 0x12600, symBinAddr: 0x1000134D4, symSize: 0x24 }
  - { offsetInCU: 0x3B4C9, offset: 0x3B4C9, size: 0x8, addend: 0x0, symName: __ZNSt3__116__variant_detail8__access7__union9__get_altB8ue170006INS0_7__unionILNS0_6_TraitE1ELm2EJxdNS_12basic_stringIcNS_11char_traitsIcEENS_9allocatorIcEEEENS_8functionIF5ValueRKNS_6vectorISD_NS9_ISD_EEEEEEEEEELm3EEEODaOT_NS_16in_place_index_tIXT0_EEE, symObjAddr: 0x12624, symBinAddr: 0x1000134F8, symSize: 0x24 }
  - { offsetInCU: 0x3B50C, offset: 0x3B50C, size: 0x8, addend: 0x0, symName: __ZNSt3__116__variant_detail8__access7__union9__get_altB8ue170006INS0_7__unionILNS0_6_TraitE1ELm3EJdNS_12basic_stringIcNS_11char_traitsIcEENS_9allocatorIcEEEENS_8functionIF5ValueRKNS_6vectorISD_NS9_ISD_EEEEEEEEEELm2EEEODaOT_NS_16in_place_index_tIXT0_EEE, symObjAddr: 0x12648, symBinAddr: 0x10001351C, symSize: 0x24 }
  - { offsetInCU: 0x3B54F, offset: 0x3B54F, size: 0x8, addend: 0x0, symName: __ZNSt3__116__variant_detail8__access7__union9__get_altB8ue170006INS0_7__unionILNS0_6_TraitE1ELm4EJNS_12basic_stringIcNS_11char_traitsIcEENS_9allocatorIcEEEENS_8functionIF5ValueRKNS_6vectorISD_NS9_ISD_EEEEEEEEEELm1EEEODaOT_NS_16in_place_index_tIXT0_EEE, symObjAddr: 0x1266C, symBinAddr: 0x100013540, symSize: 0x24 }
  - { offsetInCU: 0x3B592, offset: 0x3B592, size: 0x8, addend: 0x0, symName: __ZNSt3__116__variant_detail8__access7__union9__get_altB8ue170006INS0_7__unionILNS0_6_TraitE1ELm5EJNS_8functionIF5ValueRKNS_6vectorIS7_NS_9allocatorIS7_EEEEEEEEEEEEODaOT_NS_16in_place_index_tILm0EEE, symObjAddr: 0x12690, symBinAddr: 0x100013564, symSize: 0x14 }
  - { offsetInCU: 0x3B5CB, offset: 0x3B5CB, size: 0x8, addend: 0x0, symName: __ZN5ValueC2Ev, symObjAddr: 0x126A4, symBinAddr: 0x100013578, symSize: 0x30 }
  - { offsetInCU: 0x3B5F5, offset: 0x3B5F5, size: 0x8, addend: 0x0, symName: __ZNSt3__17variantIJNS_9monostateEbxdNS_12basic_stringIcNS_11char_traitsIcEENS_9allocatorIcEEEENS_8functionIF5ValueRKNS_6vectorIS9_NS5_IS9_EEEEEEEEEC1B8ue170006IS1_Li0ELi0ELi0ES1_Lm0ELi0EEEOT_, symObjAddr: 0x126D4, symBinAddr: 0x1000135A8, symSize: 0x34 }
  - { offsetInCU: 0x3B662, offset: 0x3B662, size: 0x8, addend: 0x0, symName: __ZNSt3__17variantIJNS_9monostateEbxdNS_12basic_stringIcNS_11char_traitsIcEENS_9allocatorIcEEEENS_8functionIF5ValueRKNS_6vectorIS9_NS5_IS9_EEEEEEEEEC2B8ue170006IS1_Li0ELi0ELi0ES1_Lm0ELi0EEEOT_, symObjAddr: 0x12708, symBinAddr: 0x1000135DC, symSize: 0x3C }
  - { offsetInCU: 0x3B6CF, offset: 0x3B6CF, size: 0x8, addend: 0x0, symName: __ZNSt3__116__variant_detail6__implIJNS_9monostateEbxdNS_12basic_stringIcNS_11char_traitsIcEENS_9allocatorIcEEEENS_8functionIF5ValueRKNS_6vectorISA_NS6_ISA_EEEEEEEEECI1NS0_6__baseILNS0_6_TraitE1EJS2_bxdS8_SH_EEEILm0EJS2_EEENS_16in_place_index_tIXT_EEEDpOT0_, symObjAddr: 0x12744, symBinAddr: 0x100013618, symSize: 0x34 }
  - { offsetInCU: 0x3B70E, offset: 0x3B70E, size: 0x8, addend: 0x0, symName: __ZNSt3__116__variant_detail6__implIJNS_9monostateEbxdNS_12basic_stringIcNS_11char_traitsIcEENS_9allocatorIcEEEENS_8functionIF5ValueRKNS_6vectorISA_NS6_ISA_EEEEEEEEECI2NS0_6__baseILNS0_6_TraitE1EJS2_bxdS8_SH_EEEILm0EJS2_EEENS_16in_place_index_tIXT_EEEDpOT0_, symObjAddr: 0x12778, symBinAddr: 0x10001364C, symSize: 0x34 }
  - { offsetInCU: 0x3B74D, offset: 0x3B74D, size: 0x8, addend: 0x0, symName: __ZNSt3__116__variant_detail17__copy_assignmentINS0_8__traitsIJNS_9monostateEbxdNS_12basic_stringIcNS_11char_traitsIcEENS_9allocatorIcEEEENS_8functionIF5ValueRKNS_6vectorISB_NS7_ISB_EEEEEEEEEELNS0_6_TraitE1EECI2NS0_6__baseILSK_1EJS3_bxdS9_SI_EEEILm0EJS3_EEENS_16in_place_index_tIXT_EEEDpOT0_, symObjAddr: 0x127AC, symBinAddr: 0x100013680, symSize: 0x34 }
  - { offsetInCU: 0x3B78C, offset: 0x3B78C, size: 0x8, addend: 0x0, symName: __ZNSt3__116__variant_detail17__move_assignmentINS0_8__traitsIJNS_9monostateEbxdNS_12basic_stringIcNS_11char_traitsIcEENS_9allocatorIcEEEENS_8functionIF5ValueRKNS_6vectorISB_NS7_ISB_EEEEEEEEEELNS0_6_TraitE1EECI2NS0_6__baseILSK_1EJS3_bxdS9_SI_EEEILm0EJS3_EEENS_16in_place_index_tIXT_EEEDpOT0_, symObjAddr: 0x127E0, symBinAddr: 0x1000136B4, symSize: 0x34 }
  - { offsetInCU: 0x3B7CB, offset: 0x3B7CB, size: 0x8, addend: 0x0, symName: __ZNSt3__116__variant_detail12__assignmentINS0_8__traitsIJNS_9monostateEbxdNS_12basic_stringIcNS_11char_traitsIcEENS_9allocatorIcEEEENS_8functionIF5ValueRKNS_6vectorISB_NS7_ISB_EEEEEEEEEEECI2NS0_6__baseILNS0_6_TraitE1EJS3_bxdS9_SI_EEEILm0EJS3_EEENS_16in_place_index_tIXT_EEEDpOT0_, symObjAddr: 0x12814, symBinAddr: 0x1000136E8, symSize: 0x34 }
  - { offsetInCU: 0x3B80A, offset: 0x3B80A, size: 0x8, addend: 0x0, symName: __ZNSt3__116__variant_detail18__copy_constructorINS0_8__traitsIJNS_9monostateEbxdNS_12basic_stringIcNS_11char_traitsIcEENS_9allocatorIcEEEENS_8functionIF5ValueRKNS_6vectorISB_NS7_ISB_EEEEEEEEEELNS0_6_TraitE1EECI2NS0_6__baseILSK_1EJS3_bxdS9_SI_EEEILm0EJS3_EEENS_16in_place_index_tIXT_EEEDpOT0_, symObjAddr: 0x12848, symBinAddr: 0x10001371C, symSize: 0x34 }
  - { offsetInCU: 0x3B849, offset: 0x3B849, size: 0x8, addend: 0x0, symName: __ZNSt3__116__variant_detail18__move_constructorINS0_8__traitsIJNS_9monostateEbxdNS_12basic_stringIcNS_11char_traitsIcEENS_9allocatorIcEEEENS_8functionIF5ValueRKNS_6vectorISB_NS7_ISB_EEEEEEEEEELNS0_6_TraitE1EECI2NS0_6__baseILSK_1EJS3_bxdS9_SI_EEEILm0EJS3_EEENS_16in_place_index_tIXT_EEEDpOT0_, symObjAddr: 0x1287C, symBinAddr: 0x100013750, symSize: 0x34 }
  - { offsetInCU: 0x3B888, offset: 0x3B888, size: 0x8, addend: 0x0, symName: __ZNSt3__116__variant_detail6__ctorINS0_8__traitsIJNS_9monostateEbxdNS_12basic_stringIcNS_11char_traitsIcEENS_9allocatorIcEEEENS_8functionIF5ValueRKNS_6vectorISB_NS7_ISB_EEEEEEEEEEECI2NS0_6__baseILNS0_6_TraitE1EJS3_bxdS9_SI_EEEILm0EJS3_EEENS_16in_place_index_tIXT_EEEDpOT0_, symObjAddr: 0x128B0, symBinAddr: 0x100013784, symSize: 0x34 }
  - { offsetInCU: 0x3B8C7, offset: 0x3B8C7, size: 0x8, addend: 0x0, symName: __ZNSt3__116__variant_detail6__dtorINS0_8__traitsIJNS_9monostateEbxdNS_12basic_stringIcNS_11char_traitsIcEENS_9allocatorIcEEEENS_8functionIF5ValueRKNS_6vectorISB_NS7_ISB_EEEEEEEEEELNS0_6_TraitE1EECI2NS0_6__baseILSK_1EJS3_bxdS9_SI_EEEILm0EJS3_EEENS_16in_place_index_tIXT_EEEDpOT0_, symObjAddr: 0x128E4, symBinAddr: 0x1000137B8, symSize: 0x34 }
  - { offsetInCU: 0x3B906, offset: 0x3B906, size: 0x8, addend: 0x0, symName: __ZNSt3__116__variant_detail6__baseILNS0_6_TraitE1EJNS_9monostateEbxdNS_12basic_stringIcNS_11char_traitsIcEENS_9allocatorIcEEEENS_8functionIF5ValueRKNS_6vectorISB_NS7_ISB_EEEEEEEEEC2B8ue170006ILm0EJS3_EEENS_16in_place_index_tIXT_EEEDpOT0_, symObjAddr: 0x12918, symBinAddr: 0x1000137EC, symSize: 0x38 }
  - { offsetInCU: 0x3B960, offset: 0x3B960, size: 0x8, addend: 0x0, symName: __ZNSt3__116__variant_detail7__unionILNS0_6_TraitE1ELm0EJNS_9monostateEbxdNS_12basic_stringIcNS_11char_traitsIcEENS_9allocatorIcEEEENS_8functionIF5ValueRKNS_6vectorISB_NS7_ISB_EEEEEEEEEC1B8ue170006IJS3_EEENS_16in_place_index_tILm0EEEDpOT_, symObjAddr: 0x12950, symBinAddr: 0x100013824, symSize: 0x34 }
  - { offsetInCU: 0x3B9B0, offset: 0x3B9B0, size: 0x8, addend: 0x0, symName: __ZNSt3__116__variant_detail7__unionILNS0_6_TraitE1ELm0EJNS_9monostateEbxdNS_12basic_stringIcNS_11char_traitsIcEENS_9allocatorIcEEEENS_8functionIF5ValueRKNS_6vectorISB_NS7_ISB_EEEEEEEEEC2B8ue170006IJS3_EEENS_16in_place_index_tILm0EEEDpOT_, symObjAddr: 0x12984, symBinAddr: 0x100013858, symSize: 0x34 }
  - { offsetInCU: 0x3BA00, offset: 0x3BA00, size: 0x8, addend: 0x0, symName: __ZN5ValueC2ERKS_, symObjAddr: 0x129B8, symBinAddr: 0x10001388C, symSize: 0x34 }
  - { offsetInCU: 0x3BA35, offset: 0x3BA35, size: 0x8, addend: 0x0, symName: __ZNSt3__17variantIJNS_9monostateEbxdNS_12basic_stringIcNS_11char_traitsIcEENS_9allocatorIcEEEENS_8functionIF5ValueRKNS_6vectorIS9_NS5_IS9_EEEEEEEEEC1B8ue170006ERKSH_, symObjAddr: 0x129EC, symBinAddr: 0x1000138C0, symSize: 0x34 }
  - { offsetInCU: 0x3BA6B, offset: 0x3BA6B, size: 0x8, addend: 0x0, symName: __ZNSt3__17variantIJNS_9monostateEbxdNS_12basic_stringIcNS_11char_traitsIcEENS_9allocatorIcEEEENS_8functionIF5ValueRKNS_6vectorIS9_NS5_IS9_EEEEEEEEEC2B8ue170006ERKSH_, symObjAddr: 0x12A20, symBinAddr: 0x1000138F4, symSize: 0x34 }
  - { offsetInCU: 0x3BAA1, offset: 0x3BAA1, size: 0x8, addend: 0x0, symName: __ZNSt3__116__variant_detail6__implIJNS_9monostateEbxdNS_12basic_stringIcNS_11char_traitsIcEENS_9allocatorIcEEEENS_8functionIF5ValueRKNS_6vectorISA_NS6_ISA_EEEEEEEEEC1B8ue170006ERKSI_, symObjAddr: 0x12A54, symBinAddr: 0x100013928, symSize: 0x34 }
  - { offsetInCU: 0x3BAD7, offset: 0x3BAD7, size: 0x8, addend: 0x0, symName: __ZNSt3__116__variant_detail6__implIJNS_9monostateEbxdNS_12basic_stringIcNS_11char_traitsIcEENS_9allocatorIcEEEENS_8functionIF5ValueRKNS_6vectorISA_NS6_ISA_EEEEEEEEEC2B8ue170006ERKSI_, symObjAddr: 0x12A88, symBinAddr: 0x10001395C, symSize: 0x34 }
  - { offsetInCU: 0x3BB0D, offset: 0x3BB0D, size: 0x8, addend: 0x0, symName: __ZNSt3__116__variant_detail17__copy_assignmentINS0_8__traitsIJNS_9monostateEbxdNS_12basic_stringIcNS_11char_traitsIcEENS_9allocatorIcEEEENS_8functionIF5ValueRKNS_6vectorISB_NS7_ISB_EEEEEEEEEELNS0_6_TraitE1EEC2ERKSL_, symObjAddr: 0x12ABC, symBinAddr: 0x100013990, symSize: 0x34 }
  - { offsetInCU: 0x3BB43, offset: 0x3BB43, size: 0x8, addend: 0x0, symName: __ZNSt3__116__variant_detail17__move_assignmentINS0_8__traitsIJNS_9monostateEbxdNS_12basic_stringIcNS_11char_traitsIcEENS_9allocatorIcEEEENS_8functionIF5ValueRKNS_6vectorISB_NS7_ISB_EEEEEEEEEELNS0_6_TraitE1EEC2ERKSL_, symObjAddr: 0x12AF0, symBinAddr: 0x1000139C4, symSize: 0x34 }
  - { offsetInCU: 0x3BB83, offset: 0x3BB83, size: 0x8, addend: 0x0, symName: __ZNSt3__116__variant_detail12__assignmentINS0_8__traitsIJNS_9monostateEbxdNS_12basic_stringIcNS_11char_traitsIcEENS_9allocatorIcEEEENS_8functionIF5ValueRKNS_6vectorISB_NS7_ISB_EEEEEEEEEEEC2ERKSK_, symObjAddr: 0x12B24, symBinAddr: 0x1000139F8, symSize: 0x34 }
  - { offsetInCU: 0x3BBB9, offset: 0x3BBB9, size: 0x8, addend: 0x0, symName: __ZNSt3__116__variant_detail18__copy_constructorINS0_8__traitsIJNS_9monostateEbxdNS_12basic_stringIcNS_11char_traitsIcEENS_9allocatorIcEEEENS_8functionIF5ValueRKNS_6vectorISB_NS7_ISB_EEEEEEEEEELNS0_6_TraitE1EEC2ERKSL_, symObjAddr: 0x12B58, symBinAddr: 0x100013A2C, symSize: 0x64 }
  - { offsetInCU: 0x3BBF2, offset: 0x3BBF2, size: 0x8, addend: 0x0, symName: __ZNSt3__116__variant_detail18__copy_constructorINS0_8__traitsIJNS_9monostateEbxdNS_12basic_stringIcNS_11char_traitsIcEENS_9allocatorIcEEEENS_8functionIF5ValueRKNS_6vectorISB_NS7_ISB_EEEEEEEEEELNS0_6_TraitE1EECI2NS0_6__baseILSK_1EJS3_bxdS9_SI_EEEENS0_13__valueless_tE, symObjAddr: 0x12BBC, symBinAddr: 0x100013A90, symSize: 0x2C }
  - { offsetInCU: 0x3BC2D, offset: 0x3BC2D, size: 0x8, addend: 0x0, symName: __ZNSt3__116__variant_detail6__ctorINS0_8__traitsIJNS_9monostateEbxdNS_12basic_stringIcNS_11char_traitsIcEENS_9allocatorIcEEEENS_8functionIF5ValueRKNS_6vectorISB_NS7_ISB_EEEEEEEEEEE19__generic_constructB8ue170006IRKNS0_18__copy_constructorISJ_LNS0_6_TraitE1EEEEEvRSK_OT_, symObjAddr: 0x12BE8, symBinAddr: 0x100013ABC, symSize: 0x68 }
  - { offsetInCU: 0x3BD73, offset: 0x3BD73, size: 0x8, addend: 0x0, symName: __ZNSt3__116__variant_detail18__move_constructorINS0_8__traitsIJNS_9monostateEbxdNS_12basic_stringIcNS_11char_traitsIcEENS_9allocatorIcEEEENS_8functionIF5ValueRKNS_6vectorISB_NS7_ISB_EEEEEEEEEELNS0_6_TraitE1EECI2NS0_6__baseILSK_1EJS3_bxdS9_SI_EEEENS0_13__valueless_tE, symObjAddr: 0x12C50, symBinAddr: 0x100013B24, symSize: 0x2C }
  - { offsetInCU: 0x3BDA9, offset: 0x3BDA9, size: 0x8, addend: 0x0, symName: __ZNSt3__116__variant_detail6__ctorINS0_8__traitsIJNS_9monostateEbxdNS_12basic_stringIcNS_11char_traitsIcEENS_9allocatorIcEEEENS_8functionIF5ValueRKNS_6vectorISB_NS7_ISB_EEEEEEEEEEECI2NS0_6__baseILNS0_6_TraitE1EJS3_bxdS9_SI_EEEENS0_13__valueless_tE, symObjAddr: 0x12C7C, symBinAddr: 0x100013B50, symSize: 0x2C }
  - { offsetInCU: 0x3BDDF, offset: 0x3BDDF, size: 0x8, addend: 0x0, symName: __ZNSt3__116__variant_detail6__dtorINS0_8__traitsIJNS_9monostateEbxdNS_12basic_stringIcNS_11char_traitsIcEENS_9allocatorIcEEEENS_8functionIF5ValueRKNS_6vectorISB_NS7_ISB_EEEEEEEEEELNS0_6_TraitE1EECI2NS0_6__baseILSK_1EJS3_bxdS9_SI_EEEENS0_13__valueless_tE, symObjAddr: 0x12CA8, symBinAddr: 0x100013B7C, symSize: 0x2C }
  - { offsetInCU: 0x3BE15, offset: 0x3BE15, size: 0x8, addend: 0x0, symName: __ZNSt3__116__variant_detail6__baseILNS0_6_TraitE1EJNS_9monostateEbxdNS_12basic_stringIcNS_11char_traitsIcEENS_9allocatorIcEEEENS_8functionIF5ValueRKNS_6vectorISB_NS7_ISB_EEEEEEEEEC2B8ue170006ENS0_13__valueless_tE, symObjAddr: 0x12CD4, symBinAddr: 0x100013BA8, symSize: 0x34 }
  - { offsetInCU: 0x3BE4E, offset: 0x3BE4E, size: 0x8, addend: 0x0, symName: __ZNSt3__116__variant_detail7__unionILNS0_6_TraitE1ELm0EJNS_9monostateEbxdNS_12basic_stringIcNS_11char_traitsIcEENS_9allocatorIcEEEENS_8functionIF5ValueRKNS_6vectorISB_NS7_ISB_EEEEEEEEEC1B8ue170006ENS0_13__valueless_tE, symObjAddr: 0x12D08, symBinAddr: 0x100013BDC, symSize: 0x2C }
  - { offsetInCU: 0x3BE84, offset: 0x3BE84, size: 0x8, addend: 0x0, symName: __ZNSt3__116__variant_detail7__unionILNS0_6_TraitE1ELm0EJNS_9monostateEbxdNS_12basic_stringIcNS_11char_traitsIcEENS_9allocatorIcEEEENS_8functionIF5ValueRKNS_6vectorISB_NS7_ISB_EEEEEEEEEC2B8ue170006ENS0_13__valueless_tE, symObjAddr: 0x12D34, symBinAddr: 0x100013C08, symSize: 0x18 }
  - { offsetInCU: 0x3BEBF, offset: 0x3BEBF, size: 0x8, addend: 0x0, symName: __ZNSt3__116__variant_detail12__visitation6__base14__visit_alt_atB8ue170006IZNS0_6__ctorINS0_8__traitsIJNS_9monostateEbxdNS_12basic_stringIcNS_11char_traitsIcEENS_9allocatorIcEEEENS_8functionIF5ValueRKNS_6vectorISE_NSA_ISE_EEEEEEEEEEE19__generic_constructB8ue170006IRKNS0_18__copy_constructorISM_LNS0_6_TraitE1EEEEEvRSN_OT_EUlRSV_OT0_E_JSU_ST_EEEDcmSW_DpOT0_, symObjAddr: 0x12D4C, symBinAddr: 0x100013C20, symSize: 0x84 }
  - { offsetInCU: 0x3BF3D, offset: 0x3BF3D, size: 0x8, addend: 0x0, symName: __ZNSt3__116__variant_detail12__visitation6__base12__dispatcherIJLm0ELm0EEE10__dispatchB8ue170006IOZNS0_6__ctorINS0_8__traitsIJNS_9monostateEbxdNS_12basic_stringIcNS_11char_traitsIcEENS_9allocatorIcEEEENS_8functionIF5ValueRKNS_6vectorISG_NSC_ISG_EEEEEEEEEEE19__generic_constructB8ue170006IRKNS0_18__copy_constructorISO_LNS0_6_TraitE1EEEEEvRSP_OT_EUlRSX_OT0_E_JRNS0_6__baseILSS_1EJS8_bxdSE_SN_EEERKS15_EEEDcSX_DpT0_, symObjAddr: 0x12DD0, symBinAddr: 0x100013CA4, symSize: 0x50 }
  - { offsetInCU: 0x3BF98, offset: 0x3BF98, size: 0x8, addend: 0x0, symName: __ZNSt3__116__variant_detail12__visitation6__base12__dispatcherIJLm1ELm1EEE10__dispatchB8ue170006IOZNS0_6__ctorINS0_8__traitsIJNS_9monostateEbxdNS_12basic_stringIcNS_11char_traitsIcEENS_9allocatorIcEEEENS_8functionIF5ValueRKNS_6vectorISG_NSC_ISG_EEEEEEEEEEE19__generic_constructB8ue170006IRKNS0_18__copy_constructorISO_LNS0_6_TraitE1EEEEEvRSP_OT_EUlRSX_OT0_E_JRNS0_6__baseILSS_1EJS8_bxdSE_SN_EEERKS15_EEEDcSX_DpT0_, symObjAddr: 0x12E20, symBinAddr: 0x100013CF4, symSize: 0x50 }
  - { offsetInCU: 0x3BFF3, offset: 0x3BFF3, size: 0x8, addend: 0x0, symName: __ZNSt3__116__variant_detail12__visitation6__base12__dispatcherIJLm2ELm2EEE10__dispatchB8ue170006IOZNS0_6__ctorINS0_8__traitsIJNS_9monostateEbxdNS_12basic_stringIcNS_11char_traitsIcEENS_9allocatorIcEEEENS_8functionIF5ValueRKNS_6vectorISG_NSC_ISG_EEEEEEEEEEE19__generic_constructB8ue170006IRKNS0_18__copy_constructorISO_LNS0_6_TraitE1EEEEEvRSP_OT_EUlRSX_OT0_E_JRNS0_6__baseILSS_1EJS8_bxdSE_SN_EEERKS15_EEEDcSX_DpT0_, symObjAddr: 0x12E70, symBinAddr: 0x100013D44, symSize: 0x50 }
  - { offsetInCU: 0x3C04E, offset: 0x3C04E, size: 0x8, addend: 0x0, symName: __ZNSt3__116__variant_detail12__visitation6__base12__dispatcherIJLm3ELm3EEE10__dispatchB8ue170006IOZNS0_6__ctorINS0_8__traitsIJNS_9monostateEbxdNS_12basic_stringIcNS_11char_traitsIcEENS_9allocatorIcEEEENS_8functionIF5ValueRKNS_6vectorISG_NSC_ISG_EEEEEEEEEEE19__generic_constructB8ue170006IRKNS0_18__copy_constructorISO_LNS0_6_TraitE1EEEEEvRSP_OT_EUlRSX_OT0_E_JRNS0_6__baseILSS_1EJS8_bxdSE_SN_EEERKS15_EEEDcSX_DpT0_, symObjAddr: 0x12EC0, symBinAddr: 0x100013D94, symSize: 0x50 }
  - { offsetInCU: 0x3C0A9, offset: 0x3C0A9, size: 0x8, addend: 0x0, symName: __ZNSt3__116__variant_detail12__visitation6__base12__dispatcherIJLm4ELm4EEE10__dispatchB8ue170006IOZNS0_6__ctorINS0_8__traitsIJNS_9monostateEbxdNS_12basic_stringIcNS_11char_traitsIcEENS_9allocatorIcEEEENS_8functionIF5ValueRKNS_6vectorISG_NSC_ISG_EEEEEEEEEEE19__generic_constructB8ue170006IRKNS0_18__copy_constructorISO_LNS0_6_TraitE1EEEEEvRSP_OT_EUlRSX_OT0_E_JRNS0_6__baseILSS_1EJS8_bxdSE_SN_EEERKS15_EEEDcSX_DpT0_, symObjAddr: 0x12F10, symBinAddr: 0x100013DE4, symSize: 0x50 }
  - { offsetInCU: 0x3C104, offset: 0x3C104, size: 0x8, addend: 0x0, symName: __ZNSt3__116__variant_detail12__visitation6__base12__dispatcherIJLm5ELm5EEE10__dispatchB8ue170006IOZNS0_6__ctorINS0_8__traitsIJNS_9monostateEbxdNS_12basic_stringIcNS_11char_traitsIcEENS_9allocatorIcEEEENS_8functionIF5ValueRKNS_6vectorISG_NSC_ISG_EEEEEEEEEEE19__generic_constructB8ue170006IRKNS0_18__copy_constructorISO_LNS0_6_TraitE1EEEEEvRSP_OT_EUlRSX_OT0_E_JRNS0_6__baseILSS_1EJS8_bxdSE_SN_EEERKS15_EEEDcSX_DpT0_, symObjAddr: 0x12F60, symBinAddr: 0x100013E34, symSize: 0x50 }
  - { offsetInCU: 0x3C198, offset: 0x3C198, size: 0x8, addend: 0x0, symName: __ZNKSt3__18__farrayIPFvOZNS_16__variant_detail6__ctorINS1_8__traitsIJNS_9monostateEbxdNS_12basic_stringIcNS_11char_traitsIcEENS_9allocatorIcEEEENS_8functionIF5ValueRKNS_6vectorISC_NS8_ISC_EEEEEEEEEEE19__generic_constructB8ue170006IRKNS1_18__copy_constructorISK_LNS1_6_TraitE1EEEEEvRSL_OT_EUlRST_OT0_E_RNS1_6__baseILSO_1EJS4_bxdSA_SJ_EEERKS11_ELm6EEixB8ue170006Em, symObjAddr: 0x12FB0, symBinAddr: 0x100013E84, symSize: 0x20 }
  - { offsetInCU: 0x3C1CD, offset: 0x3C1CD, size: 0x8, addend: 0x0, symName: __ZNKRSt3__116__variant_detail6__baseILNS0_6_TraitE1EJNS_9monostateEbxdNS_12basic_stringIcNS_11char_traitsIcEENS_9allocatorIcEEEENS_8functionIF5ValueRKNS_6vectorISB_NS7_ISB_EEEEEEEEE9__as_baseB8ue170006Ev, symObjAddr: 0x12FD0, symBinAddr: 0x100013EA4, symSize: 0x14 }
  - { offsetInCU: 0x3C1FD, offset: 0x3C1FD, size: 0x8, addend: 0x0, symName: __ZNSt3__116__variant_detail8__access6__base9__get_altB8ue170006ILm0ERKNS0_6__baseILNS0_6_TraitE1EJNS_9monostateEbxdNS_12basic_stringIcNS_11char_traitsIcEENS_9allocatorIcEEEENS_8functionIF5ValueRKNS_6vectorISE_NSA_ISE_EEEEEEEEEEEEODaOT0_, symObjAddr: 0x13018, symBinAddr: 0x100013EEC, symSize: 0x24 }
  - { offsetInCU: 0x3C23E, offset: 0x3C23E, size: 0x8, addend: 0x0, symName: __ZZNSt3__116__variant_detail6__ctorINS0_8__traitsIJNS_9monostateEbxdNS_12basic_stringIcNS_11char_traitsIcEENS_9allocatorIcEEEENS_8functionIF5ValueRKNS_6vectorISB_NS7_ISB_EEEEEEEEEEE19__generic_constructB8ue170006IRKNS0_18__copy_constructorISJ_LNS0_6_TraitE1EEEEEvRSK_OT_ENKUlRSS_OT0_E_clINS0_5__altILm0ES3_EERKS10_EEDaSU_SW_, symObjAddr: 0x1303C, symBinAddr: 0x100013F10, symSize: 0x30 }
  - { offsetInCU: 0x3C2A2, offset: 0x3C2A2, size: 0x8, addend: 0x0, symName: __ZNSt3__116__variant_detail6__ctorINS0_8__traitsIJNS_9monostateEbxdNS_12basic_stringIcNS_11char_traitsIcEENS_9allocatorIcEEEENS_8functionIF5ValueRKNS_6vectorISB_NS7_ISB_EEEEEEEEEEE15__construct_altB8ue170006ILm0ES3_JRKS3_EEERT0_RNS0_5__altIXT_ESO_EEDpOT1_, symObjAddr: 0x1306C, symBinAddr: 0x100013F40, symSize: 0x30 }
  - { offsetInCU: 0x3C2F3, offset: 0x3C2F3, size: 0x8, addend: 0x0, symName: __ZNSt3__116__variant_detail5__altILm0ENS_9monostateEEC1B8ue170006IJRKS2_EEENS_10in_place_tEDpOT_, symObjAddr: 0x1309C, symBinAddr: 0x100013F70, symSize: 0x34 }
  - { offsetInCU: 0x3C343, offset: 0x3C343, size: 0x8, addend: 0x0, symName: __ZNSt3__116__variant_detail5__altILm0ENS_9monostateEEC2B8ue170006IJRKS2_EEENS_10in_place_tEDpOT_, symObjAddr: 0x130D0, symBinAddr: 0x100013FA4, symSize: 0x18 }
  - { offsetInCU: 0x3C393, offset: 0x3C393, size: 0x8, addend: 0x0, symName: __ZNSt3__116__variant_detail8__access7__union9__get_altB8ue170006IRKNS0_7__unionILNS0_6_TraitE1ELm0EJNS_9monostateEbxdNS_12basic_stringIcNS_11char_traitsIcEENS_9allocatorIcEEEENS_8functionIF5ValueRKNS_6vectorISE_NSA_ISE_EEEEEEEEEEEEODaOT_NS_16in_place_index_tILm0EEE, symObjAddr: 0x130E8, symBinAddr: 0x100013FBC, symSize: 0x14 }
  - { offsetInCU: 0x3C3CC, offset: 0x3C3CC, size: 0x8, addend: 0x0, symName: __ZNSt3__116__variant_detail8__access6__base9__get_altB8ue170006ILm1ERKNS0_6__baseILNS0_6_TraitE1EJNS_9monostateEbxdNS_12basic_stringIcNS_11char_traitsIcEENS_9allocatorIcEEEENS_8functionIF5ValueRKNS_6vectorISE_NSA_ISE_EEEEEEEEEEEEODaOT0_, symObjAddr: 0x13130, symBinAddr: 0x100014004, symSize: 0x24 }
  - { offsetInCU: 0x3C403, offset: 0x3C403, size: 0x8, addend: 0x0, symName: __ZZNSt3__116__variant_detail6__ctorINS0_8__traitsIJNS_9monostateEbxdNS_12basic_stringIcNS_11char_traitsIcEENS_9allocatorIcEEEENS_8functionIF5ValueRKNS_6vectorISB_NS7_ISB_EEEEEEEEEEE19__generic_constructB8ue170006IRKNS0_18__copy_constructorISJ_LNS0_6_TraitE1EEEEEvRSK_OT_ENKUlRSS_OT0_E_clINS0_5__altILm1EbEERKS10_EEDaSU_SW_, symObjAddr: 0x13154, symBinAddr: 0x100014028, symSize: 0x30 }
  - { offsetInCU: 0x3C462, offset: 0x3C462, size: 0x8, addend: 0x0, symName: __ZNSt3__116__variant_detail6__ctorINS0_8__traitsIJNS_9monostateEbxdNS_12basic_stringIcNS_11char_traitsIcEENS_9allocatorIcEEEENS_8functionIF5ValueRKNS_6vectorISB_NS7_ISB_EEEEEEEEEEE15__construct_altB8ue170006ILm1EbJRKbEEERT0_RNS0_5__altIXT_ESO_EEDpOT1_, symObjAddr: 0x13184, symBinAddr: 0x100014058, symSize: 0x30 }
  - { offsetInCU: 0x3C4B3, offset: 0x3C4B3, size: 0x8, addend: 0x0, symName: __ZNSt3__116__variant_detail5__altILm1EbEC1B8ue170006IJRKbEEENS_10in_place_tEDpOT_, symObjAddr: 0x131B4, symBinAddr: 0x100014088, symSize: 0x34 }
  - { offsetInCU: 0x3C503, offset: 0x3C503, size: 0x8, addend: 0x0, symName: __ZNSt3__116__variant_detail5__altILm1EbEC2B8ue170006IJRKbEEENS_10in_place_tEDpOT_, symObjAddr: 0x131E8, symBinAddr: 0x1000140BC, symSize: 0x28 }
  - { offsetInCU: 0x3C553, offset: 0x3C553, size: 0x8, addend: 0x0, symName: __ZNSt3__116__variant_detail8__access6__base9__get_altB8ue170006ILm2ERKNS0_6__baseILNS0_6_TraitE1EJNS_9monostateEbxdNS_12basic_stringIcNS_11char_traitsIcEENS_9allocatorIcEEEENS_8functionIF5ValueRKNS_6vectorISE_NSA_ISE_EEEEEEEEEEEEODaOT0_, symObjAddr: 0x13244, symBinAddr: 0x100014118, symSize: 0x24 }
  - { offsetInCU: 0x3C58A, offset: 0x3C58A, size: 0x8, addend: 0x0, symName: __ZZNSt3__116__variant_detail6__ctorINS0_8__traitsIJNS_9monostateEbxdNS_12basic_stringIcNS_11char_traitsIcEENS_9allocatorIcEEEENS_8functionIF5ValueRKNS_6vectorISB_NS7_ISB_EEEEEEEEEEE19__generic_constructB8ue170006IRKNS0_18__copy_constructorISJ_LNS0_6_TraitE1EEEEEvRSK_OT_ENKUlRSS_OT0_E_clINS0_5__altILm2ExEERKS10_EEDaSU_SW_, symObjAddr: 0x13268, symBinAddr: 0x10001413C, symSize: 0x30 }
  - { offsetInCU: 0x3C5EE, offset: 0x3C5EE, size: 0x8, addend: 0x0, symName: __ZNSt3__116__variant_detail6__ctorINS0_8__traitsIJNS_9monostateEbxdNS_12basic_stringIcNS_11char_traitsIcEENS_9allocatorIcEEEENS_8functionIF5ValueRKNS_6vectorISB_NS7_ISB_EEEEEEEEEEE15__construct_altB8ue170006ILm2ExJRKxEEERT0_RNS0_5__altIXT_ESO_EEDpOT1_, symObjAddr: 0x13298, symBinAddr: 0x10001416C, symSize: 0x30 }
  - { offsetInCU: 0x3C63F, offset: 0x3C63F, size: 0x8, addend: 0x0, symName: __ZNSt3__116__variant_detail5__altILm2ExEC1B8ue170006IJRKxEEENS_10in_place_tEDpOT_, symObjAddr: 0x132C8, symBinAddr: 0x10001419C, symSize: 0x34 }
  - { offsetInCU: 0x3C68F, offset: 0x3C68F, size: 0x8, addend: 0x0, symName: __ZNSt3__116__variant_detail5__altILm2ExEC2B8ue170006IJRKxEEENS_10in_place_tEDpOT_, symObjAddr: 0x132FC, symBinAddr: 0x1000141D0, symSize: 0x24 }
  - { offsetInCU: 0x3C6DF, offset: 0x3C6DF, size: 0x8, addend: 0x0, symName: __ZNSt3__116__variant_detail8__access6__base9__get_altB8ue170006ILm3ERKNS0_6__baseILNS0_6_TraitE1EJNS_9monostateEbxdNS_12basic_stringIcNS_11char_traitsIcEENS_9allocatorIcEEEENS_8functionIF5ValueRKNS_6vectorISE_NSA_ISE_EEEEEEEEEEEEODaOT0_, symObjAddr: 0x13354, symBinAddr: 0x100014228, symSize: 0x24 }
  - { offsetInCU: 0x3C716, offset: 0x3C716, size: 0x8, addend: 0x0, symName: __ZZNSt3__116__variant_detail6__ctorINS0_8__traitsIJNS_9monostateEbxdNS_12basic_stringIcNS_11char_traitsIcEENS_9allocatorIcEEEENS_8functionIF5ValueRKNS_6vectorISB_NS7_ISB_EEEEEEEEEEE19__generic_constructB8ue170006IRKNS0_18__copy_constructorISJ_LNS0_6_TraitE1EEEEEvRSK_OT_ENKUlRSS_OT0_E_clINS0_5__altILm3EdEERKS10_EEDaSU_SW_, symObjAddr: 0x13378, symBinAddr: 0x10001424C, symSize: 0x30 }
  - { offsetInCU: 0x3C77A, offset: 0x3C77A, size: 0x8, addend: 0x0, symName: __ZNSt3__116__variant_detail6__ctorINS0_8__traitsIJNS_9monostateEbxdNS_12basic_stringIcNS_11char_traitsIcEENS_9allocatorIcEEEENS_8functionIF5ValueRKNS_6vectorISB_NS7_ISB_EEEEEEEEEEE15__construct_altB8ue170006ILm3EdJRKdEEERT0_RNS0_5__altIXT_ESO_EEDpOT1_, symObjAddr: 0x133A8, symBinAddr: 0x10001427C, symSize: 0x30 }
  - { offsetInCU: 0x3C7CB, offset: 0x3C7CB, size: 0x8, addend: 0x0, symName: __ZNSt3__116__variant_detail5__altILm3EdEC1B8ue170006IJRKdEEENS_10in_place_tEDpOT_, symObjAddr: 0x133D8, symBinAddr: 0x1000142AC, symSize: 0x34 }
  - { offsetInCU: 0x3C81B, offset: 0x3C81B, size: 0x8, addend: 0x0, symName: __ZNSt3__116__variant_detail5__altILm3EdEC2B8ue170006IJRKdEEENS_10in_place_tEDpOT_, symObjAddr: 0x1340C, symBinAddr: 0x1000142E0, symSize: 0x24 }
  - { offsetInCU: 0x3C86B, offset: 0x3C86B, size: 0x8, addend: 0x0, symName: __ZNSt3__116__variant_detail8__access6__base9__get_altB8ue170006ILm4ERKNS0_6__baseILNS0_6_TraitE1EJNS_9monostateEbxdNS_12basic_stringIcNS_11char_traitsIcEENS_9allocatorIcEEEENS_8functionIF5ValueRKNS_6vectorISE_NSA_ISE_EEEEEEEEEEEEODaOT0_, symObjAddr: 0x13464, symBinAddr: 0x100014338, symSize: 0x24 }
  - { offsetInCU: 0x3C8A2, offset: 0x3C8A2, size: 0x8, addend: 0x0, symName: __ZZNSt3__116__variant_detail6__ctorINS0_8__traitsIJNS_9monostateEbxdNS_12basic_stringIcNS_11char_traitsIcEENS_9allocatorIcEEEENS_8functionIF5ValueRKNS_6vectorISB_NS7_ISB_EEEEEEEEEEE19__generic_constructB8ue170006IRKNS0_18__copy_constructorISJ_LNS0_6_TraitE1EEEEEvRSK_OT_ENKUlRSS_OT0_E_clINS0_5__altILm4ES9_EERKS10_EEDaSU_SW_, symObjAddr: 0x13488, symBinAddr: 0x10001435C, symSize: 0x30 }
  - { offsetInCU: 0x3C8FC, offset: 0x3C8FC, size: 0x8, addend: 0x0, symName: __ZNSt3__116__variant_detail6__ctorINS0_8__traitsIJNS_9monostateEbxdNS_12basic_stringIcNS_11char_traitsIcEENS_9allocatorIcEEEENS_8functionIF5ValueRKNS_6vectorISB_NS7_ISB_EEEEEEEEEEE15__construct_altB8ue170006ILm4ES9_JRKS9_EEERT0_RNS0_5__altIXT_ESO_EEDpOT1_, symObjAddr: 0x134B8, symBinAddr: 0x10001438C, symSize: 0x30 }
  - { offsetInCU: 0x3C957, offset: 0x3C957, size: 0x8, addend: 0x0, symName: __ZNSt3__116__variant_detail8__access6__base9__get_altB8ue170006ILm5ERKNS0_6__baseILNS0_6_TraitE1EJNS_9monostateEbxdNS_12basic_stringIcNS_11char_traitsIcEENS_9allocatorIcEEEENS_8functionIF5ValueRKNS_6vectorISE_NSA_ISE_EEEEEEEEEEEEODaOT0_, symObjAddr: 0x1351C, symBinAddr: 0x1000143F0, symSize: 0x24 }
  - { offsetInCU: 0x3C98E, offset: 0x3C98E, size: 0x8, addend: 0x0, symName: __ZZNSt3__116__variant_detail6__ctorINS0_8__traitsIJNS_9monostateEbxdNS_12basic_stringIcNS_11char_traitsIcEENS_9allocatorIcEEEENS_8functionIF5ValueRKNS_6vectorISB_NS7_ISB_EEEEEEEEEEE19__generic_constructB8ue170006IRKNS0_18__copy_constructorISJ_LNS0_6_TraitE1EEEEEvRSK_OT_ENKUlRSS_OT0_E_clINS0_5__altILm5ESI_EERKS10_EEDaSU_SW_, symObjAddr: 0x13540, symBinAddr: 0x100014414, symSize: 0x30 }
  - { offsetInCU: 0x3C9E8, offset: 0x3C9E8, size: 0x8, addend: 0x0, symName: __ZNSt3__116__variant_detail6__ctorINS0_8__traitsIJNS_9monostateEbxdNS_12basic_stringIcNS_11char_traitsIcEENS_9allocatorIcEEEENS_8functionIF5ValueRKNS_6vectorISB_NS7_ISB_EEEEEEEEEEE15__construct_altB8ue170006ILm5ESI_JRKSI_EEERT0_RNS0_5__altIXT_ESO_EEDpOT1_, symObjAddr: 0x13570, symBinAddr: 0x100014444, symSize: 0x30 }
  - { offsetInCU: 0x3CA39, offset: 0x3CA39, size: 0x8, addend: 0x0, symName: __ZNSt3__116__variant_detail5__altILm5ENS_8functionIF5ValueRKNS_6vectorIS3_NS_9allocatorIS3_EEEEEEEEC1B8ue170006IJRKSB_EEENS_10in_place_tEDpOT_, symObjAddr: 0x135A0, symBinAddr: 0x100014474, symSize: 0x34 }
  - { offsetInCU: 0x3CA89, offset: 0x3CA89, size: 0x8, addend: 0x0, symName: __ZNSt3__116__variant_detail5__altILm5ENS_8functionIF5ValueRKNS_6vectorIS3_NS_9allocatorIS3_EEEEEEEEC2B8ue170006IJRKSB_EEENS_10in_place_tEDpOT_, symObjAddr: 0x135D4, symBinAddr: 0x1000144A8, symSize: 0x34 }
  - { offsetInCU: 0x3CAD9, offset: 0x3CAD9, size: 0x8, addend: 0x0, symName: __ZNSt3__116__variant_detail8__access7__union9__get_altB8ue170006IRKNS0_7__unionILNS0_6_TraitE1ELm0EJNS_9monostateEbxdNS_12basic_stringIcNS_11char_traitsIcEENS_9allocatorIcEEEENS_8functionIF5ValueRKNS_6vectorISE_NSA_ISE_EEEEEEEEEELm5EEEODaOT_NS_16in_place_index_tIXT0_EEE, symObjAddr: 0x13608, symBinAddr: 0x1000144DC, symSize: 0x24 }
  - { offsetInCU: 0x3CB1C, offset: 0x3CB1C, size: 0x8, addend: 0x0, symName: __ZNSt3__116__variant_detail8__access7__union9__get_altB8ue170006IRKNS0_7__unionILNS0_6_TraitE1ELm1EJbxdNS_12basic_stringIcNS_11char_traitsIcEENS_9allocatorIcEEEENS_8functionIF5ValueRKNS_6vectorISD_NS9_ISD_EEEEEEEEEELm4EEEODaOT_NS_16in_place_index_tIXT0_EEE, symObjAddr: 0x1362C, symBinAddr: 0x100014500, symSize: 0x24 }
  - { offsetInCU: 0x3CB5F, offset: 0x3CB5F, size: 0x8, addend: 0x0, symName: __ZNSt3__116__variant_detail8__access7__union9__get_altB8ue170006IRKNS0_7__unionILNS0_6_TraitE1ELm2EJxdNS_12basic_stringIcNS_11char_traitsIcEENS_9allocatorIcEEEENS_8functionIF5ValueRKNS_6vectorISD_NS9_ISD_EEEEEEEEEELm3EEEODaOT_NS_16in_place_index_tIXT0_EEE, symObjAddr: 0x13650, symBinAddr: 0x100014524, symSize: 0x24 }
  - { offsetInCU: 0x3CBA2, offset: 0x3CBA2, size: 0x8, addend: 0x0, symName: __ZNSt3__116__variant_detail8__access7__union9__get_altB8ue170006IRKNS0_7__unionILNS0_6_TraitE1ELm3EJdNS_12basic_stringIcNS_11char_traitsIcEENS_9allocatorIcEEEENS_8functionIF5ValueRKNS_6vectorISD_NS9_ISD_EEEEEEEEEELm2EEEODaOT_NS_16in_place_index_tIXT0_EEE, symObjAddr: 0x13674, symBinAddr: 0x100014548, symSize: 0x24 }
  - { offsetInCU: 0x3CBE5, offset: 0x3CBE5, size: 0x8, addend: 0x0, symName: __ZNSt3__116__variant_detail8__access7__union9__get_altB8ue170006IRKNS0_7__unionILNS0_6_TraitE1ELm4EJNS_12basic_stringIcNS_11char_traitsIcEENS_9allocatorIcEEEENS_8functionIF5ValueRKNS_6vectorISD_NS9_ISD_EEEEEEEEEELm1EEEODaOT_NS_16in_place_index_tIXT0_EEE, symObjAddr: 0x13698, symBinAddr: 0x10001456C, symSize: 0x24 }
  - { offsetInCU: 0x3CC28, offset: 0x3CC28, size: 0x8, addend: 0x0, symName: __ZNSt3__116__variant_detail8__access7__union9__get_altB8ue170006IRKNS0_7__unionILNS0_6_TraitE1ELm5EJNS_8functionIF5ValueRKNS_6vectorIS7_NS_9allocatorIS7_EEEEEEEEEEEEODaOT_NS_16in_place_index_tILm0EEE, symObjAddr: 0x136BC, symBinAddr: 0x100014590, symSize: 0x14 }
  - { offsetInCU: 0x3CC61, offset: 0x3CC61, size: 0x8, addend: 0x0, symName: __ZNKSt3__16vectorIN6chisel6Parser4NodeENS_9allocatorIS3_EEE11__make_iterB8ue170006EPKS3_, symObjAddr: 0x136D0, symBinAddr: 0x1000145A4, symSize: 0x30 }
  - { offsetInCU: 0x3CC96, offset: 0x3CC96, size: 0x8, addend: 0x0, symName: __ZNSt3__111__wrap_iterIPKN6chisel6Parser4NodeEEC1B8ue170006ES5_, symObjAddr: 0x13700, symBinAddr: 0x1000145D4, symSize: 0x34 }
  - { offsetInCU: 0x3CCCE, offset: 0x3CCCE, size: 0x8, addend: 0x0, symName: __ZNSt3__111__wrap_iterIPKN6chisel6Parser4NodeEEC2B8ue170006ES5_, symObjAddr: 0x13734, symBinAddr: 0x100014608, symSize: 0x20 }
  - { offsetInCU: 0x3CD06, offset: 0x3CD06, size: 0x8, addend: 0x0, symName: __ZNKSt3__111__wrap_iterIPKN6chisel6Parser4NodeEE4baseB8ue170006Ev, symObjAddr: 0x1379C, symBinAddr: 0x100014670, symSize: 0x18 }
  - { offsetInCU: 0x3CD2C, offset: 0x3CD2C, size: 0x8, addend: 0x0, symName: __ZNSt3__17variantIJNS_9monostateEbxdNS_12basic_stringIcNS_11char_traitsIcEENS_9allocatorIcEEEENS_8functionIF5ValueRKNS_6vectorIS9_NS5_IS9_EEEEEEEEEaSB8ue170006ERKSH_, symObjAddr: 0x137B4, symBinAddr: 0x100014688, symSize: 0x34 }
  - { offsetInCU: 0x3CD5E, offset: 0x3CD5E, size: 0x8, addend: 0x0, symName: __ZNSt3__116__variant_detail6__implIJNS_9monostateEbxdNS_12basic_stringIcNS_11char_traitsIcEENS_9allocatorIcEEEENS_8functionIF5ValueRKNS_6vectorISA_NS6_ISA_EEEEEEEEEaSB8ue170006ERKSI_, symObjAddr: 0x137E8, symBinAddr: 0x1000146BC, symSize: 0x34 }
  - { offsetInCU: 0x3CD90, offset: 0x3CD90, size: 0x8, addend: 0x0, symName: __ZNSt3__116__variant_detail17__copy_assignmentINS0_8__traitsIJNS_9monostateEbxdNS_12basic_stringIcNS_11char_traitsIcEENS_9allocatorIcEEEENS_8functionIF5ValueRKNS_6vectorISB_NS7_ISB_EEEEEEEEEELNS0_6_TraitE1EEaSERKSL_, symObjAddr: 0x1381C, symBinAddr: 0x1000146F0, symSize: 0x34 }
  - { offsetInCU: 0x3CDC5, offset: 0x3CDC5, size: 0x8, addend: 0x0, symName: __ZNSt3__116__variant_detail12__assignmentINS0_8__traitsIJNS_9monostateEbxdNS_12basic_stringIcNS_11char_traitsIcEENS_9allocatorIcEEEENS_8functionIF5ValueRKNS_6vectorISB_NS7_ISB_EEEEEEEEEEE16__generic_assignB8ue170006IRKNS0_17__copy_assignmentISJ_LNS0_6_TraitE1EEEEEvOT_, symObjAddr: 0x13850, symBinAddr: 0x100014724, symSize: 0x88 }
  - { offsetInCU: 0x3CF1F, offset: 0x3CF1F, size: 0x8, addend: 0x0, symName: __ZNSt3__116__variant_detail12__visitation6__base14__visit_alt_atB8ue170006IZNS0_12__assignmentINS0_8__traitsIJNS_9monostateEbxdNS_12basic_stringIcNS_11char_traitsIcEENS_9allocatorIcEEEENS_8functionIF5ValueRKNS_6vectorISE_NSA_ISE_EEEEEEEEEEE16__generic_assignB8ue170006IRKNS0_17__copy_assignmentISM_LNS0_6_TraitE1EEEEEvOT_EUlRSU_OT0_E_JRSN_ST_EEEDcmSV_DpOT0_, symObjAddr: 0x138D8, symBinAddr: 0x1000147AC, symSize: 0x84 }
  - { offsetInCU: 0x3CF98, offset: 0x3CF98, size: 0x8, addend: 0x0, symName: __ZNSt3__116__variant_detail12__visitation6__base12__dispatcherIJLm0ELm0EEE10__dispatchB8ue170006IOZNS0_12__assignmentINS0_8__traitsIJNS_9monostateEbxdNS_12basic_stringIcNS_11char_traitsIcEENS_9allocatorIcEEEENS_8functionIF5ValueRKNS_6vectorISG_NSC_ISG_EEEEEEEEEEE16__generic_assignB8ue170006IRKNS0_17__copy_assignmentISO_LNS0_6_TraitE1EEEEEvOT_EUlRSW_OT0_E_JRNS0_6__baseILSS_1EJS8_bxdSE_SN_EEERKS14_EEEDcSW_DpT0_, symObjAddr: 0x1395C, symBinAddr: 0x100014830, symSize: 0x50 }
  - { offsetInCU: 0x3CFF3, offset: 0x3CFF3, size: 0x8, addend: 0x0, symName: __ZNSt3__116__variant_detail12__visitation6__base12__dispatcherIJLm1ELm1EEE10__dispatchB8ue170006IOZNS0_12__assignmentINS0_8__traitsIJNS_9monostateEbxdNS_12basic_stringIcNS_11char_traitsIcEENS_9allocatorIcEEEENS_8functionIF5ValueRKNS_6vectorISG_NSC_ISG_EEEEEEEEEEE16__generic_assignB8ue170006IRKNS0_17__copy_assignmentISO_LNS0_6_TraitE1EEEEEvOT_EUlRSW_OT0_E_JRNS0_6__baseILSS_1EJS8_bxdSE_SN_EEERKS14_EEEDcSW_DpT0_, symObjAddr: 0x139AC, symBinAddr: 0x100014880, symSize: 0x50 }
  - { offsetInCU: 0x3D04E, offset: 0x3D04E, size: 0x8, addend: 0x0, symName: __ZNSt3__116__variant_detail12__visitation6__base12__dispatcherIJLm2ELm2EEE10__dispatchB8ue170006IOZNS0_12__assignmentINS0_8__traitsIJNS_9monostateEbxdNS_12basic_stringIcNS_11char_traitsIcEENS_9allocatorIcEEEENS_8functionIF5ValueRKNS_6vectorISG_NSC_ISG_EEEEEEEEEEE16__generic_assignB8ue170006IRKNS0_17__copy_assignmentISO_LNS0_6_TraitE1EEEEEvOT_EUlRSW_OT0_E_JRNS0_6__baseILSS_1EJS8_bxdSE_SN_EEERKS14_EEEDcSW_DpT0_, symObjAddr: 0x139FC, symBinAddr: 0x1000148D0, symSize: 0x50 }
  - { offsetInCU: 0x3D0A9, offset: 0x3D0A9, size: 0x8, addend: 0x0, symName: __ZNSt3__116__variant_detail12__visitation6__base12__dispatcherIJLm3ELm3EEE10__dispatchB8ue170006IOZNS0_12__assignmentINS0_8__traitsIJNS_9monostateEbxdNS_12basic_stringIcNS_11char_traitsIcEENS_9allocatorIcEEEENS_8functionIF5ValueRKNS_6vectorISG_NSC_ISG_EEEEEEEEEEE16__generic_assignB8ue170006IRKNS0_17__copy_assignmentISO_LNS0_6_TraitE1EEEEEvOT_EUlRSW_OT0_E_JRNS0_6__baseILSS_1EJS8_bxdSE_SN_EEERKS14_EEEDcSW_DpT0_, symObjAddr: 0x13A4C, symBinAddr: 0x100014920, symSize: 0x50 }
  - { offsetInCU: 0x3D104, offset: 0x3D104, size: 0x8, addend: 0x0, symName: __ZNSt3__116__variant_detail12__visitation6__base12__dispatcherIJLm4ELm4EEE10__dispatchB8ue170006IOZNS0_12__assignmentINS0_8__traitsIJNS_9monostateEbxdNS_12basic_stringIcNS_11char_traitsIcEENS_9allocatorIcEEEENS_8functionIF5ValueRKNS_6vectorISG_NSC_ISG_EEEEEEEEEEE16__generic_assignB8ue170006IRKNS0_17__copy_assignmentISO_LNS0_6_TraitE1EEEEEvOT_EUlRSW_OT0_E_JRNS0_6__baseILSS_1EJS8_bxdSE_SN_EEERKS14_EEEDcSW_DpT0_, symObjAddr: 0x13A9C, symBinAddr: 0x100014970, symSize: 0x50 }
  - { offsetInCU: 0x3D15F, offset: 0x3D15F, size: 0x8, addend: 0x0, symName: __ZNSt3__116__variant_detail12__visitation6__base12__dispatcherIJLm5ELm5EEE10__dispatchB8ue170006IOZNS0_12__assignmentINS0_8__traitsIJNS_9monostateEbxdNS_12basic_stringIcNS_11char_traitsIcEENS_9allocatorIcEEEENS_8functionIF5ValueRKNS_6vectorISG_NSC_ISG_EEEEEEEEEEE16__generic_assignB8ue170006IRKNS0_17__copy_assignmentISO_LNS0_6_TraitE1EEEEEvOT_EUlRSW_OT0_E_JRNS0_6__baseILSS_1EJS8_bxdSE_SN_EEERKS14_EEEDcSW_DpT0_, symObjAddr: 0x13AEC, symBinAddr: 0x1000149C0, symSize: 0x50 }
  - { offsetInCU: 0x3D1F3, offset: 0x3D1F3, size: 0x8, addend: 0x0, symName: __ZNKSt3__18__farrayIPFvOZNS_16__variant_detail12__assignmentINS1_8__traitsIJNS_9monostateEbxdNS_12basic_stringIcNS_11char_traitsIcEENS_9allocatorIcEEEENS_8functionIF5ValueRKNS_6vectorISC_NS8_ISC_EEEEEEEEEEE16__generic_assignB8ue170006IRKNS1_17__copy_assignmentISK_LNS1_6_TraitE1EEEEEvOT_EUlRSS_OT0_E_RNS1_6__baseILSO_1EJS4_bxdSA_SJ_EEERKS10_ELm6EEixB8ue170006Em, symObjAddr: 0x13B3C, symBinAddr: 0x100014A10, symSize: 0x20 }
  - { offsetInCU: 0x3D232, offset: 0x3D232, size: 0x8, addend: 0x0, symName: __ZZNSt3__116__variant_detail12__assignmentINS0_8__traitsIJNS_9monostateEbxdNS_12basic_stringIcNS_11char_traitsIcEENS_9allocatorIcEEEENS_8functionIF5ValueRKNS_6vectorISB_NS7_ISB_EEEEEEEEEEE16__generic_assignB8ue170006IRKNS0_17__copy_assignmentISJ_LNS0_6_TraitE1EEEEEvOT_ENKUlRSR_OT0_E_clINS0_5__altILm0ES3_EERKSZ_EEDaST_SV_, symObjAddr: 0x13B90, symBinAddr: 0x100014A64, symSize: 0x38 }
  - { offsetInCU: 0x3D28C, offset: 0x3D28C, size: 0x8, addend: 0x0, symName: __ZNSt3__116__variant_detail12__assignmentINS0_8__traitsIJNS_9monostateEbxdNS_12basic_stringIcNS_11char_traitsIcEENS_9allocatorIcEEEENS_8functionIF5ValueRKNS_6vectorISB_NS7_ISB_EEEEEEEEEEE12__assign_altB8ue170006ILm0ES3_RKS3_EEvRNS0_5__altIXT_ET0_EEOT1_, symObjAddr: 0x13BC8, symBinAddr: 0x100014A9C, symSize: 0x60 }
  - { offsetInCU: 0x3D35B, offset: 0x3D35B, size: 0x8, addend: 0x0, symName: __ZZNSt3__116__variant_detail12__assignmentINS0_8__traitsIJNS_9monostateEbxdNS_12basic_stringIcNS_11char_traitsIcEENS_9allocatorIcEEEENS_8functionIF5ValueRKNS_6vectorISB_NS7_ISB_EEEEEEEEEEE12__assign_altB8ue170006ILm0ES3_RKS3_EEvRNS0_5__altIXT_ET0_EEOT1_ENKUt_clB8ue170006ENS_17integral_constantIbLb1EEE, symObjAddr: 0x13C28, symBinAddr: 0x100014AFC, symSize: 0x2C }
  - { offsetInCU: 0x3D391, offset: 0x3D391, size: 0x8, addend: 0x0, symName: __ZNSt3__116__variant_detail12__assignmentINS0_8__traitsIJNS_9monostateEbxdNS_12basic_stringIcNS_11char_traitsIcEENS_9allocatorIcEEEENS_8functionIF5ValueRKNS_6vectorISB_NS7_ISB_EEEEEEEEEEE9__emplaceB8ue170006ILm0EJRKS3_EEERDaDpOT0_, symObjAddr: 0x13C54, symBinAddr: 0x100014B28, symSize: 0x4C }
  - { offsetInCU: 0x3D3EA, offset: 0x3D3EA, size: 0x8, addend: 0x0, symName: __ZZNSt3__116__variant_detail12__assignmentINS0_8__traitsIJNS_9monostateEbxdNS_12basic_stringIcNS_11char_traitsIcEENS_9allocatorIcEEEENS_8functionIF5ValueRKNS_6vectorISB_NS7_ISB_EEEEEEEEEEE16__generic_assignB8ue170006IRKNS0_17__copy_assignmentISJ_LNS0_6_TraitE1EEEEEvOT_ENKUlRSR_OT0_E_clINS0_5__altILm1EbEERKSZ_EEDaST_SV_, symObjAddr: 0x13CD4, symBinAddr: 0x100014BA8, symSize: 0x38 }
  - { offsetInCU: 0x3D444, offset: 0x3D444, size: 0x8, addend: 0x0, symName: __ZNSt3__116__variant_detail12__assignmentINS0_8__traitsIJNS_9monostateEbxdNS_12basic_stringIcNS_11char_traitsIcEENS_9allocatorIcEEEENS_8functionIF5ValueRKNS_6vectorISB_NS7_ISB_EEEEEEEEEEE12__assign_altB8ue170006ILm1EbRKbEEvRNS0_5__altIXT_ET0_EEOT1_, symObjAddr: 0x13D0C, symBinAddr: 0x100014BE0, symSize: 0x74 }
  - { offsetInCU: 0x3D513, offset: 0x3D513, size: 0x8, addend: 0x0, symName: __ZZNSt3__116__variant_detail12__assignmentINS0_8__traitsIJNS_9monostateEbxdNS_12basic_stringIcNS_11char_traitsIcEENS_9allocatorIcEEEENS_8functionIF5ValueRKNS_6vectorISB_NS7_ISB_EEEEEEEEEEE12__assign_altB8ue170006ILm1EbRKbEEvRNS0_5__altIXT_ET0_EEOT1_ENKUt_clB8ue170006ENS_17integral_constantIbLb1EEE, symObjAddr: 0x13D80, symBinAddr: 0x100014C54, symSize: 0x2C }
  - { offsetInCU: 0x3D549, offset: 0x3D549, size: 0x8, addend: 0x0, symName: __ZNSt3__116__variant_detail12__assignmentINS0_8__traitsIJNS_9monostateEbxdNS_12basic_stringIcNS_11char_traitsIcEENS_9allocatorIcEEEENS_8functionIF5ValueRKNS_6vectorISB_NS7_ISB_EEEEEEEEEEE9__emplaceB8ue170006ILm1EJRKbEEERDaDpOT0_, symObjAddr: 0x13DAC, symBinAddr: 0x100014C80, symSize: 0x50 }
  - { offsetInCU: 0x3D5A2, offset: 0x3D5A2, size: 0x8, addend: 0x0, symName: __ZZNSt3__116__variant_detail12__assignmentINS0_8__traitsIJNS_9monostateEbxdNS_12basic_stringIcNS_11char_traitsIcEENS_9allocatorIcEEEENS_8functionIF5ValueRKNS_6vectorISB_NS7_ISB_EEEEEEEEEEE16__generic_assignB8ue170006IRKNS0_17__copy_assignmentISJ_LNS0_6_TraitE1EEEEEvOT_ENKUlRSR_OT0_E_clINS0_5__altILm2ExEERKSZ_EEDaST_SV_, symObjAddr: 0x13E30, symBinAddr: 0x100014D04, symSize: 0x38 }
  - { offsetInCU: 0x3D5FC, offset: 0x3D5FC, size: 0x8, addend: 0x0, symName: __ZNSt3__116__variant_detail12__assignmentINS0_8__traitsIJNS_9monostateEbxdNS_12basic_stringIcNS_11char_traitsIcEENS_9allocatorIcEEEENS_8functionIF5ValueRKNS_6vectorISB_NS7_ISB_EEEEEEEEEEE12__assign_altB8ue170006ILm2ExRKxEEvRNS0_5__altIXT_ET0_EEOT1_, symObjAddr: 0x13E68, symBinAddr: 0x100014D3C, symSize: 0x70 }
  - { offsetInCU: 0x3D6CB, offset: 0x3D6CB, size: 0x8, addend: 0x0, symName: __ZZNSt3__116__variant_detail12__assignmentINS0_8__traitsIJNS_9monostateEbxdNS_12basic_stringIcNS_11char_traitsIcEENS_9allocatorIcEEEENS_8functionIF5ValueRKNS_6vectorISB_NS7_ISB_EEEEEEEEEEE12__assign_altB8ue170006ILm2ExRKxEEvRNS0_5__altIXT_ET0_EEOT1_ENKUt_clB8ue170006ENS_17integral_constantIbLb1EEE, symObjAddr: 0x13ED8, symBinAddr: 0x100014DAC, symSize: 0x2C }
  - { offsetInCU: 0x3D701, offset: 0x3D701, size: 0x8, addend: 0x0, symName: __ZNSt3__116__variant_detail12__assignmentINS0_8__traitsIJNS_9monostateEbxdNS_12basic_stringIcNS_11char_traitsIcEENS_9allocatorIcEEEENS_8functionIF5ValueRKNS_6vectorISB_NS7_ISB_EEEEEEEEEEE9__emplaceB8ue170006ILm2EJRKxEEERDaDpOT0_, symObjAddr: 0x13F04, symBinAddr: 0x100014DD8, symSize: 0x50 }
  - { offsetInCU: 0x3D75A, offset: 0x3D75A, size: 0x8, addend: 0x0, symName: __ZZNSt3__116__variant_detail12__assignmentINS0_8__traitsIJNS_9monostateEbxdNS_12basic_stringIcNS_11char_traitsIcEENS_9allocatorIcEEEENS_8functionIF5ValueRKNS_6vectorISB_NS7_ISB_EEEEEEEEEEE16__generic_assignB8ue170006IRKNS0_17__copy_assignmentISJ_LNS0_6_TraitE1EEEEEvOT_ENKUlRSR_OT0_E_clINS0_5__altILm3EdEERKSZ_EEDaST_SV_, symObjAddr: 0x13F88, symBinAddr: 0x100014E5C, symSize: 0x38 }
  - { offsetInCU: 0x3D7B4, offset: 0x3D7B4, size: 0x8, addend: 0x0, symName: __ZNSt3__116__variant_detail12__assignmentINS0_8__traitsIJNS_9monostateEbxdNS_12basic_stringIcNS_11char_traitsIcEENS_9allocatorIcEEEENS_8functionIF5ValueRKNS_6vectorISB_NS7_ISB_EEEEEEEEEEE12__assign_altB8ue170006ILm3EdRKdEEvRNS0_5__altIXT_ET0_EEOT1_, symObjAddr: 0x13FC0, symBinAddr: 0x100014E94, symSize: 0x70 }
  - { offsetInCU: 0x3D883, offset: 0x3D883, size: 0x8, addend: 0x0, symName: __ZZNSt3__116__variant_detail12__assignmentINS0_8__traitsIJNS_9monostateEbxdNS_12basic_stringIcNS_11char_traitsIcEENS_9allocatorIcEEEENS_8functionIF5ValueRKNS_6vectorISB_NS7_ISB_EEEEEEEEEEE12__assign_altB8ue170006ILm3EdRKdEEvRNS0_5__altIXT_ET0_EEOT1_ENKUt_clB8ue170006ENS_17integral_constantIbLb1EEE, symObjAddr: 0x14030, symBinAddr: 0x100014F04, symSize: 0x2C }
  - { offsetInCU: 0x3D8B9, offset: 0x3D8B9, size: 0x8, addend: 0x0, symName: __ZNSt3__116__variant_detail12__assignmentINS0_8__traitsIJNS_9monostateEbxdNS_12basic_stringIcNS_11char_traitsIcEENS_9allocatorIcEEEENS_8functionIF5ValueRKNS_6vectorISB_NS7_ISB_EEEEEEEEEEE9__emplaceB8ue170006ILm3EJRKdEEERDaDpOT0_, symObjAddr: 0x1405C, symBinAddr: 0x100014F30, symSize: 0x50 }
  - { offsetInCU: 0x3D912, offset: 0x3D912, size: 0x8, addend: 0x0, symName: __ZZNSt3__116__variant_detail12__assignmentINS0_8__traitsIJNS_9monostateEbxdNS_12basic_stringIcNS_11char_traitsIcEENS_9allocatorIcEEEENS_8functionIF5ValueRKNS_6vectorISB_NS7_ISB_EEEEEEEEEEE16__generic_assignB8ue170006IRKNS0_17__copy_assignmentISJ_LNS0_6_TraitE1EEEEEvOT_ENKUlRSR_OT0_E_clINS0_5__altILm4ES9_EERKSZ_EEDaST_SV_, symObjAddr: 0x140E0, symBinAddr: 0x100014FB4, symSize: 0x38 }
  - { offsetInCU: 0x3D96C, offset: 0x3D96C, size: 0x8, addend: 0x0, symName: __ZNSt3__116__variant_detail12__assignmentINS0_8__traitsIJNS_9monostateEbxdNS_12basic_stringIcNS_11char_traitsIcEENS_9allocatorIcEEEENS_8functionIF5ValueRKNS_6vectorISB_NS7_ISB_EEEEEEEEEEE12__assign_altB8ue170006ILm4ES9_RKS9_EEvRNS0_5__altIXT_ET0_EEOT1_, symObjAddr: 0x14118, symBinAddr: 0x100014FEC, symSize: 0x6C }
  - { offsetInCU: 0x3DA3B, offset: 0x3DA3B, size: 0x8, addend: 0x0, symName: __ZZNSt3__116__variant_detail12__assignmentINS0_8__traitsIJNS_9monostateEbxdNS_12basic_stringIcNS_11char_traitsIcEENS_9allocatorIcEEEENS_8functionIF5ValueRKNS_6vectorISB_NS7_ISB_EEEEEEEEEEE12__assign_altB8ue170006ILm4ES9_RKS9_EEvRNS0_5__altIXT_ET0_EEOT1_ENKUt_clB8ue170006ENS_17integral_constantIbLb0EEE, symObjAddr: 0x14184, symBinAddr: 0x100015058, symSize: 0x70 }
  - { offsetInCU: 0x3DA71, offset: 0x3DA71, size: 0x8, addend: 0x0, symName: __ZZNSt3__116__variant_detail12__assignmentINS0_8__traitsIJNS_9monostateEbxdNS_12basic_stringIcNS_11char_traitsIcEENS_9allocatorIcEEEENS_8functionIF5ValueRKNS_6vectorISB_NS7_ISB_EEEEEEEEEEE16__generic_assignB8ue170006IRKNS0_17__copy_assignmentISJ_LNS0_6_TraitE1EEEEEvOT_ENKUlRSR_OT0_E_clINS0_5__altILm5ESI_EERKSZ_EEDaST_SV_, symObjAddr: 0x14228, symBinAddr: 0x1000150FC, symSize: 0x38 }
  - { offsetInCU: 0x3DACB, offset: 0x3DACB, size: 0x8, addend: 0x0, symName: __ZNSt3__116__variant_detail12__assignmentINS0_8__traitsIJNS_9monostateEbxdNS_12basic_stringIcNS_11char_traitsIcEENS_9allocatorIcEEEENS_8functionIF5ValueRKNS_6vectorISB_NS7_ISB_EEEEEEEEEEE12__assign_altB8ue170006ILm5ESI_RKSI_EEvRNS0_5__altIXT_ET0_EEOT1_, symObjAddr: 0x14260, symBinAddr: 0x100015134, symSize: 0x6C }
  - { offsetInCU: 0x3DB90, offset: 0x3DB90, size: 0x8, addend: 0x0, symName: __ZNSt3__18functionIF5ValueRKNS_6vectorIS1_NS_9allocatorIS1_EEEEEEaSERKS9_, symObjAddr: 0x142CC, symBinAddr: 0x1000151A0, symSize: 0x84 }
  - { offsetInCU: 0x3DBD1, offset: 0x3DBD1, size: 0x8, addend: 0x0, symName: __ZZNSt3__116__variant_detail12__assignmentINS0_8__traitsIJNS_9monostateEbxdNS_12basic_stringIcNS_11char_traitsIcEENS_9allocatorIcEEEENS_8functionIF5ValueRKNS_6vectorISB_NS7_ISB_EEEEEEEEEEE12__assign_altB8ue170006ILm5ESI_RKSI_EEvRNS0_5__altIXT_ET0_EEOT1_ENKUt_clB8ue170006ENS_17integral_constantIbLb0EEE, symObjAddr: 0x14350, symBinAddr: 0x100015224, symSize: 0xA4 }
  - { offsetInCU: 0x3DC07, offset: 0x3DC07, size: 0x8, addend: 0x0, symName: __ZNSt3__18functionIF5ValueRKNS_6vectorIS1_NS_9allocatorIS1_EEEEEE4swapERS9_, symObjAddr: 0x143F4, symBinAddr: 0x1000152C8, symSize: 0x2C }
  - { offsetInCU: 0x3DC3E, offset: 0x3DC3E, size: 0x8, addend: 0x0, symName: __ZNSt3__110__function12__value_funcIF5ValueRKNS_6vectorIS2_NS_9allocatorIS2_EEEEEE4swapB8ue170006ERSA_, symObjAddr: 0x14420, symBinAddr: 0x1000152F4, symSize: 0x2A8 }
  - { offsetInCU: 0x3DC98, offset: 0x3DC98, size: 0x8, addend: 0x0, symName: __ZNSt3__116__variant_detail8__access9__variant9__get_altB8ue170006ILm5ERNS_7variantIJNS_9monostateEbxdNS_12basic_stringIcNS_11char_traitsIcEENS_9allocatorIcEEEENS_8functionIF5ValueRKNS_6vectorISD_NS9_ISD_EEEEEEEEEEEEODaOT0_, symObjAddr: 0x147B8, symBinAddr: 0x10001568C, symSize: 0x24 }
  - { offsetInCU: 0x3DCCF, offset: 0x3DCCF, size: 0x8, addend: 0x0, symName: __ZNSt3__116__variant_detail8__access6__base9__get_altB8ue170006ILm5ERNS0_6__implIJNS_9monostateEbxdNS_12basic_stringIcNS_11char_traitsIcEENS_9allocatorIcEEEENS_8functionIF5ValueRKNS_6vectorISD_NS9_ISD_EEEEEEEEEEEEODaOT0_, symObjAddr: 0x147DC, symBinAddr: 0x1000156B0, symSize: 0x24 }
  - { offsetInCU: 0x3DD06, offset: 0x3DD06, size: 0x8, addend: 0x0, symName: __ZNSt3__16vectorI5ValueNS_9allocatorIS1_EEEC2B8ue170006Ev, symObjAddr: 0x14800, symBinAddr: 0x1000156D4, symSize: 0x4C }
  - { offsetInCU: 0x3DD30, offset: 0x3DD30, size: 0x8, addend: 0x0, symName: __ZNSt3__117__compressed_pairIP5ValueNS_9allocatorIS1_EEEC1B8ue170006IDnNS_18__default_init_tagEEEOT_OT0_, symObjAddr: 0x1484C, symBinAddr: 0x100015720, symSize: 0x3C }
  - { offsetInCU: 0x3DD88, offset: 0x3DD88, size: 0x8, addend: 0x0, symName: __ZNSt3__117__compressed_pairIP5ValueNS_9allocatorIS1_EEEC2B8ue170006IDnNS_18__default_init_tagEEEOT_OT0_, symObjAddr: 0x14888, symBinAddr: 0x10001575C, symSize: 0x40 }
  - { offsetInCU: 0x3DDE0, offset: 0x3DDE0, size: 0x8, addend: 0x0, symName: __ZNSt3__122__compressed_pair_elemIP5ValueLi0ELb0EEC2B8ue170006IDnvEEOT_, symObjAddr: 0x148C8, symBinAddr: 0x10001579C, symSize: 0x1C }
  - { offsetInCU: 0x3DE22, offset: 0x3DE22, size: 0x8, addend: 0x0, symName: __ZNSt3__122__compressed_pair_elemINS_9allocatorI5ValueEELi1ELb1EEC2B8ue170006ENS_18__default_init_tagE, symObjAddr: 0x148E4, symBinAddr: 0x1000157B8, symSize: 0x2C }
  - { offsetInCU: 0x3DE56, offset: 0x3DE56, size: 0x8, addend: 0x0, symName: __ZNSt3__19allocatorI5ValueEC2B8ue170006Ev, symObjAddr: 0x14910, symBinAddr: 0x1000157E4, symSize: 0x2C }
  - { offsetInCU: 0x3DE80, offset: 0x3DE80, size: 0x8, addend: 0x0, symName: __ZNSt3__116__non_trivial_ifILb1ENS_9allocatorI5ValueEEEC2B8ue170006Ev, symObjAddr: 0x1493C, symBinAddr: 0x100015810, symSize: 0x14 }
  - { offsetInCU: 0x3DEAA, offset: 0x3DEAA, size: 0x8, addend: 0x0, symName: __ZNSt3__16vectorI5ValueNS_9allocatorIS1_EEE9__end_capB8ue170006Ev, symObjAddr: 0x14950, symBinAddr: 0x100015824, symSize: 0x28 }
  - { offsetInCU: 0x3DED0, offset: 0x3DED0, size: 0x8, addend: 0x0, symName: __ZNSt3__16vectorI5ValueNS_9allocatorIS1_EEE22__construct_one_at_endB8ue170006IJS1_EEEvDpOT_, symObjAddr: 0x14978, symBinAddr: 0x10001584C, symSize: 0x90 }
  - { offsetInCU: 0x3DF1F, offset: 0x3DF1F, size: 0x8, addend: 0x0, symName: __ZNSt3__16vectorI5ValueNS_9allocatorIS1_EEE21__push_back_slow_pathIS1_EEvOT_, symObjAddr: 0x14A08, symBinAddr: 0x1000158DC, symSize: 0xD8 }
  - { offsetInCU: 0x3DF7D, offset: 0x3DF7D, size: 0x8, addend: 0x0, symName: __ZNSt3__117__compressed_pairIP5ValueNS_9allocatorIS1_EEE5firstB8ue170006Ev, symObjAddr: 0x14AE0, symBinAddr: 0x1000159B4, symSize: 0x24 }
  - { offsetInCU: 0x3DFA3, offset: 0x3DFA3, size: 0x8, addend: 0x0, symName: __ZNSt3__122__compressed_pair_elemIP5ValueLi0ELb0EE5__getB8ue170006Ev, symObjAddr: 0x14B04, symBinAddr: 0x1000159D8, symSize: 0x14 }
  - { offsetInCU: 0x3DFE2, offset: 0x3DFE2, size: 0x8, addend: 0x0, symName: __ZNSt3__16vectorI5ValueNS_9allocatorIS1_EEE21_ConstructTransactionC1B8ue170006ERS4_m, symObjAddr: 0x14B18, symBinAddr: 0x1000159EC, symSize: 0x3C }
  - { offsetInCU: 0x3E02A, offset: 0x3E02A, size: 0x8, addend: 0x0, symName: __ZNSt3__116allocator_traitsINS_9allocatorI5ValueEEE9constructB8ue170006IS2_JS2_EvvEEvRS3_PT_DpOT0_, symObjAddr: 0x14B54, symBinAddr: 0x100015A28, symSize: 0x30 }
  - { offsetInCU: 0x3E07F, offset: 0x3E07F, size: 0x8, addend: 0x0, symName: __ZNSt3__16vectorI5ValueNS_9allocatorIS1_EEE7__allocB8ue170006Ev, symObjAddr: 0x14B84, symBinAddr: 0x100015A58, symSize: 0x28 }
  - { offsetInCU: 0x3E0A5, offset: 0x3E0A5, size: 0x8, addend: 0x0, symName: __ZNSt3__16vectorI5ValueNS_9allocatorIS1_EEE21_ConstructTransactionD1B8ue170006Ev, symObjAddr: 0x14BC0, symBinAddr: 0x100015A94, symSize: 0x2C }
  - { offsetInCU: 0x3E0CF, offset: 0x3E0CF, size: 0x8, addend: 0x0, symName: __ZNSt3__16vectorI5ValueNS_9allocatorIS1_EEE21_ConstructTransactionC2B8ue170006ERS4_m, symObjAddr: 0x14BEC, symBinAddr: 0x100015AC0, symSize: 0x4C }
  - { offsetInCU: 0x3E117, offset: 0x3E117, size: 0x8, addend: 0x0, symName: __ZN5ValueC1EOS_, symObjAddr: 0x14C74, symBinAddr: 0x100015B48, symSize: 0x34 }
  - { offsetInCU: 0x3E14C, offset: 0x3E14C, size: 0x8, addend: 0x0, symName: __ZN5ValueC2EOS_, symObjAddr: 0x14CA8, symBinAddr: 0x100015B7C, symSize: 0x34 }
  - { offsetInCU: 0x3E181, offset: 0x3E181, size: 0x8, addend: 0x0, symName: __ZNSt3__17variantIJNS_9monostateEbxdNS_12basic_stringIcNS_11char_traitsIcEENS_9allocatorIcEEEENS_8functionIF5ValueRKNS_6vectorIS9_NS5_IS9_EEEEEEEEEC1B8ue170006EOSH_, symObjAddr: 0x14CDC, symBinAddr: 0x100015BB0, symSize: 0x34 }
  - { offsetInCU: 0x3E1B7, offset: 0x3E1B7, size: 0x8, addend: 0x0, symName: __ZNSt3__17variantIJNS_9monostateEbxdNS_12basic_stringIcNS_11char_traitsIcEENS_9allocatorIcEEEENS_8functionIF5ValueRKNS_6vectorIS9_NS5_IS9_EEEEEEEEEC2B8ue170006EOSH_, symObjAddr: 0x14D10, symBinAddr: 0x100015BE4, symSize: 0x34 }
  - { offsetInCU: 0x3E1ED, offset: 0x3E1ED, size: 0x8, addend: 0x0, symName: __ZNSt3__116__variant_detail6__implIJNS_9monostateEbxdNS_12basic_stringIcNS_11char_traitsIcEENS_9allocatorIcEEEENS_8functionIF5ValueRKNS_6vectorISA_NS6_ISA_EEEEEEEEEC1B8ue170006EOSI_, symObjAddr: 0x14D44, symBinAddr: 0x100015C18, symSize: 0x34 }
  - { offsetInCU: 0x3E223, offset: 0x3E223, size: 0x8, addend: 0x0, symName: __ZNSt3__116__variant_detail6__implIJNS_9monostateEbxdNS_12basic_stringIcNS_11char_traitsIcEENS_9allocatorIcEEEENS_8functionIF5ValueRKNS_6vectorISA_NS6_ISA_EEEEEEEEEC2B8ue170006EOSI_, symObjAddr: 0x14D78, symBinAddr: 0x100015C4C, symSize: 0x34 }
  - { offsetInCU: 0x3E259, offset: 0x3E259, size: 0x8, addend: 0x0, symName: __ZNSt3__116__variant_detail17__copy_assignmentINS0_8__traitsIJNS_9monostateEbxdNS_12basic_stringIcNS_11char_traitsIcEENS_9allocatorIcEEEENS_8functionIF5ValueRKNS_6vectorISB_NS7_ISB_EEEEEEEEEELNS0_6_TraitE1EEC2EOSL_, symObjAddr: 0x14DAC, symBinAddr: 0x100015C80, symSize: 0x34 }
  - { offsetInCU: 0x3E28F, offset: 0x3E28F, size: 0x8, addend: 0x0, symName: __ZNSt3__116__variant_detail17__move_assignmentINS0_8__traitsIJNS_9monostateEbxdNS_12basic_stringIcNS_11char_traitsIcEENS_9allocatorIcEEEENS_8functionIF5ValueRKNS_6vectorISB_NS7_ISB_EEEEEEEEEELNS0_6_TraitE1EEC2EOSL_, symObjAddr: 0x14DE0, symBinAddr: 0x100015CB4, symSize: 0x34 }
  - { offsetInCU: 0x3E2CA, offset: 0x3E2CA, size: 0x8, addend: 0x0, symName: __ZNSt3__116__variant_detail12__assignmentINS0_8__traitsIJNS_9monostateEbxdNS_12basic_stringIcNS_11char_traitsIcEENS_9allocatorIcEEEENS_8functionIF5ValueRKNS_6vectorISB_NS7_ISB_EEEEEEEEEEEC2EOSK_, symObjAddr: 0x14E14, symBinAddr: 0x100015CE8, symSize: 0x34 }
  - { offsetInCU: 0x3E300, offset: 0x3E300, size: 0x8, addend: 0x0, symName: __ZNSt3__116__variant_detail18__copy_constructorINS0_8__traitsIJNS_9monostateEbxdNS_12basic_stringIcNS_11char_traitsIcEENS_9allocatorIcEEEENS_8functionIF5ValueRKNS_6vectorISB_NS7_ISB_EEEEEEEEEELNS0_6_TraitE1EEC2EOSL_, symObjAddr: 0x14E48, symBinAddr: 0x100015D1C, symSize: 0x34 }
  - { offsetInCU: 0x3E336, offset: 0x3E336, size: 0x8, addend: 0x0, symName: __ZNSt3__116__variant_detail18__move_constructorINS0_8__traitsIJNS_9monostateEbxdNS_12basic_stringIcNS_11char_traitsIcEENS_9allocatorIcEEEENS_8functionIF5ValueRKNS_6vectorISB_NS7_ISB_EEEEEEEEEELNS0_6_TraitE1EEC2EOSL_, symObjAddr: 0x14E7C, symBinAddr: 0x100015D50, symSize: 0x44 }
  - { offsetInCU: 0x3E36F, offset: 0x3E36F, size: 0x8, addend: 0x0, symName: __ZNSt3__116__variant_detail6__ctorINS0_8__traitsIJNS_9monostateEbxdNS_12basic_stringIcNS_11char_traitsIcEENS_9allocatorIcEEEENS_8functionIF5ValueRKNS_6vectorISB_NS7_ISB_EEEEEEEEEEE19__generic_constructB8ue170006INS0_18__move_constructorISJ_LNS0_6_TraitE1EEEEEvRSK_OT_, symObjAddr: 0x14EC0, symBinAddr: 0x100015D94, symSize: 0x68 }
  - { offsetInCU: 0x3E4BA, offset: 0x3E4BA, size: 0x8, addend: 0x0, symName: __ZNSt3__116__variant_detail12__visitation6__base14__visit_alt_atB8ue170006IZNS0_6__ctorINS0_8__traitsIJNS_9monostateEbxdNS_12basic_stringIcNS_11char_traitsIcEENS_9allocatorIcEEEENS_8functionIF5ValueRKNS_6vectorISE_NSA_ISE_EEEEEEEEEEE19__generic_constructB8ue170006INS0_18__move_constructorISM_LNS0_6_TraitE1EEEEEvRSN_OT_EUlRST_OT0_E_JSS_SR_EEEDcmSU_DpOT0_, symObjAddr: 0x14F28, symBinAddr: 0x100015DFC, symSize: 0x84 }
  - { offsetInCU: 0x3E533, offset: 0x3E533, size: 0x8, addend: 0x0, symName: __ZNSt3__116__variant_detail12__visitation6__base12__dispatcherIJLm0ELm0EEE10__dispatchB8ue170006IOZNS0_6__ctorINS0_8__traitsIJNS_9monostateEbxdNS_12basic_stringIcNS_11char_traitsIcEENS_9allocatorIcEEEENS_8functionIF5ValueRKNS_6vectorISG_NSC_ISG_EEEEEEEEEEE19__generic_constructB8ue170006INS0_18__move_constructorISO_LNS0_6_TraitE1EEEEEvRSP_OT_EUlRSV_OT0_E_JRNS0_6__baseILSS_1EJS8_bxdSE_SN_EEEOS13_EEEDcSV_DpT0_, symObjAddr: 0x14FAC, symBinAddr: 0x100015E80, symSize: 0x50 }
  - { offsetInCU: 0x3E58E, offset: 0x3E58E, size: 0x8, addend: 0x0, symName: __ZNSt3__116__variant_detail12__visitation6__base12__dispatcherIJLm1ELm1EEE10__dispatchB8ue170006IOZNS0_6__ctorINS0_8__traitsIJNS_9monostateEbxdNS_12basic_stringIcNS_11char_traitsIcEENS_9allocatorIcEEEENS_8functionIF5ValueRKNS_6vectorISG_NSC_ISG_EEEEEEEEEEE19__generic_constructB8ue170006INS0_18__move_constructorISO_LNS0_6_TraitE1EEEEEvRSP_OT_EUlRSV_OT0_E_JRNS0_6__baseILSS_1EJS8_bxdSE_SN_EEEOS13_EEEDcSV_DpT0_, symObjAddr: 0x14FFC, symBinAddr: 0x100015ED0, symSize: 0x50 }
  - { offsetInCU: 0x3E5E9, offset: 0x3E5E9, size: 0x8, addend: 0x0, symName: __ZNSt3__116__variant_detail12__visitation6__base12__dispatcherIJLm2ELm2EEE10__dispatchB8ue170006IOZNS0_6__ctorINS0_8__traitsIJNS_9monostateEbxdNS_12basic_stringIcNS_11char_traitsIcEENS_9allocatorIcEEEENS_8functionIF5ValueRKNS_6vectorISG_NSC_ISG_EEEEEEEEEEE19__generic_constructB8ue170006INS0_18__move_constructorISO_LNS0_6_TraitE1EEEEEvRSP_OT_EUlRSV_OT0_E_JRNS0_6__baseILSS_1EJS8_bxdSE_SN_EEEOS13_EEEDcSV_DpT0_, symObjAddr: 0x1504C, symBinAddr: 0x100015F20, symSize: 0x50 }
  - { offsetInCU: 0x3E644, offset: 0x3E644, size: 0x8, addend: 0x0, symName: __ZNSt3__116__variant_detail12__visitation6__base12__dispatcherIJLm3ELm3EEE10__dispatchB8ue170006IOZNS0_6__ctorINS0_8__traitsIJNS_9monostateEbxdNS_12basic_stringIcNS_11char_traitsIcEENS_9allocatorIcEEEENS_8functionIF5ValueRKNS_6vectorISG_NSC_ISG_EEEEEEEEEEE19__generic_constructB8ue170006INS0_18__move_constructorISO_LNS0_6_TraitE1EEEEEvRSP_OT_EUlRSV_OT0_E_JRNS0_6__baseILSS_1EJS8_bxdSE_SN_EEEOS13_EEEDcSV_DpT0_, symObjAddr: 0x1509C, symBinAddr: 0x100015F70, symSize: 0x50 }
  - { offsetInCU: 0x3E69F, offset: 0x3E69F, size: 0x8, addend: 0x0, symName: __ZNSt3__116__variant_detail12__visitation6__base12__dispatcherIJLm4ELm4EEE10__dispatchB8ue170006IOZNS0_6__ctorINS0_8__traitsIJNS_9monostateEbxdNS_12basic_stringIcNS_11char_traitsIcEENS_9allocatorIcEEEENS_8functionIF5ValueRKNS_6vectorISG_NSC_ISG_EEEEEEEEEEE19__generic_constructB8ue170006INS0_18__move_constructorISO_LNS0_6_TraitE1EEEEEvRSP_OT_EUlRSV_OT0_E_JRNS0_6__baseILSS_1EJS8_bxdSE_SN_EEEOS13_EEEDcSV_DpT0_, symObjAddr: 0x150EC, symBinAddr: 0x100015FC0, symSize: 0x50 }
  - { offsetInCU: 0x3E6FA, offset: 0x3E6FA, size: 0x8, addend: 0x0, symName: __ZNSt3__116__variant_detail12__visitation6__base12__dispatcherIJLm5ELm5EEE10__dispatchB8ue170006IOZNS0_6__ctorINS0_8__traitsIJNS_9monostateEbxdNS_12basic_stringIcNS_11char_traitsIcEENS_9allocatorIcEEEENS_8functionIF5ValueRKNS_6vectorISG_NSC_ISG_EEEEEEEEEEE19__generic_constructB8ue170006INS0_18__move_constructorISO_LNS0_6_TraitE1EEEEEvRSP_OT_EUlRSV_OT0_E_JRNS0_6__baseILSS_1EJS8_bxdSE_SN_EEEOS13_EEEDcSV_DpT0_, symObjAddr: 0x1513C, symBinAddr: 0x100016010, symSize: 0x50 }
  - { offsetInCU: 0x3E78E, offset: 0x3E78E, size: 0x8, addend: 0x0, symName: __ZNKSt3__18__farrayIPFvOZNS_16__variant_detail6__ctorINS1_8__traitsIJNS_9monostateEbxdNS_12basic_stringIcNS_11char_traitsIcEENS_9allocatorIcEEEENS_8functionIF5ValueRKNS_6vectorISC_NS8_ISC_EEEEEEEEEEE19__generic_constructB8ue170006INS1_18__move_constructorISK_LNS1_6_TraitE1EEEEEvRSL_OT_EUlRSR_OT0_E_RNS1_6__baseILSO_1EJS4_bxdSA_SJ_EEEOSZ_ELm6EEixB8ue170006Em, symObjAddr: 0x1518C, symBinAddr: 0x100016060, symSize: 0x20 }
  - { offsetInCU: 0x3E7CD, offset: 0x3E7CD, size: 0x8, addend: 0x0, symName: __ZZNSt3__116__variant_detail6__ctorINS0_8__traitsIJNS_9monostateEbxdNS_12basic_stringIcNS_11char_traitsIcEENS_9allocatorIcEEEENS_8functionIF5ValueRKNS_6vectorISB_NS7_ISB_EEEEEEEEEEE19__generic_constructB8ue170006INS0_18__move_constructorISJ_LNS0_6_TraitE1EEEEEvRSK_OT_ENKUlRSQ_OT0_E_clINS0_5__altILm0ES3_EESY_EEDaSS_SU_, symObjAddr: 0x151E0, symBinAddr: 0x1000160B4, symSize: 0x30 }
  - { offsetInCU: 0x3E827, offset: 0x3E827, size: 0x8, addend: 0x0, symName: __ZZNSt3__116__variant_detail6__ctorINS0_8__traitsIJNS_9monostateEbxdNS_12basic_stringIcNS_11char_traitsIcEENS_9allocatorIcEEEENS_8functionIF5ValueRKNS_6vectorISB_NS7_ISB_EEEEEEEEEEE19__generic_constructB8ue170006INS0_18__move_constructorISJ_LNS0_6_TraitE1EEEEEvRSK_OT_ENKUlRSQ_OT0_E_clINS0_5__altILm1EbEESY_EEDaSS_SU_, symObjAddr: 0x15244, symBinAddr: 0x100016118, symSize: 0x30 }
  - { offsetInCU: 0x3E881, offset: 0x3E881, size: 0x8, addend: 0x0, symName: __ZZNSt3__116__variant_detail6__ctorINS0_8__traitsIJNS_9monostateEbxdNS_12basic_stringIcNS_11char_traitsIcEENS_9allocatorIcEEEENS_8functionIF5ValueRKNS_6vectorISB_NS7_ISB_EEEEEEEEEEE19__generic_constructB8ue170006INS0_18__move_constructorISJ_LNS0_6_TraitE1EEEEEvRSK_OT_ENKUlRSQ_OT0_E_clINS0_5__altILm2ExEESY_EEDaSS_SU_, symObjAddr: 0x152A8, symBinAddr: 0x10001617C, symSize: 0x30 }
  - { offsetInCU: 0x3E8DB, offset: 0x3E8DB, size: 0x8, addend: 0x0, symName: __ZZNSt3__116__variant_detail6__ctorINS0_8__traitsIJNS_9monostateEbxdNS_12basic_stringIcNS_11char_traitsIcEENS_9allocatorIcEEEENS_8functionIF5ValueRKNS_6vectorISB_NS7_ISB_EEEEEEEEEEE19__generic_constructB8ue170006INS0_18__move_constructorISJ_LNS0_6_TraitE1EEEEEvRSK_OT_ENKUlRSQ_OT0_E_clINS0_5__altILm3EdEESY_EEDaSS_SU_, symObjAddr: 0x1530C, symBinAddr: 0x1000161E0, symSize: 0x30 }
  - { offsetInCU: 0x3E935, offset: 0x3E935, size: 0x8, addend: 0x0, symName: __ZZNSt3__116__variant_detail6__ctorINS0_8__traitsIJNS_9monostateEbxdNS_12basic_stringIcNS_11char_traitsIcEENS_9allocatorIcEEEENS_8functionIF5ValueRKNS_6vectorISB_NS7_ISB_EEEEEEEEEEE19__generic_constructB8ue170006INS0_18__move_constructorISJ_LNS0_6_TraitE1EEEEEvRSK_OT_ENKUlRSQ_OT0_E_clINS0_5__altILm4ES9_EESY_EEDaSS_SU_, symObjAddr: 0x15370, symBinAddr: 0x100016244, symSize: 0x30 }
  - { offsetInCU: 0x3E98F, offset: 0x3E98F, size: 0x8, addend: 0x0, symName: __ZZNSt3__116__variant_detail6__ctorINS0_8__traitsIJNS_9monostateEbxdNS_12basic_stringIcNS_11char_traitsIcEENS_9allocatorIcEEEENS_8functionIF5ValueRKNS_6vectorISB_NS7_ISB_EEEEEEEEEEE19__generic_constructB8ue170006INS0_18__move_constructorISJ_LNS0_6_TraitE1EEEEEvRSK_OT_ENKUlRSQ_OT0_E_clINS0_5__altILm5ESI_EESY_EEDaSS_SU_, symObjAddr: 0x153D4, symBinAddr: 0x1000162A8, symSize: 0x30 }
  - { offsetInCU: 0x3E9E9, offset: 0x3E9E9, size: 0x8, addend: 0x0, symName: __ZNSt3__117__compressed_pairIP5ValueNS_9allocatorIS1_EEE6secondB8ue170006Ev, symObjAddr: 0x15404, symBinAddr: 0x1000162D8, symSize: 0x24 }
  - { offsetInCU: 0x3EA0F, offset: 0x3EA0F, size: 0x8, addend: 0x0, symName: __ZNSt3__122__compressed_pair_elemINS_9allocatorI5ValueEELi1ELb1EE5__getB8ue170006Ev, symObjAddr: 0x15428, symBinAddr: 0x1000162FC, symSize: 0x14 }
  - { offsetInCU: 0x3EA35, offset: 0x3EA35, size: 0x8, addend: 0x0, symName: __ZNSt3__16vectorI5ValueNS_9allocatorIS1_EEE21_ConstructTransactionD2B8ue170006Ev, symObjAddr: 0x1543C, symBinAddr: 0x100016310, symSize: 0x20 }
  - { offsetInCU: 0x3EA5F, offset: 0x3EA5F, size: 0x8, addend: 0x0, symName: __ZNKSt3__16vectorI5ValueNS_9allocatorIS1_EEE11__recommendB8ue170006Em, symObjAddr: 0x1545C, symBinAddr: 0x100016330, symSize: 0xB4 }
  - { offsetInCU: 0x3EAB4, offset: 0x3EAB4, size: 0x8, addend: 0x0, symName: __ZNKSt3__16vectorI5ValueNS_9allocatorIS1_EEE4sizeB8ue170006Ev, symObjAddr: 0x15510, symBinAddr: 0x1000163E4, symSize: 0x28 }
  - { offsetInCU: 0x3EADA, offset: 0x3EADA, size: 0x8, addend: 0x0, symName: __ZNSt3__114__split_bufferI5ValueRNS_9allocatorIS1_EEEC1EmmS4_, symObjAddr: 0x15538, symBinAddr: 0x10001640C, symSize: 0x44 }
  - { offsetInCU: 0x3EB30, offset: 0x3EB30, size: 0x8, addend: 0x0, symName: __ZNSt3__114__split_bufferI5ValueRNS_9allocatorIS1_EEED1Ev, symObjAddr: 0x1568C, symBinAddr: 0x100016560, symSize: 0x2C }
  - { offsetInCU: 0x3EB5C, offset: 0x3EB5C, size: 0x8, addend: 0x0, symName: __ZNKSt3__16vectorI5ValueNS_9allocatorIS1_EEE8max_sizeEv, symObjAddr: 0x156B8, symBinAddr: 0x10001658C, symSize: 0x60 }
  - { offsetInCU: 0x3EB84, offset: 0x3EB84, size: 0x8, addend: 0x0, symName: __ZNKSt3__16vectorI5ValueNS_9allocatorIS1_EEE20__throw_length_errorB8ue170006Ev, symObjAddr: 0x15718, symBinAddr: 0x1000165EC, symSize: 0x1C }
  - { offsetInCU: 0x3EBAA, offset: 0x3EBAA, size: 0x8, addend: 0x0, symName: __ZNKSt3__16vectorI5ValueNS_9allocatorIS1_EEE8capacityB8ue170006Ev, symObjAddr: 0x15734, symBinAddr: 0x100016608, symSize: 0x40 }
  - { offsetInCU: 0x3EBDA, offset: 0x3EBDA, size: 0x8, addend: 0x0, symName: __ZNSt3__116allocator_traitsINS_9allocatorI5ValueEEE8max_sizeB8ue170006IS3_vvEEmRKS3_, symObjAddr: 0x15774, symBinAddr: 0x100016648, symSize: 0x28 }
  - { offsetInCU: 0x3EC06, offset: 0x3EC06, size: 0x8, addend: 0x0, symName: __ZNKSt3__16vectorI5ValueNS_9allocatorIS1_EEE7__allocB8ue170006Ev, symObjAddr: 0x1579C, symBinAddr: 0x100016670, symSize: 0x28 }
  - { offsetInCU: 0x3EC2C, offset: 0x3EC2C, size: 0x8, addend: 0x0, symName: __ZNKSt3__117__compressed_pairIP5ValueNS_9allocatorIS1_EEE6secondB8ue170006Ev, symObjAddr: 0x157C4, symBinAddr: 0x100016698, symSize: 0x24 }
  - { offsetInCU: 0x3EC52, offset: 0x3EC52, size: 0x8, addend: 0x0, symName: __ZNKSt3__122__compressed_pair_elemINS_9allocatorI5ValueEELi1ELb1EE5__getB8ue170006Ev, symObjAddr: 0x157E8, symBinAddr: 0x1000166BC, symSize: 0x14 }
  - { offsetInCU: 0x3EC78, offset: 0x3EC78, size: 0x8, addend: 0x0, symName: __ZNKSt3__16vectorI5ValueNS_9allocatorIS1_EEE9__end_capB8ue170006Ev, symObjAddr: 0x157FC, symBinAddr: 0x1000166D0, symSize: 0x28 }
  - { offsetInCU: 0x3EC9E, offset: 0x3EC9E, size: 0x8, addend: 0x0, symName: __ZNKSt3__117__compressed_pairIP5ValueNS_9allocatorIS1_EEE5firstB8ue170006Ev, symObjAddr: 0x15824, symBinAddr: 0x1000166F8, symSize: 0x24 }
  - { offsetInCU: 0x3ECC4, offset: 0x3ECC4, size: 0x8, addend: 0x0, symName: __ZNKSt3__122__compressed_pair_elemIP5ValueLi0ELb0EE5__getB8ue170006Ev, symObjAddr: 0x15848, symBinAddr: 0x10001671C, symSize: 0x14 }
  - { offsetInCU: 0x3ECEA, offset: 0x3ECEA, size: 0x8, addend: 0x0, symName: __ZNSt3__114__split_bufferI5ValueRNS_9allocatorIS1_EEEC2EmmS4_, symObjAddr: 0x1585C, symBinAddr: 0x100016730, symSize: 0xE0 }
  - { offsetInCU: 0x3ED5D, offset: 0x3ED5D, size: 0x8, addend: 0x0, symName: __ZNSt3__117__compressed_pairIP5ValueRNS_9allocatorIS1_EEEC1B8ue170006IDnS5_EEOT_OT0_, symObjAddr: 0x1593C, symBinAddr: 0x100016810, symSize: 0x3C }
  - { offsetInCU: 0x3EDB5, offset: 0x3EDB5, size: 0x8, addend: 0x0, symName: __ZNSt3__114__split_bufferI5ValueRNS_9allocatorIS1_EEE7__allocB8ue170006Ev, symObjAddr: 0x159B8, symBinAddr: 0x10001688C, symSize: 0x28 }
  - { offsetInCU: 0x3EDDB, offset: 0x3EDDB, size: 0x8, addend: 0x0, symName: __ZNSt3__114__split_bufferI5ValueRNS_9allocatorIS1_EEE9__end_capB8ue170006Ev, symObjAddr: 0x159E0, symBinAddr: 0x1000168B4, symSize: 0x28 }
  - { offsetInCU: 0x3EE01, offset: 0x3EE01, size: 0x8, addend: 0x0, symName: __ZNSt3__117__compressed_pairIP5ValueRNS_9allocatorIS1_EEEC2B8ue170006IDnS5_EEOT_OT0_, symObjAddr: 0x15A08, symBinAddr: 0x1000168DC, symSize: 0x48 }
  - { offsetInCU: 0x3EE59, offset: 0x3EE59, size: 0x8, addend: 0x0, symName: __ZNSt3__122__compressed_pair_elemIRNS_9allocatorI5ValueEELi1ELb0EEC2B8ue170006IS4_vEEOT_, symObjAddr: 0x15A50, symBinAddr: 0x100016924, symSize: 0x20 }
  - { offsetInCU: 0x3EE9B, offset: 0x3EE9B, size: 0x8, addend: 0x0, symName: __ZNSt3__19allocatorI5ValueE8allocateB8ue170006Em, symObjAddr: 0x15A70, symBinAddr: 0x100016944, symSize: 0x5C }
  - { offsetInCU: 0x3EECF, offset: 0x3EECF, size: 0x8, addend: 0x0, symName: __ZNSt3__117__compressed_pairIP5ValueRNS_9allocatorIS1_EEE6secondB8ue170006Ev, symObjAddr: 0x15ACC, symBinAddr: 0x1000169A0, symSize: 0x28 }
  - { offsetInCU: 0x3EEF5, offset: 0x3EEF5, size: 0x8, addend: 0x0, symName: __ZNSt3__122__compressed_pair_elemIRNS_9allocatorI5ValueEELi1ELb0EE5__getB8ue170006Ev, symObjAddr: 0x15AF4, symBinAddr: 0x1000169C8, symSize: 0x18 }
  - { offsetInCU: 0x3EF1B, offset: 0x3EF1B, size: 0x8, addend: 0x0, symName: __ZNSt3__117__compressed_pairIP5ValueRNS_9allocatorIS1_EEE5firstB8ue170006Ev, symObjAddr: 0x15B0C, symBinAddr: 0x1000169E0, symSize: 0x24 }
  - { offsetInCU: 0x3EF41, offset: 0x3EF41, size: 0x8, addend: 0x0, symName: __ZNKSt3__16vectorI5ValueNS_9allocatorIS1_EEE17__annotate_deleteB8ue170006Ev, symObjAddr: 0x15B30, symBinAddr: 0x100016A04, symSize: 0xD4 }
  - { offsetInCU: 0x3EF67, offset: 0x3EF67, size: 0x8, addend: 0x0, symName: __ZNSt3__116reverse_iteratorIP5ValueEC1B8ue170006ES2_, symObjAddr: 0x15D30, symBinAddr: 0x100016C04, symSize: 0x34 }
  - { offsetInCU: 0x3EF9F, offset: 0x3EF9F, size: 0x8, addend: 0x0, symName: __ZNKSt3__116reverse_iteratorIP5ValueE4baseB8ue170006Ev, symObjAddr: 0x15D64, symBinAddr: 0x100016C38, symSize: 0x18 }
  - { offsetInCU: 0x3EFC5, offset: 0x3EFC5, size: 0x8, addend: 0x0, symName: __ZNKSt3__16vectorI5ValueNS_9allocatorIS1_EEE14__annotate_newB8ue170006Em, symObjAddr: 0x15DB8, symBinAddr: 0x100016C8C, symSize: 0xC8 }
  - { offsetInCU: 0x3EFFA, offset: 0x3EFFA, size: 0x8, addend: 0x0, symName: __ZNKSt3__16vectorI5ValueNS_9allocatorIS1_EEE31__annotate_contiguous_containerB8ue170006EPKvS6_S6_S6_, symObjAddr: 0x15E80, symBinAddr: 0x100016D54, symSize: 0x20 }
  - { offsetInCU: 0x3F050, offset: 0x3F050, size: 0x8, addend: 0x0, symName: __ZNKSt3__16vectorI5ValueNS_9allocatorIS1_EEE4dataB8ue170006Ev, symObjAddr: 0x15EA0, symBinAddr: 0x100016D74, symSize: 0x28 }
  - { offsetInCU: 0x3F076, offset: 0x3F076, size: 0x8, addend: 0x0, symName: __ZNSt3__129_AllocatorDestroyRangeReverseINS_9allocatorI5ValueEENS_16reverse_iteratorIPS2_EEEC1B8ue170006ERS3_RS6_S9_, symObjAddr: 0x15F14, symBinAddr: 0x100016DE8, symSize: 0x44 }
  - { offsetInCU: 0x3F0CD, offset: 0x3F0CD, size: 0x8, addend: 0x0, symName: __ZNKSt3__116reverse_iteratorIP5ValueEdeB8ue170006Ev, symObjAddr: 0x15FC4, symBinAddr: 0x100016E98, symSize: 0x28 }
  - { offsetInCU: 0x3F101, offset: 0x3F101, size: 0x8, addend: 0x0, symName: __ZNSt3__116reverse_iteratorIP5ValueEppB8ue170006Ev, symObjAddr: 0x15FEC, symBinAddr: 0x100016EC0, symSize: 0x20 }
  - { offsetInCU: 0x3F127, offset: 0x3F127, size: 0x8, addend: 0x0, symName: __ZNSt3__128__exception_guard_exceptionsINS_29_AllocatorDestroyRangeReverseINS_9allocatorI5ValueEENS_16reverse_iteratorIPS3_EEEEE10__completeB8ue170006Ev, symObjAddr: 0x1600C, symBinAddr: 0x100016EE0, symSize: 0x1C }
  - { offsetInCU: 0x3F14D, offset: 0x3F14D, size: 0x8, addend: 0x0, symName: __ZNSt3__128__exception_guard_exceptionsINS_29_AllocatorDestroyRangeReverseINS_9allocatorI5ValueEENS_16reverse_iteratorIPS3_EEEEED1B8ue170006Ev, symObjAddr: 0x16028, symBinAddr: 0x100016EFC, symSize: 0x2C }
  - { offsetInCU: 0x3F177, offset: 0x3F177, size: 0x8, addend: 0x0, symName: __ZNSt3__128__exception_guard_exceptionsINS_29_AllocatorDestroyRangeReverseINS_9allocatorI5ValueEENS_16reverse_iteratorIPS3_EEEEEC1B8ue170006ES8_, symObjAddr: 0x16054, symBinAddr: 0x100016F28, symSize: 0x34 }
  - { offsetInCU: 0x3F1B0, offset: 0x3F1B0, size: 0x8, addend: 0x0, symName: __ZNSt3__128__exception_guard_exceptionsINS_29_AllocatorDestroyRangeReverseINS_9allocatorI5ValueEENS_16reverse_iteratorIPS3_EEEEEC2B8ue170006ES8_, symObjAddr: 0x16088, symBinAddr: 0x100016F5C, symSize: 0x30 }
  - { offsetInCU: 0x3F1E9, offset: 0x3F1E9, size: 0x8, addend: 0x0, symName: __ZNSt3__129_AllocatorDestroyRangeReverseINS_9allocatorI5ValueEENS_16reverse_iteratorIPS2_EEEC2B8ue170006ERS3_RS6_S9_, symObjAddr: 0x160B8, symBinAddr: 0x100016F8C, symSize: 0x38 }
  - { offsetInCU: 0x3F245, offset: 0x3F245, size: 0x8, addend: 0x0, symName: __ZNSt3__119__to_address_helperINS_16reverse_iteratorIP5ValueEEvE6__callB8ue170006ERKS4_, symObjAddr: 0x160F0, symBinAddr: 0x100016FC4, symSize: 0x38 }
  - { offsetInCU: 0x3F268, offset: 0x3F268, size: 0x8, addend: 0x0, symName: __ZNKSt3__116reverse_iteratorIP5ValueEptB8ue170006Ev, symObjAddr: 0x16128, symBinAddr: 0x100016FFC, symSize: 0x2C }
  - { offsetInCU: 0x3F28E, offset: 0x3F28E, size: 0x8, addend: 0x0, symName: __ZNSt3__128__exception_guard_exceptionsINS_29_AllocatorDestroyRangeReverseINS_9allocatorI5ValueEENS_16reverse_iteratorIPS3_EEEEED2B8ue170006Ev, symObjAddr: 0x161F8, symBinAddr: 0x1000170CC, symSize: 0x50 }
  - { offsetInCU: 0x3F2B8, offset: 0x3F2B8, size: 0x8, addend: 0x0, symName: __ZNKSt3__129_AllocatorDestroyRangeReverseINS_9allocatorI5ValueEENS_16reverse_iteratorIPS2_EEEclB8ue170006Ev, symObjAddr: 0x16248, symBinAddr: 0x10001711C, symSize: 0xB4 }
  - { offsetInCU: 0x3F2DF, offset: 0x3F2DF, size: 0x8, addend: 0x0, symName: __ZNSt3__116reverse_iteratorINS0_IP5ValueEEEC1B8ue170006ES3_, symObjAddr: 0x1636C, symBinAddr: 0x100017240, symSize: 0x3C }
  - { offsetInCU: 0x3F317, offset: 0x3F317, size: 0x8, addend: 0x0, symName: __ZNSt3__116allocator_traitsINS_9allocatorI5ValueEEE7destroyB8ue170006IS2_vvEEvRS3_PT_, symObjAddr: 0x16408, symBinAddr: 0x1000172DC, symSize: 0x28 }
  - { offsetInCU: 0x3F352, offset: 0x3F352, size: 0x8, addend: 0x0, symName: __ZNSt3__116reverse_iteratorINS0_IP5ValueEEEppB8ue170006Ev, symObjAddr: 0x16454, symBinAddr: 0x100017328, symSize: 0x30 }
  - { offsetInCU: 0x3F378, offset: 0x3F378, size: 0x8, addend: 0x0, symName: __ZNKSt3__116reverse_iteratorINS0_IP5ValueEEE4baseB8ue170006Ev, symObjAddr: 0x16484, symBinAddr: 0x100017358, symSize: 0x24 }
  - { offsetInCU: 0x3F3A3, offset: 0x3F3A3, size: 0x8, addend: 0x0, symName: __ZNSt3__119__to_address_helperINS_16reverse_iteratorINS1_IP5ValueEEEEvE6__callB8ue170006ERKS5_, symObjAddr: 0x164F0, symBinAddr: 0x1000173C4, symSize: 0x38 }
  - { offsetInCU: 0x3F3C6, offset: 0x3F3C6, size: 0x8, addend: 0x0, symName: __ZNKSt3__116reverse_iteratorINS0_IP5ValueEEEptB8ue170006Ev, symObjAddr: 0x16528, symBinAddr: 0x1000173FC, symSize: 0x4C }
  - { offsetInCU: 0x3F3EC, offset: 0x3F3EC, size: 0x8, addend: 0x0, symName: __ZNSt3__116reverse_iteratorIP5ValueEpLB8ue170006El, symObjAddr: 0x16624, symBinAddr: 0x1000174F8, symSize: 0x30 }
  - { offsetInCU: 0x3F420, offset: 0x3F420, size: 0x8, addend: 0x0, symName: __ZNSt3__116reverse_iteratorIP5ValueEmmB8ue170006Ev, symObjAddr: 0x16654, symBinAddr: 0x100017528, symSize: 0x20 }
  - { offsetInCU: 0x3F446, offset: 0x3F446, size: 0x8, addend: 0x0, symName: __ZNSt3__116reverse_iteratorINS0_IP5ValueEEEC2B8ue170006ES3_, symObjAddr: 0x16674, symBinAddr: 0x100017548, symSize: 0x2C }
  - { offsetInCU: 0x3F47E, offset: 0x3F47E, size: 0x8, addend: 0x0, symName: __ZNSt3__116reverse_iteratorIP5ValueEC2B8ue170006ES2_, symObjAddr: 0x166A0, symBinAddr: 0x100017574, symSize: 0x28 }
  - { offsetInCU: 0x3F4B6, offset: 0x3F4B6, size: 0x8, addend: 0x0, symName: __ZNSt3__114__split_bufferI5ValueRNS_9allocatorIS1_EEED2Ev, symObjAddr: 0x166C8, symBinAddr: 0x10001759C, symSize: 0x8C }
  - { offsetInCU: 0x3F4E2, offset: 0x3F4E2, size: 0x8, addend: 0x0, symName: __ZNSt3__114__split_bufferI5ValueRNS_9allocatorIS1_EEE5clearB8ue170006Ev, symObjAddr: 0x16754, symBinAddr: 0x100017628, symSize: 0x28 }
  - { offsetInCU: 0x3F508, offset: 0x3F508, size: 0x8, addend: 0x0, symName: __ZNSt3__116allocator_traitsINS_9allocatorI5ValueEEE10deallocateB8ue170006ERS3_PS2_m, symObjAddr: 0x1677C, symBinAddr: 0x100017650, symSize: 0x34 }
  - { offsetInCU: 0x3F54A, offset: 0x3F54A, size: 0x8, addend: 0x0, symName: __ZNKSt3__114__split_bufferI5ValueRNS_9allocatorIS1_EEE8capacityB8ue170006Ev, symObjAddr: 0x167B0, symBinAddr: 0x100017684, symSize: 0x40 }
  - { offsetInCU: 0x3F570, offset: 0x3F570, size: 0x8, addend: 0x0, symName: __ZNSt3__114__split_bufferI5ValueRNS_9allocatorIS1_EEE17__destruct_at_endB8ue170006EPS1_, symObjAddr: 0x167F0, symBinAddr: 0x1000176C4, symSize: 0x2C }
  - { offsetInCU: 0x3F5A4, offset: 0x3F5A4, size: 0x8, addend: 0x0, symName: __ZNSt3__114__split_bufferI5ValueRNS_9allocatorIS1_EEE17__destruct_at_endB8ue170006EPS1_NS_17integral_constantIbLb0EEE, symObjAddr: 0x1681C, symBinAddr: 0x1000176F0, symSize: 0x80 }
  - { offsetInCU: 0x3F5E4, offset: 0x3F5E4, size: 0x8, addend: 0x0, symName: __ZNSt3__19allocatorI5ValueE10deallocateB8ue170006EPS1_m, symObjAddr: 0x1689C, symBinAddr: 0x100017770, symSize: 0x44 }
  - { offsetInCU: 0x3F626, offset: 0x3F626, size: 0x8, addend: 0x0, symName: __ZNKSt3__114__split_bufferI5ValueRNS_9allocatorIS1_EEE9__end_capB8ue170006Ev, symObjAddr: 0x168E0, symBinAddr: 0x1000177B4, symSize: 0x28 }
  - { offsetInCU: 0x3F64C, offset: 0x3F64C, size: 0x8, addend: 0x0, symName: __ZNKSt3__117__compressed_pairIP5ValueRNS_9allocatorIS1_EEE5firstB8ue170006Ev, symObjAddr: 0x16908, symBinAddr: 0x1000177DC, symSize: 0x24 }
  - { offsetInCU: 0x3F672, offset: 0x3F672, size: 0x8, addend: 0x0, symName: __ZNSt3__16vectorI5ValueNS_9allocatorIS1_EEED2B8ue170006Ev, symObjAddr: 0x1692C, symBinAddr: 0x100017800, symSize: 0x44 }
  - { offsetInCU: 0x3F69C, offset: 0x3F69C, size: 0x8, addend: 0x0, symName: __ZNSt3__16vectorI5ValueNS_9allocatorIS1_EEE16__destroy_vectorC1B8ue170006ERS4_, symObjAddr: 0x16970, symBinAddr: 0x100017844, symSize: 0x34 }
  - { offsetInCU: 0x3F6D5, offset: 0x3F6D5, size: 0x8, addend: 0x0, symName: __ZNSt3__16vectorI5ValueNS_9allocatorIS1_EEE16__destroy_vectorclB8ue170006Ev, symObjAddr: 0x169A4, symBinAddr: 0x100017878, symSize: 0x90 }
  - { offsetInCU: 0x3F6FB, offset: 0x3F6FB, size: 0x8, addend: 0x0, symName: __ZNSt3__16vectorI5ValueNS_9allocatorIS1_EEE16__destroy_vectorC2B8ue170006ERS4_, symObjAddr: 0x16A34, symBinAddr: 0x100017908, symSize: 0x20 }
  - { offsetInCU: 0x3F734, offset: 0x3F734, size: 0x8, addend: 0x0, symName: __ZNSt3__16vectorI5ValueNS_9allocatorIS1_EEE7__clearB8ue170006Ev, symObjAddr: 0x16A54, symBinAddr: 0x100017928, symSize: 0x28 }
  - { offsetInCU: 0x3F75A, offset: 0x3F75A, size: 0x8, addend: 0x0, symName: __ZNSt3__16vectorI5ValueNS_9allocatorIS1_EEE22__base_destruct_at_endB8ue170006EPS1_, symObjAddr: 0x16A7C, symBinAddr: 0x100017950, symSize: 0x8C }
  - { offsetInCU: 0x3F79E, offset: 0x3F79E, size: 0x8, addend: 0x0, symName: __ZNSt3__114basic_ifstreamIcNS_11char_traitsIcEEED2Ev, symObjAddr: 0x16B08, symBinAddr: 0x1000179DC, symSize: 0x64 }
  - { offsetInCU: 0x3F7D8, offset: 0x3F7D8, size: 0x8, addend: 0x0, symName: __ZTv0_n24_NSt3__114basic_ifstreamIcNS_11char_traitsIcEEED1Ev, symObjAddr: 0x16B6C, symBinAddr: 0x100017A40, symSize: 0x28 }
  - { offsetInCU: 0x3F7EF, offset: 0x3F7EF, size: 0x8, addend: 0x0, symName: __ZNKSt3__18ios_base3eofB8ue170006Ev, symObjAddr: 0x16B94, symBinAddr: 0x100017A68, symSize: 0x24 }
  - { offsetInCU: 0x3F817, offset: 0x3F817, size: 0x8, addend: 0x0, symName: __ZNSt3__113unordered_mapINS_12basic_stringIcNS_11char_traitsIcEENS_9allocatorIcEEEE5ValueNS_4hashIS6_EENS_8equal_toIS6_EENS4_INS_4pairIKS6_S7_EEEEEC2B8ue170006Ev, symObjAddr: 0x16BB8, symBinAddr: 0x100017A8C, symSize: 0x2C }
  - { offsetInCU: 0x3F841, offset: 0x3F841, size: 0x8, addend: 0x0, symName: __ZNSt3__112__hash_tableINS_17__hash_value_typeINS_12basic_stringIcNS_11char_traitsIcEENS_9allocatorIcEEEE5ValueEENS_22__unordered_map_hasherIS7_S9_NS_4hashIS7_EENS_8equal_toIS7_EELb1EEENS_21__unordered_map_equalIS7_S9_SE_SC_Lb1EEENS5_IS9_EEEC1Ev, symObjAddr: 0x16BE4, symBinAddr: 0x100017AB8, symSize: 0x2C }
  - { offsetInCU: 0x3F86D, offset: 0x3F86D, size: 0x8, addend: 0x0, symName: __ZNSt3__112__hash_tableINS_17__hash_value_typeINS_12basic_stringIcNS_11char_traitsIcEENS_9allocatorIcEEEE5ValueEENS_22__unordered_map_hasherIS7_S9_NS_4hashIS7_EENS_8equal_toIS7_EELb1EEENS_21__unordered_map_equalIS7_S9_SE_SC_Lb1EEENS5_IS9_EEEC2Ev, symObjAddr: 0x16C10, symBinAddr: 0x100017AE4, symSize: 0x7C }
  - { offsetInCU: 0x3F899, offset: 0x3F899, size: 0x8, addend: 0x0, symName: __ZNSt3__110unique_ptrIA_PNS_16__hash_node_baseIPNS_11__hash_nodeINS_17__hash_value_typeINS_12basic_stringIcNS_11char_traitsIcEENS_9allocatorIcEEEE5ValueEEPvEEEENS_25__bucket_list_deallocatorINS7_ISG_EEEEEC1B8ue170006ILb1EvEEv, symObjAddr: 0x16C8C, symBinAddr: 0x100017B60, symSize: 0x2C }
  - { offsetInCU: 0x3F8CE, offset: 0x3F8CE, size: 0x8, addend: 0x0, symName: __ZNSt3__117__compressed_pairINS_16__hash_node_baseIPNS_11__hash_nodeINS_17__hash_value_typeINS_12basic_stringIcNS_11char_traitsIcEENS_9allocatorIcEEEE5ValueEEPvEEEENS7_ISD_EEEC1B8ue170006ILb1EvEEv, symObjAddr: 0x16CB8, symBinAddr: 0x100017B8C, symSize: 0x2C }
  - { offsetInCU: 0x3F908, offset: 0x3F908, size: 0x8, addend: 0x0, symName: __ZNSt3__117__compressed_pairImNS_22__unordered_map_hasherINS_12basic_stringIcNS_11char_traitsIcEENS_9allocatorIcEEEENS_17__hash_value_typeIS7_5ValueEENS_4hashIS7_EENS_8equal_toIS7_EELb1EEEEC1B8ue170006IiNS_18__default_init_tagEEEOT_OT0_, symObjAddr: 0x16CE4, symBinAddr: 0x100017BB8, symSize: 0x3C }
  - { offsetInCU: 0x3F965, offset: 0x3F965, size: 0x8, addend: 0x0, symName: __ZNSt3__117__compressed_pairIfNS_21__unordered_map_equalINS_12basic_stringIcNS_11char_traitsIcEENS_9allocatorIcEEEENS_17__hash_value_typeIS7_5ValueEENS_8equal_toIS7_EENS_4hashIS7_EELb1EEEEC1B8ue170006IfNS_18__default_init_tagEEEOT_OT0_, symObjAddr: 0x16D20, symBinAddr: 0x100017BF4, symSize: 0x3C }
  - { offsetInCU: 0x3F9BD, offset: 0x3F9BD, size: 0x8, addend: 0x0, symName: __ZNSt3__110unique_ptrIA_PNS_16__hash_node_baseIPNS_11__hash_nodeINS_17__hash_value_typeINS_12basic_stringIcNS_11char_traitsIcEENS_9allocatorIcEEEE5ValueEEPvEEEENS_25__bucket_list_deallocatorINS7_ISG_EEEEEC2B8ue170006ILb1EvEEv, symObjAddr: 0x16D5C, symBinAddr: 0x100017C30, symSize: 0x3C }
  - { offsetInCU: 0x3F9F7, offset: 0x3F9F7, size: 0x8, addend: 0x0, symName: __ZNSt3__117__compressed_pairIPPNS_16__hash_node_baseIPNS_11__hash_nodeINS_17__hash_value_typeINS_12basic_stringIcNS_11char_traitsIcEENS_9allocatorIcEEEE5ValueEEPvEEEENS_25__bucket_list_deallocatorINS7_ISG_EEEEEC1B8ue170006INS_16__value_init_tagESN_EEOT_OT0_, symObjAddr: 0x16D98, symBinAddr: 0x100017C6C, symSize: 0x3C }
  - { offsetInCU: 0x3FA4F, offset: 0x3FA4F, size: 0x8, addend: 0x0, symName: __ZNSt3__117__compressed_pairIPPNS_16__hash_node_baseIPNS_11__hash_nodeINS_17__hash_value_typeINS_12basic_stringIcNS_11char_traitsIcEENS_9allocatorIcEEEE5ValueEEPvEEEENS_25__bucket_list_deallocatorINS7_ISG_EEEEEC2B8ue170006INS_16__value_init_tagESN_EEOT_OT0_, symObjAddr: 0x16DD4, symBinAddr: 0x100017CA8, symSize: 0x40 }
  - { offsetInCU: 0x3FAA7, offset: 0x3FAA7, size: 0x8, addend: 0x0, symName: __ZNSt3__122__compressed_pair_elemIPPNS_16__hash_node_baseIPNS_11__hash_nodeINS_17__hash_value_typeINS_12basic_stringIcNS_11char_traitsIcEENS_9allocatorIcEEEE5ValueEEPvEEEELi0ELb0EEC2B8ue170006ENS_16__value_init_tagE, symObjAddr: 0x16E14, symBinAddr: 0x100017CE8, symSize: 0x18 }
  - { offsetInCU: 0x3FADB, offset: 0x3FADB, size: 0x8, addend: 0x0, symName: __ZNSt3__122__compressed_pair_elemINS_25__bucket_list_deallocatorINS_9allocatorIPNS_16__hash_node_baseIPNS_11__hash_nodeINS_17__hash_value_typeINS_12basic_stringIcNS_11char_traitsIcEENS2_IcEEEE5ValueEEPvEEEEEEEELi1ELb0EEC2B8ue170006ENS_16__value_init_tagE, symObjAddr: 0x16E2C, symBinAddr: 0x100017D00, symSize: 0x2C }
  - { offsetInCU: 0x3FB0F, offset: 0x3FB0F, size: 0x8, addend: 0x0, symName: __ZNSt3__125__bucket_list_deallocatorINS_9allocatorIPNS_16__hash_node_baseIPNS_11__hash_nodeINS_17__hash_value_typeINS_12basic_stringIcNS_11char_traitsIcEENS1_IcEEEE5ValueEEPvEEEEEEEC1B8ue170006Ev, symObjAddr: 0x16E58, symBinAddr: 0x100017D2C, symSize: 0x2C }
  - { offsetInCU: 0x3FB39, offset: 0x3FB39, size: 0x8, addend: 0x0, symName: __ZNSt3__125__bucket_list_deallocatorINS_9allocatorIPNS_16__hash_node_baseIPNS_11__hash_nodeINS_17__hash_value_typeINS_12basic_stringIcNS_11char_traitsIcEENS1_IcEEEE5ValueEEPvEEEEEEEC2B8ue170006Ev, symObjAddr: 0x16E84, symBinAddr: 0x100017D58, symSize: 0x40 }
  - { offsetInCU: 0x3FB63, offset: 0x3FB63, size: 0x8, addend: 0x0, symName: __ZNSt3__117__compressed_pairImNS_9allocatorIPNS_16__hash_node_baseIPNS_11__hash_nodeINS_17__hash_value_typeINS_12basic_stringIcNS_11char_traitsIcEENS1_IcEEEE5ValueEEPvEEEEEEEC1B8ue170006IiNS_18__default_init_tagEEEOT_OT0_, symObjAddr: 0x16EC4, symBinAddr: 0x100017D98, symSize: 0x3C }
  - { offsetInCU: 0x3FBBB, offset: 0x3FBBB, size: 0x8, addend: 0x0, symName: __ZNSt3__117__compressed_pairImNS_9allocatorIPNS_16__hash_node_baseIPNS_11__hash_nodeINS_17__hash_value_typeINS_12basic_stringIcNS_11char_traitsIcEENS1_IcEEEE5ValueEEPvEEEEEEEC2B8ue170006IiNS_18__default_init_tagEEEOT_OT0_, symObjAddr: 0x16F00, symBinAddr: 0x100017DD4, symSize: 0x40 }
  - { offsetInCU: 0x3FC13, offset: 0x3FC13, size: 0x8, addend: 0x0, symName: __ZNSt3__122__compressed_pair_elemImLi0ELb0EEC2B8ue170006IivEEOT_, symObjAddr: 0x16F40, symBinAddr: 0x100017E14, symSize: 0x24 }
  - { offsetInCU: 0x3FC55, offset: 0x3FC55, size: 0x8, addend: 0x0, symName: __ZNSt3__122__compressed_pair_elemINS_9allocatorIPNS_16__hash_node_baseIPNS_11__hash_nodeINS_17__hash_value_typeINS_12basic_stringIcNS_11char_traitsIcEENS1_IcEEEE5ValueEEPvEEEEEELi1ELb1EEC2B8ue170006ENS_18__default_init_tagE, symObjAddr: 0x16F64, symBinAddr: 0x100017E38, symSize: 0x2C }
  - { offsetInCU: 0x3FC89, offset: 0x3FC89, size: 0x8, addend: 0x0, symName: __ZNSt3__19allocatorIPNS_16__hash_node_baseIPNS_11__hash_nodeINS_17__hash_value_typeINS_12basic_stringIcNS_11char_traitsIcEENS0_IcEEEE5ValueEEPvEEEEEC2B8ue170006Ev, symObjAddr: 0x16F90, symBinAddr: 0x100017E64, symSize: 0x2C }
  - { offsetInCU: 0x3FCB3, offset: 0x3FCB3, size: 0x8, addend: 0x0, symName: __ZNSt3__116__non_trivial_ifILb1ENS_9allocatorIPNS_16__hash_node_baseIPNS_11__hash_nodeINS_17__hash_value_typeINS_12basic_stringIcNS_11char_traitsIcEENS1_IcEEEE5ValueEEPvEEEEEEEC2B8ue170006Ev, symObjAddr: 0x16FBC, symBinAddr: 0x100017E90, symSize: 0x14 }
  - { offsetInCU: 0x3FCDD, offset: 0x3FCDD, size: 0x8, addend: 0x0, symName: __ZNSt3__117__compressed_pairINS_16__hash_node_baseIPNS_11__hash_nodeINS_17__hash_value_typeINS_12basic_stringIcNS_11char_traitsIcEENS_9allocatorIcEEEE5ValueEEPvEEEENS7_ISD_EEEC2B8ue170006ILb1EvEEv, symObjAddr: 0x16FD0, symBinAddr: 0x100017EA4, symSize: 0x34 }
  - { offsetInCU: 0x3FD12, offset: 0x3FD12, size: 0x8, addend: 0x0, symName: __ZNSt3__122__compressed_pair_elemINS_16__hash_node_baseIPNS_11__hash_nodeINS_17__hash_value_typeINS_12basic_stringIcNS_11char_traitsIcEENS_9allocatorIcEEEE5ValueEEPvEEEELi0ELb0EEC2B8ue170006ENS_16__value_init_tagE, symObjAddr: 0x17004, symBinAddr: 0x100017ED8, symSize: 0x2C }
  - { offsetInCU: 0x3FD46, offset: 0x3FD46, size: 0x8, addend: 0x0, symName: __ZNSt3__122__compressed_pair_elemINS_9allocatorINS_11__hash_nodeINS_17__hash_value_typeINS_12basic_stringIcNS_11char_traitsIcEENS1_IcEEEE5ValueEEPvEEEELi1ELb1EEC2B8ue170006ENS_16__value_init_tagE, symObjAddr: 0x17030, symBinAddr: 0x100017F04, symSize: 0x2C }
  - { offsetInCU: 0x3FD7A, offset: 0x3FD7A, size: 0x8, addend: 0x0, symName: __ZNSt3__116__hash_node_baseIPNS_11__hash_nodeINS_17__hash_value_typeINS_12basic_stringIcNS_11char_traitsIcEENS_9allocatorIcEEEE5ValueEEPvEEEC1B8ue170006Ev, symObjAddr: 0x1705C, symBinAddr: 0x100017F30, symSize: 0x2C }
  - { offsetInCU: 0x3FDA4, offset: 0x3FDA4, size: 0x8, addend: 0x0, symName: __ZNSt3__116__hash_node_baseIPNS_11__hash_nodeINS_17__hash_value_typeINS_12basic_stringIcNS_11char_traitsIcEENS_9allocatorIcEEEE5ValueEEPvEEEC2B8ue170006Ev, symObjAddr: 0x17088, symBinAddr: 0x100017F5C, symSize: 0x18 }
  - { offsetInCU: 0x3FDCE, offset: 0x3FDCE, size: 0x8, addend: 0x0, symName: __ZNSt3__19allocatorINS_11__hash_nodeINS_17__hash_value_typeINS_12basic_stringIcNS_11char_traitsIcEENS0_IcEEEE5ValueEEPvEEEC2B8ue170006Ev, symObjAddr: 0x170A0, symBinAddr: 0x100017F74, symSize: 0x2C }
  - { offsetInCU: 0x3FDF8, offset: 0x3FDF8, size: 0x8, addend: 0x0, symName: __ZNSt3__116__non_trivial_ifILb1ENS_9allocatorINS_11__hash_nodeINS_17__hash_value_typeINS_12basic_stringIcNS_11char_traitsIcEENS1_IcEEEE5ValueEEPvEEEEEC2B8ue170006Ev, symObjAddr: 0x170CC, symBinAddr: 0x100017FA0, symSize: 0x14 }
  - { offsetInCU: 0x3FE22, offset: 0x3FE22, size: 0x8, addend: 0x0, symName: __ZNSt3__117__compressed_pairImNS_22__unordered_map_hasherINS_12basic_stringIcNS_11char_traitsIcEENS_9allocatorIcEEEENS_17__hash_value_typeIS7_5ValueEENS_4hashIS7_EENS_8equal_toIS7_EELb1EEEEC2B8ue170006IiNS_18__default_init_tagEEEOT_OT0_, symObjAddr: 0x170E0, symBinAddr: 0x100017FB4, symSize: 0x40 }
  - { offsetInCU: 0x3FE7A, offset: 0x3FE7A, size: 0x8, addend: 0x0, symName: __ZNSt3__122__compressed_pair_elemINS_22__unordered_map_hasherINS_12basic_stringIcNS_11char_traitsIcEENS_9allocatorIcEEEENS_17__hash_value_typeIS7_5ValueEENS_4hashIS7_EENS_8equal_toIS7_EELb1EEELi1ELb1EEC2B8ue170006ENS_18__default_init_tagE, symObjAddr: 0x17120, symBinAddr: 0x100017FF4, symSize: 0x2C }
  - { offsetInCU: 0x3FEAE, offset: 0x3FEAE, size: 0x8, addend: 0x0, symName: __ZNSt3__122__unordered_map_hasherINS_12basic_stringIcNS_11char_traitsIcEENS_9allocatorIcEEEENS_17__hash_value_typeIS6_5ValueEENS_4hashIS6_EENS_8equal_toIS6_EELb1EEC2B8ue170006Ev, symObjAddr: 0x1714C, symBinAddr: 0x100018020, symSize: 0x14 }
  - { offsetInCU: 0x3FED8, offset: 0x3FED8, size: 0x8, addend: 0x0, symName: __ZNSt3__117__compressed_pairIfNS_21__unordered_map_equalINS_12basic_stringIcNS_11char_traitsIcEENS_9allocatorIcEEEENS_17__hash_value_typeIS7_5ValueEENS_8equal_toIS7_EENS_4hashIS7_EELb1EEEEC2B8ue170006IfNS_18__default_init_tagEEEOT_OT0_, symObjAddr: 0x17160, symBinAddr: 0x100018034, symSize: 0x40 }
  - { offsetInCU: 0x3FF30, offset: 0x3FF30, size: 0x8, addend: 0x0, symName: __ZNSt3__122__compressed_pair_elemIfLi0ELb0EEC2B8ue170006IfvEEOT_, symObjAddr: 0x171A0, symBinAddr: 0x100018074, symSize: 0x24 }
  - { offsetInCU: 0x3FF72, offset: 0x3FF72, size: 0x8, addend: 0x0, symName: __ZNSt3__122__compressed_pair_elemINS_21__unordered_map_equalINS_12basic_stringIcNS_11char_traitsIcEENS_9allocatorIcEEEENS_17__hash_value_typeIS7_5ValueEENS_8equal_toIS7_EENS_4hashIS7_EELb1EEELi1ELb1EEC2B8ue170006ENS_18__default_init_tagE, symObjAddr: 0x171C4, symBinAddr: 0x100018098, symSize: 0x2C }
  - { offsetInCU: 0x3FFA6, offset: 0x3FFA6, size: 0x8, addend: 0x0, symName: __ZNSt3__121__unordered_map_equalINS_12basic_stringIcNS_11char_traitsIcEENS_9allocatorIcEEEENS_17__hash_value_typeIS6_5ValueEENS_8equal_toIS6_EENS_4hashIS6_EELb1EEC2B8ue170006Ev, symObjAddr: 0x171F0, symBinAddr: 0x1000180C4, symSize: 0x14 }
  - { offsetInCU: 0x3FFD0, offset: 0x3FFD0, size: 0x8, addend: 0x0, symName: __ZNSt3__113unordered_mapINS_12basic_stringIcNS_11char_traitsIcEENS_9allocatorIcEEEE5ValueNS_4hashIS6_EENS_8equal_toIS6_EENS4_INS_4pairIKS6_S7_EEEEED2B8ue170006Ev, symObjAddr: 0x17204, symBinAddr: 0x1000180D8, symSize: 0x2C }
  - { offsetInCU: 0x3FFFA, offset: 0x3FFFA, size: 0x8, addend: 0x0, symName: __ZNSt3__112__hash_tableINS_17__hash_value_typeINS_12basic_stringIcNS_11char_traitsIcEENS_9allocatorIcEEEE5ValueEENS_22__unordered_map_hasherIS7_S9_NS_4hashIS7_EENS_8equal_toIS7_EELb1EEENS_21__unordered_map_equalIS7_S9_SE_SC_Lb1EEENS5_IS9_EEED1Ev, symObjAddr: 0x17230, symBinAddr: 0x100018104, symSize: 0x2C }
  - { offsetInCU: 0x40026, offset: 0x40026, size: 0x8, addend: 0x0, symName: __ZNSt3__112__hash_tableINS_17__hash_value_typeINS_12basic_stringIcNS_11char_traitsIcEENS_9allocatorIcEEEE5ValueEENS_22__unordered_map_hasherIS7_S9_NS_4hashIS7_EENS_8equal_toIS7_EELb1EEENS_21__unordered_map_equalIS7_S9_SE_SC_Lb1EEENS5_IS9_EEED2Ev, symObjAddr: 0x1725C, symBinAddr: 0x100018130, symSize: 0x48 }
  - { offsetInCU: 0x40052, offset: 0x40052, size: 0x8, addend: 0x0, symName: __ZNSt3__112__hash_tableINS_17__hash_value_typeINS_12basic_stringIcNS_11char_traitsIcEENS_9allocatorIcEEEE5ValueEENS_22__unordered_map_hasherIS7_S9_NS_4hashIS7_EENS_8equal_toIS7_EELb1EEENS_21__unordered_map_equalIS7_S9_SE_SC_Lb1EEENS5_IS9_EEE17__deallocate_nodeEPNS_16__hash_node_baseIPNS_11__hash_nodeIS9_PvEEEE, symObjAddr: 0x172A4, symBinAddr: 0x100018178, symSize: 0xA8 }
  - { offsetInCU: 0x400BD, offset: 0x400BD, size: 0x8, addend: 0x0, symName: __ZNSt3__117__compressed_pairINS_16__hash_node_baseIPNS_11__hash_nodeINS_17__hash_value_typeINS_12basic_stringIcNS_11char_traitsIcEENS_9allocatorIcEEEE5ValueEEPvEEEENS7_ISD_EEE5firstB8ue170006Ev, symObjAddr: 0x1734C, symBinAddr: 0x100018220, symSize: 0x24 }
  - { offsetInCU: 0x400E3, offset: 0x400E3, size: 0x8, addend: 0x0, symName: __ZNSt3__110unique_ptrIA_PNS_16__hash_node_baseIPNS_11__hash_nodeINS_17__hash_value_typeINS_12basic_stringIcNS_11char_traitsIcEENS_9allocatorIcEEEE5ValueEEPvEEEENS_25__bucket_list_deallocatorINS7_ISG_EEEEED1B8ue170006Ev, symObjAddr: 0x17370, symBinAddr: 0x100018244, symSize: 0x2C }
  - { offsetInCU: 0x4010D, offset: 0x4010D, size: 0x8, addend: 0x0, symName: __ZNSt3__112__hash_tableINS_17__hash_value_typeINS_12basic_stringIcNS_11char_traitsIcEENS_9allocatorIcEEEE5ValueEENS_22__unordered_map_hasherIS7_S9_NS_4hashIS7_EENS_8equal_toIS7_EELb1EEENS_21__unordered_map_equalIS7_S9_SE_SC_Lb1EEENS5_IS9_EEE12__node_allocB8ue170006Ev, symObjAddr: 0x1739C, symBinAddr: 0x100018270, symSize: 0x28 }
  - { offsetInCU: 0x40133, offset: 0x40133, size: 0x8, addend: 0x0, symName: __ZNSt3__116__hash_node_baseIPNS_11__hash_nodeINS_17__hash_value_typeINS_12basic_stringIcNS_11char_traitsIcEENS_9allocatorIcEEEE5ValueEEPvEEE8__upcastB8ue170006Ev, symObjAddr: 0x173C4, symBinAddr: 0x100018298, symSize: 0x24 }
  - { offsetInCU: 0x40159, offset: 0x40159, size: 0x8, addend: 0x0, symName: __ZNSt3__116allocator_traitsINS_9allocatorINS_11__hash_nodeINS_17__hash_value_typeINS_12basic_stringIcNS_11char_traitsIcEENS1_IcEEEE5ValueEEPvEEEEE7destroyB8ue170006INS_4pairIKS8_S9_EEvvEEvRSD_PT_, symObjAddr: 0x173E8, symBinAddr: 0x1000182BC, symSize: 0x28 }
  - { offsetInCU: 0x40194, offset: 0x40194, size: 0x8, addend: 0x0, symName: __ZNSt3__122__hash_key_value_typesINS_17__hash_value_typeINS_12basic_stringIcNS_11char_traitsIcEENS_9allocatorIcEEEE5ValueEEE9__get_ptrB8ue170006ERS9_, symObjAddr: 0x17410, symBinAddr: 0x1000182E4, symSize: 0x24 }
  - { offsetInCU: 0x401B7, offset: 0x401B7, size: 0x8, addend: 0x0, symName: __ZNSt3__116allocator_traitsINS_9allocatorINS_11__hash_nodeINS_17__hash_value_typeINS_12basic_stringIcNS_11char_traitsIcEENS1_IcEEEE5ValueEEPvEEEEE10deallocateB8ue170006ERSD_PSC_m, symObjAddr: 0x17434, symBinAddr: 0x100018308, symSize: 0x34 }
  - { offsetInCU: 0x401F9, offset: 0x401F9, size: 0x8, addend: 0x0, symName: __ZNSt3__117__compressed_pairINS_16__hash_node_baseIPNS_11__hash_nodeINS_17__hash_value_typeINS_12basic_stringIcNS_11char_traitsIcEENS_9allocatorIcEEEE5ValueEEPvEEEENS7_ISD_EEE6secondB8ue170006Ev, symObjAddr: 0x17468, symBinAddr: 0x10001833C, symSize: 0x24 }
  - { offsetInCU: 0x4021F, offset: 0x4021F, size: 0x8, addend: 0x0, symName: __ZNSt3__122__compressed_pair_elemINS_9allocatorINS_11__hash_nodeINS_17__hash_value_typeINS_12basic_stringIcNS_11char_traitsIcEENS1_IcEEEE5ValueEEPvEEEELi1ELb1EE5__getB8ue170006Ev, symObjAddr: 0x1748C, symBinAddr: 0x100018360, symSize: 0x14 }
  - { offsetInCU: 0x40245, offset: 0x40245, size: 0x8, addend: 0x0, symName: __ZNSt3__114pointer_traitsIPNS_16__hash_node_baseIPNS_11__hash_nodeINS_17__hash_value_typeINS_12basic_stringIcNS_11char_traitsIcEENS_9allocatorIcEEEE5ValueEEPvEEEEE10pointer_toB8ue170006ERSF_, symObjAddr: 0x174A0, symBinAddr: 0x100018374, symSize: 0x14 }
  - { offsetInCU: 0x40268, offset: 0x40268, size: 0x8, addend: 0x0, symName: __ZNSt3__14pairIKNS_12basic_stringIcNS_11char_traitsIcEENS_9allocatorIcEEEE5ValueED1Ev, symObjAddr: 0x174FC, symBinAddr: 0x1000183D0, symSize: 0x2C }
  - { offsetInCU: 0x40294, offset: 0x40294, size: 0x8, addend: 0x0, symName: __ZNSt3__14pairIKNS_12basic_stringIcNS_11char_traitsIcEENS_9allocatorIcEEEE5ValueED2Ev, symObjAddr: 0x17528, symBinAddr: 0x1000183FC, symSize: 0x38 }
  - { offsetInCU: 0x402C0, offset: 0x402C0, size: 0x8, addend: 0x0, symName: __ZNSt3__117__hash_value_typeINS_12basic_stringIcNS_11char_traitsIcEENS_9allocatorIcEEEE5ValueE11__get_valueB8ue170006Ev, symObjAddr: 0x17560, symBinAddr: 0x100018434, symSize: 0x24 }
  - { offsetInCU: 0x402E6, offset: 0x402E6, size: 0x8, addend: 0x0, symName: __ZNSt3__19allocatorINS_11__hash_nodeINS_17__hash_value_typeINS_12basic_stringIcNS_11char_traitsIcEENS0_IcEEEE5ValueEEPvEEE10deallocateB8ue170006EPSB_m, symObjAddr: 0x175BC, symBinAddr: 0x100018490, symSize: 0x44 }
  - { offsetInCU: 0x40328, offset: 0x40328, size: 0x8, addend: 0x0, symName: __ZNSt3__122__compressed_pair_elemINS_16__hash_node_baseIPNS_11__hash_nodeINS_17__hash_value_typeINS_12basic_stringIcNS_11char_traitsIcEENS_9allocatorIcEEEE5ValueEEPvEEEELi0ELb0EE5__getB8ue170006Ev, symObjAddr: 0x17600, symBinAddr: 0x1000184D4, symSize: 0x14 }
  - { offsetInCU: 0x4034E, offset: 0x4034E, size: 0x8, addend: 0x0, symName: __ZNSt3__110unique_ptrIA_PNS_16__hash_node_baseIPNS_11__hash_nodeINS_17__hash_value_typeINS_12basic_stringIcNS_11char_traitsIcEENS_9allocatorIcEEEE5ValueEEPvEEEENS_25__bucket_list_deallocatorINS7_ISG_EEEEED2B8ue170006Ev, symObjAddr: 0x17614, symBinAddr: 0x1000184E8, symSize: 0x30 }
  - { offsetInCU: 0x40378, offset: 0x40378, size: 0x8, addend: 0x0, symName: __ZNSt3__110unique_ptrIA_PNS_16__hash_node_baseIPNS_11__hash_nodeINS_17__hash_value_typeINS_12basic_stringIcNS_11char_traitsIcEENS_9allocatorIcEEEE5ValueEEPvEEEENS_25__bucket_list_deallocatorINS7_ISG_EEEEE5resetB8ue170006EDn, symObjAddr: 0x17644, symBinAddr: 0x100018518, symSize: 0x6C }
  - { offsetInCU: 0x403B9, offset: 0x403B9, size: 0x8, addend: 0x0, symName: __ZNSt3__117__compressed_pairIPPNS_16__hash_node_baseIPNS_11__hash_nodeINS_17__hash_value_typeINS_12basic_stringIcNS_11char_traitsIcEENS_9allocatorIcEEEE5ValueEEPvEEEENS_25__bucket_list_deallocatorINS7_ISG_EEEEE5firstB8ue170006Ev, symObjAddr: 0x176B0, symBinAddr: 0x100018584, symSize: 0x24 }
  - { offsetInCU: 0x403DF, offset: 0x403DF, size: 0x8, addend: 0x0, symName: __ZNSt3__117__compressed_pairIPPNS_16__hash_node_baseIPNS_11__hash_nodeINS_17__hash_value_typeINS_12basic_stringIcNS_11char_traitsIcEENS_9allocatorIcEEEE5ValueEEPvEEEENS_25__bucket_list_deallocatorINS7_ISG_EEEEE6secondB8ue170006Ev, symObjAddr: 0x176D4, symBinAddr: 0x1000185A8, symSize: 0x28 }
  - { offsetInCU: 0x40405, offset: 0x40405, size: 0x8, addend: 0x0, symName: __ZNSt3__125__bucket_list_deallocatorINS_9allocatorIPNS_16__hash_node_baseIPNS_11__hash_nodeINS_17__hash_value_typeINS_12basic_stringIcNS_11char_traitsIcEENS1_IcEEEE5ValueEEPvEEEEEEEclB8ue170006EPSG_, symObjAddr: 0x176FC, symBinAddr: 0x1000185D0, symSize: 0x58 }
  - { offsetInCU: 0x4043A, offset: 0x4043A, size: 0x8, addend: 0x0, symName: __ZNSt3__122__compressed_pair_elemIPPNS_16__hash_node_baseIPNS_11__hash_nodeINS_17__hash_value_typeINS_12basic_stringIcNS_11char_traitsIcEENS_9allocatorIcEEEE5ValueEEPvEEEELi0ELb0EE5__getB8ue170006Ev, symObjAddr: 0x17754, symBinAddr: 0x100018628, symSize: 0x14 }
  - { offsetInCU: 0x40460, offset: 0x40460, size: 0x8, addend: 0x0, symName: __ZNSt3__122__compressed_pair_elemINS_25__bucket_list_deallocatorINS_9allocatorIPNS_16__hash_node_baseIPNS_11__hash_nodeINS_17__hash_value_typeINS_12basic_stringIcNS_11char_traitsIcEENS2_IcEEEE5ValueEEPvEEEEEEEELi1ELb0EE5__getB8ue170006Ev, symObjAddr: 0x17768, symBinAddr: 0x10001863C, symSize: 0x14 }
  - { offsetInCU: 0x40486, offset: 0x40486, size: 0x8, addend: 0x0, symName: __ZNSt3__116allocator_traitsINS_9allocatorIPNS_16__hash_node_baseIPNS_11__hash_nodeINS_17__hash_value_typeINS_12basic_stringIcNS_11char_traitsIcEENS1_IcEEEE5ValueEEPvEEEEEEE10deallocateB8ue170006ERSH_PSG_m, symObjAddr: 0x1777C, symBinAddr: 0x100018650, symSize: 0x34 }
  - { offsetInCU: 0x404C8, offset: 0x404C8, size: 0x8, addend: 0x0, symName: __ZNSt3__125__bucket_list_deallocatorINS_9allocatorIPNS_16__hash_node_baseIPNS_11__hash_nodeINS_17__hash_value_typeINS_12basic_stringIcNS_11char_traitsIcEENS1_IcEEEE5ValueEEPvEEEEEEE7__allocB8ue170006Ev, symObjAddr: 0x177B0, symBinAddr: 0x100018684, symSize: 0x24 }
  - { offsetInCU: 0x404EE, offset: 0x404EE, size: 0x8, addend: 0x0, symName: __ZNSt3__125__bucket_list_deallocatorINS_9allocatorIPNS_16__hash_node_baseIPNS_11__hash_nodeINS_17__hash_value_typeINS_12basic_stringIcNS_11char_traitsIcEENS1_IcEEEE5ValueEEPvEEEEEEE4sizeB8ue170006Ev, symObjAddr: 0x177D4, symBinAddr: 0x1000186A8, symSize: 0x24 }
  - { offsetInCU: 0x40514, offset: 0x40514, size: 0x8, addend: 0x0, symName: __ZNSt3__19allocatorIPNS_16__hash_node_baseIPNS_11__hash_nodeINS_17__hash_value_typeINS_12basic_stringIcNS_11char_traitsIcEENS0_IcEEEE5ValueEEPvEEEEE10deallocateB8ue170006EPSF_m, symObjAddr: 0x177F8, symBinAddr: 0x1000186CC, symSize: 0x40 }
  - { offsetInCU: 0x40556, offset: 0x40556, size: 0x8, addend: 0x0, symName: __ZNSt3__117__compressed_pairImNS_9allocatorIPNS_16__hash_node_baseIPNS_11__hash_nodeINS_17__hash_value_typeINS_12basic_stringIcNS_11char_traitsIcEENS1_IcEEEE5ValueEEPvEEEEEEE6secondB8ue170006Ev, symObjAddr: 0x17838, symBinAddr: 0x10001870C, symSize: 0x24 }
  - { offsetInCU: 0x4057C, offset: 0x4057C, size: 0x8, addend: 0x0, symName: __ZNSt3__122__compressed_pair_elemINS_9allocatorIPNS_16__hash_node_baseIPNS_11__hash_nodeINS_17__hash_value_typeINS_12basic_stringIcNS_11char_traitsIcEENS1_IcEEEE5ValueEEPvEEEEEELi1ELb1EE5__getB8ue170006Ev, symObjAddr: 0x1785C, symBinAddr: 0x100018730, symSize: 0x14 }
  - { offsetInCU: 0x405A2, offset: 0x405A2, size: 0x8, addend: 0x0, symName: __ZNSt3__117__compressed_pairImNS_9allocatorIPNS_16__hash_node_baseIPNS_11__hash_nodeINS_17__hash_value_typeINS_12basic_stringIcNS_11char_traitsIcEENS1_IcEEEE5ValueEEPvEEEEEEE5firstB8ue170006Ev, symObjAddr: 0x17870, symBinAddr: 0x100018744, symSize: 0x24 }
  - { offsetInCU: 0x405C8, offset: 0x405C8, size: 0x8, addend: 0x0, symName: __ZNSt3__122__compressed_pair_elemImLi0ELb0EE5__getB8ue170006Ev, symObjAddr: 0x17894, symBinAddr: 0x100018768, symSize: 0x14 }
  - { offsetInCU: 0x405EE, offset: 0x405EE, size: 0x8, addend: 0x0, symName: __ZNSt3__18functionIF5ValueRKNS_6vectorIS1_NS_9allocatorIS1_EEEEEED2Ev, symObjAddr: 0x178A8, symBinAddr: 0x10001877C, symSize: 0x2C }
  - { offsetInCU: 0x4061A, offset: 0x4061A, size: 0x8, addend: 0x0, symName: __ZNSt3__110__function12__value_funcIF5ValueRKNS_6vectorIS2_NS_9allocatorIS2_EEEEEED1B8ue170006Ev, symObjAddr: 0x178D4, symBinAddr: 0x1000187A8, symSize: 0x2C }
  - { offsetInCU: 0x40644, offset: 0x40644, size: 0x8, addend: 0x0, symName: __ZNSt3__110__function12__value_funcIF5ValueRKNS_6vectorIS2_NS_9allocatorIS2_EEEEEED2B8ue170006Ev, symObjAddr: 0x17900, symBinAddr: 0x1000187D4, symSize: 0x90 }
  - { offsetInCU: 0x4066E, offset: 0x4066E, size: 0x8, addend: 0x0, symName: __ZNSt3__19basic_iosIcNS_11char_traitsIcEEEC2B8ue170006Ev, symObjAddr: 0x17990, symBinAddr: 0x100018864, symSize: 0x44 }
  - { offsetInCU: 0x40698, offset: 0x40698, size: 0x8, addend: 0x0, symName: __ZNSt3__114basic_iostreamIcNS_11char_traitsIcEEEC2B8ue170006EPNS_15basic_streambufIcS2_EE, symObjAddr: 0x179D4, symBinAddr: 0x1000188A8, symSize: 0xAC }
  - { offsetInCU: 0x406DE, offset: 0x406DE, size: 0x8, addend: 0x0, symName: __ZNSt3__115basic_stringbufIcNS_11char_traitsIcEENS_9allocatorIcEEEC1B8ue170006Ej, symObjAddr: 0x17A80, symBinAddr: 0x100018954, symSize: 0x34 }
  - { offsetInCU: 0x40717, offset: 0x40717, size: 0x8, addend: 0x0, symName: __ZNSt3__18ios_baseC2B8ue170006Ev, symObjAddr: 0x17AB4, symBinAddr: 0x100018988, symSize: 0x24 }
  - { offsetInCU: 0x40741, offset: 0x40741, size: 0x8, addend: 0x0, symName: __ZNSt3__113basic_istreamIcNS_11char_traitsIcEEEC2B8ue170006EPNS_15basic_streambufIcS2_EE, symObjAddr: 0x17AD8, symBinAddr: 0x1000189AC, symSize: 0x64 }
  - { offsetInCU: 0x40786, offset: 0x40786, size: 0x8, addend: 0x0, symName: __ZNSt3__113basic_ostreamIcNS_11char_traitsIcEEEC2B8ue170006Ev, symObjAddr: 0x17B3C, symBinAddr: 0x100018A10, symSize: 0x34 }
  - { offsetInCU: 0x407BD, offset: 0x407BD, size: 0x8, addend: 0x0, symName: __ZNSt3__19basic_iosIcNS_11char_traitsIcEEE4initB8ue170006EPNS_15basic_streambufIcS2_EE, symObjAddr: 0x17B70, symBinAddr: 0x100018A44, symSize: 0x44 }
  - { offsetInCU: 0x407F4, offset: 0x407F4, size: 0x8, addend: 0x0, symName: __ZNSt3__115basic_stringbufIcNS_11char_traitsIcEENS_9allocatorIcEEEC2B8ue170006Ej, symObjAddr: 0x17BB4, symBinAddr: 0x100018A88, symSize: 0x60 }
  - { offsetInCU: 0x4082D, offset: 0x4082D, size: 0x8, addend: 0x0, symName: __ZNKRSt3__115basic_stringbufIcNS_11char_traitsIcEENS_9allocatorIcEEE3strB8ue170006Ev, symObjAddr: 0x17C14, symBinAddr: 0x100018AE8, symSize: 0x44 }
  - { offsetInCU: 0x40853, offset: 0x40853, size: 0x8, addend: 0x0, symName: __ZNKSt3__115basic_stringbufIcNS_11char_traitsIcEENS_9allocatorIcEEE3strB8ue170006IS4_EENS_12basic_stringIcS2_T_EERKS8_, symObjAddr: 0x17C58, symBinAddr: 0x100018B2C, symSize: 0x50 }
  - { offsetInCU: 0x40891, offset: 0x40891, size: 0x8, addend: 0x0, symName: __ZNKSt3__112basic_stringIcNS_11char_traitsIcEENS_9allocatorIcEEE13get_allocatorB8ue170006Ev, symObjAddr: 0x17CA8, symBinAddr: 0x100018B7C, symSize: 0x24 }
  - { offsetInCU: 0x408B7, offset: 0x408B7, size: 0x8, addend: 0x0, symName: __ZNKSt3__115basic_stringbufIcNS_11char_traitsIcEENS_9allocatorIcEEE4viewB8ue170006Ev, symObjAddr: 0x17CCC, symBinAddr: 0x100018BA0, symSize: 0x120 }
  - { offsetInCU: 0x408DF, offset: 0x408DF, size: 0x8, addend: 0x0, symName: __ZNSt3__112basic_stringIcNS_11char_traitsIcEENS_9allocatorIcEEEC1INS_17basic_string_viewIcS2_EELi0EEERKT_RKS4_, symObjAddr: 0x17DEC, symBinAddr: 0x100018CC0, symSize: 0x3C }
  - { offsetInCU: 0x40936, offset: 0x40936, size: 0x8, addend: 0x0, symName: __ZNKSt3__115basic_streambufIcNS_11char_traitsIcEEE4pptrB8ue170006Ev, symObjAddr: 0x17E28, symBinAddr: 0x100018CFC, symSize: 0x18 }
  - { offsetInCU: 0x4095C, offset: 0x4095C, size: 0x8, addend: 0x0, symName: __ZNKSt3__115basic_streambufIcNS_11char_traitsIcEEE5pbaseB8ue170006Ev, symObjAddr: 0x17E40, symBinAddr: 0x100018D14, symSize: 0x18 }
  - { offsetInCU: 0x40987, offset: 0x40987, size: 0x8, addend: 0x0, symName: __ZNSt3__117basic_string_viewIcNS_11char_traitsIcEEEC1B8ue170006IPcS5_EET_T0_, symObjAddr: 0x17E58, symBinAddr: 0x100018D2C, symSize: 0x3C }
  - { offsetInCU: 0x409E1, offset: 0x409E1, size: 0x8, addend: 0x0, symName: __ZNKSt3__115basic_streambufIcNS_11char_traitsIcEEE5ebackB8ue170006Ev, symObjAddr: 0x17E94, symBinAddr: 0x100018D68, symSize: 0x18 }
  - { offsetInCU: 0x40A07, offset: 0x40A07, size: 0x8, addend: 0x0, symName: __ZNKSt3__115basic_streambufIcNS_11char_traitsIcEEE5egptrB8ue170006Ev, symObjAddr: 0x17EAC, symBinAddr: 0x100018D80, symSize: 0x18 }
  - { offsetInCU: 0x40A2D, offset: 0x40A2D, size: 0x8, addend: 0x0, symName: __ZNSt3__117basic_string_viewIcNS_11char_traitsIcEEEC1B8ue170006Ev, symObjAddr: 0x17EC4, symBinAddr: 0x100018D98, symSize: 0x2C }
  - { offsetInCU: 0x40A57, offset: 0x40A57, size: 0x8, addend: 0x0, symName: __ZNSt3__117basic_string_viewIcNS_11char_traitsIcEEEC2B8ue170006IPcS5_EET_T0_, symObjAddr: 0x17EF0, symBinAddr: 0x100018DC4, symSize: 0x50 }
  - { offsetInCU: 0x40AB1, offset: 0x40AB1, size: 0x8, addend: 0x0, symName: __ZNSt3__117basic_string_viewIcNS_11char_traitsIcEEEC2B8ue170006Ev, symObjAddr: 0x17F64, symBinAddr: 0x100018E38, symSize: 0x1C }
  - { offsetInCU: 0x40ADB, offset: 0x40ADB, size: 0x8, addend: 0x0, symName: __ZNSt3__112basic_stringIcNS_11char_traitsIcEENS_9allocatorIcEEEC2INS_17basic_string_viewIcS2_EELi0EEERKT_RKS4_, symObjAddr: 0x17F80, symBinAddr: 0x100018E54, symSize: 0x74 }
  - { offsetInCU: 0x40B4F, offset: 0x40B4F, size: 0x8, addend: 0x0, symName: __ZNSt3__117__compressed_pairINS_12basic_stringIcNS_11char_traitsIcEENS_9allocatorIcEEE5__repES5_EC1B8ue170006INS_18__default_init_tagERKS5_EEOT_OT0_, symObjAddr: 0x17FF4, symBinAddr: 0x100018EC8, symSize: 0x3C }
  - { offsetInCU: 0x40BA7, offset: 0x40BA7, size: 0x8, addend: 0x0, symName: __ZNSt3__117__compressed_pairINS_12basic_stringIcNS_11char_traitsIcEENS_9allocatorIcEEE5__repES5_EC2B8ue170006INS_18__default_init_tagERKS5_EEOT_OT0_, symObjAddr: 0x18030, symBinAddr: 0x100018F04, symSize: 0x40 }
  - { offsetInCU: 0x40BFF, offset: 0x40BFF, size: 0x8, addend: 0x0, symName: __ZNSt3__122__compressed_pair_elemINS_9allocatorIcEELi1ELb1EEC2B8ue170006IRKS2_vEEOT_, symObjAddr: 0x18070, symBinAddr: 0x100018F44, symSize: 0x18 }
  - { offsetInCU: 0x40C41, offset: 0x40C41, size: 0x8, addend: 0x0, symName: __ZNKSt3__112basic_stringIcNS_11char_traitsIcEENS_9allocatorIcEEE7__allocB8ue170006Ev, symObjAddr: 0x18088, symBinAddr: 0x100018F5C, symSize: 0x24 }
  - { offsetInCU: 0x40C67, offset: 0x40C67, size: 0x8, addend: 0x0, symName: __ZNKSt3__117__compressed_pairINS_12basic_stringIcNS_11char_traitsIcEENS_9allocatorIcEEE5__repES5_E6secondB8ue170006Ev, symObjAddr: 0x180AC, symBinAddr: 0x100018F80, symSize: 0x24 }
  - { offsetInCU: 0x40C8D, offset: 0x40C8D, size: 0x8, addend: 0x0, symName: __ZNKSt3__122__compressed_pair_elemINS_9allocatorIcEELi1ELb1EE5__getB8ue170006Ev, symObjAddr: 0x180D0, symBinAddr: 0x100018FA4, symSize: 0x14 }
  - { offsetInCU: 0x40CB3, offset: 0x40CB3, size: 0x8, addend: 0x0, symName: __ZNSt3__112__hash_tableINS_17__hash_value_typeINS_12basic_stringIcNS_11char_traitsIcEENS_9allocatorIcEEEE5ValueEENS_22__unordered_map_hasherIS7_S9_NS_4hashIS7_EENS_8equal_toIS7_EELb1EEENS_21__unordered_map_equalIS7_S9_SE_SC_Lb1EEENS5_IS9_EEE5clearEv, symObjAddr: 0x180E4, symBinAddr: 0x100018FB8, symSize: 0xDC }
  - { offsetInCU: 0x40D07, offset: 0x40D07, size: 0x8, addend: 0x0, symName: __ZNSt3__112__hash_tableINS_17__hash_value_typeINS_12basic_stringIcNS_11char_traitsIcEENS_9allocatorIcEEEE5ValueEENS_22__unordered_map_hasherIS7_S9_NS_4hashIS7_EENS_8equal_toIS7_EELb1EEENS_21__unordered_map_equalIS7_S9_SE_SC_Lb1EEENS5_IS9_EEE4sizeB8ue170006Ev, symObjAddr: 0x181C0, symBinAddr: 0x100019094, symSize: 0x28 }
  - { offsetInCU: 0x40D2D, offset: 0x40D2D, size: 0x8, addend: 0x0, symName: __ZNKSt3__112__hash_tableINS_17__hash_value_typeINS_12basic_stringIcNS_11char_traitsIcEENS_9allocatorIcEEEE5ValueEENS_22__unordered_map_hasherIS7_S9_NS_4hashIS7_EENS_8equal_toIS7_EELb1EEENS_21__unordered_map_equalIS7_S9_SE_SC_Lb1EEENS5_IS9_EEE12bucket_countB8ue170006Ev, symObjAddr: 0x181E8, symBinAddr: 0x1000190BC, symSize: 0x28 }
  - { offsetInCU: 0x40D53, offset: 0x40D53, size: 0x8, addend: 0x0, symName: __ZNKSt3__110unique_ptrIA_PNS_16__hash_node_baseIPNS_11__hash_nodeINS_17__hash_value_typeINS_12basic_stringIcNS_11char_traitsIcEENS_9allocatorIcEEEE5ValueEEPvEEEENS_25__bucket_list_deallocatorINS7_ISG_EEEEEixB8ue170006Em, symObjAddr: 0x18210, symBinAddr: 0x1000190E4, symSize: 0x34 }
  - { offsetInCU: 0x40D88, offset: 0x40D88, size: 0x8, addend: 0x0, symName: __ZNSt3__117__compressed_pairImNS_22__unordered_map_hasherINS_12basic_stringIcNS_11char_traitsIcEENS_9allocatorIcEEEENS_17__hash_value_typeIS7_5ValueEENS_4hashIS7_EENS_8equal_toIS7_EELb1EEEE5firstB8ue170006Ev, symObjAddr: 0x18244, symBinAddr: 0x100019118, symSize: 0x24 }
  - { offsetInCU: 0x40DAE, offset: 0x40DAE, size: 0x8, addend: 0x0, symName: __ZNKSt3__110unique_ptrIA_PNS_16__hash_node_baseIPNS_11__hash_nodeINS_17__hash_value_typeINS_12basic_stringIcNS_11char_traitsIcEENS_9allocatorIcEEEE5ValueEEPvEEEENS_25__bucket_list_deallocatorINS7_ISG_EEEEE11get_deleterB8ue170006Ev, symObjAddr: 0x18268, symBinAddr: 0x10001913C, symSize: 0x24 }
  - { offsetInCU: 0x40DD4, offset: 0x40DD4, size: 0x8, addend: 0x0, symName: __ZNKSt3__125__bucket_list_deallocatorINS_9allocatorIPNS_16__hash_node_baseIPNS_11__hash_nodeINS_17__hash_value_typeINS_12basic_stringIcNS_11char_traitsIcEENS1_IcEEEE5ValueEEPvEEEEEEE4sizeB8ue170006Ev, symObjAddr: 0x1828C, symBinAddr: 0x100019160, symSize: 0x28 }
  - { offsetInCU: 0x40DFA, offset: 0x40DFA, size: 0x8, addend: 0x0, symName: __ZNKSt3__117__compressed_pairIPPNS_16__hash_node_baseIPNS_11__hash_nodeINS_17__hash_value_typeINS_12basic_stringIcNS_11char_traitsIcEENS_9allocatorIcEEEE5ValueEEPvEEEENS_25__bucket_list_deallocatorINS7_ISG_EEEEE6secondB8ue170006Ev, symObjAddr: 0x182B4, symBinAddr: 0x100019188, symSize: 0x28 }
  - { offsetInCU: 0x40E20, offset: 0x40E20, size: 0x8, addend: 0x0, symName: __ZNKSt3__122__compressed_pair_elemINS_25__bucket_list_deallocatorINS_9allocatorIPNS_16__hash_node_baseIPNS_11__hash_nodeINS_17__hash_value_typeINS_12basic_stringIcNS_11char_traitsIcEENS2_IcEEEE5ValueEEPvEEEEEEEELi1ELb0EE5__getB8ue170006Ev, symObjAddr: 0x182DC, symBinAddr: 0x1000191B0, symSize: 0x14 }
  - { offsetInCU: 0x40E46, offset: 0x40E46, size: 0x8, addend: 0x0, symName: __ZNKSt3__117__compressed_pairImNS_9allocatorIPNS_16__hash_node_baseIPNS_11__hash_nodeINS_17__hash_value_typeINS_12basic_stringIcNS_11char_traitsIcEENS1_IcEEEE5ValueEEPvEEEEEEE5firstB8ue170006Ev, symObjAddr: 0x182F0, symBinAddr: 0x1000191C4, symSize: 0x24 }
  - { offsetInCU: 0x40E6C, offset: 0x40E6C, size: 0x8, addend: 0x0, symName: __ZNKSt3__122__compressed_pair_elemImLi0ELb0EE5__getB8ue170006Ev, symObjAddr: 0x18314, symBinAddr: 0x1000191E8, symSize: 0x14 }
  - { offsetInCU: 0x40E92, offset: 0x40E92, size: 0x8, addend: 0x0, symName: __ZNKSt3__117__compressed_pairIPPNS_16__hash_node_baseIPNS_11__hash_nodeINS_17__hash_value_typeINS_12basic_stringIcNS_11char_traitsIcEENS_9allocatorIcEEEE5ValueEEPvEEEENS_25__bucket_list_deallocatorINS7_ISG_EEEEE5firstB8ue170006Ev, symObjAddr: 0x18328, symBinAddr: 0x1000191FC, symSize: 0x24 }
  - { offsetInCU: 0x40EB8, offset: 0x40EB8, size: 0x8, addend: 0x0, symName: __ZNKSt3__122__compressed_pair_elemIPPNS_16__hash_node_baseIPNS_11__hash_nodeINS_17__hash_value_typeINS_12basic_stringIcNS_11char_traitsIcEENS_9allocatorIcEEEE5ValueEEPvEEEELi0ELb0EE5__getB8ue170006Ev, symObjAddr: 0x1834C, symBinAddr: 0x100019220, symSize: 0x14 }
  - { offsetInCU: 0x40EF2, offset: 0x40EF2, size: 0x8, addend: 0x0, symName: __ZNSt3__112__hash_tableINS_17__hash_value_typeINS_12basic_stringIcNS_11char_traitsIcEENS_9allocatorIcEEEE5ValueEENS_22__unordered_map_hasherIS7_S9_NS_4hashIS7_EENS_8equal_toIS7_EELb1EEENS_21__unordered_map_equalIS7_S9_SE_SC_Lb1EEENS5_IS9_EEE25__emplace_unique_key_argsIS7_JRKNS_21piecewise_construct_tENS_5tupleIJOS7_EEENSO_IJEEEEEENS_4pairINS_15__hash_iteratorIPNS_11__hash_nodeIS9_PvEEEEbEERKT_DpOT0_, symObjAddr: 0x18360, symBinAddr: 0x100019234, symSize: 0x4C8 }
  - { offsetInCU: 0x40FFD, offset: 0x40FFD, size: 0x8, addend: 0x0, symName: __ZNKSt3__115__hash_iteratorIPNS_11__hash_nodeINS_17__hash_value_typeINS_12basic_stringIcNS_11char_traitsIcEENS_9allocatorIcEEEE5ValueEEPvEEEptB8ue170006Ev, symObjAddr: 0x18858, symBinAddr: 0x10001972C, symSize: 0x30 }
  - { offsetInCU: 0x41023, offset: 0x41023, size: 0x8, addend: 0x0, symName: __ZNSt3__112__hash_tableINS_17__hash_value_typeINS_12basic_stringIcNS_11char_traitsIcEENS_9allocatorIcEEEE5ValueEENS_22__unordered_map_hasherIS7_S9_NS_4hashIS7_EENS_8equal_toIS7_EELb1EEENS_21__unordered_map_equalIS7_S9_SE_SC_Lb1EEENS5_IS9_EEE13hash_functionB8ue170006Ev, symObjAddr: 0x18888, symBinAddr: 0x10001975C, symSize: 0x28 }
  - { offsetInCU: 0x41049, offset: 0x41049, size: 0x8, addend: 0x0, symName: __ZNKSt3__122__unordered_map_hasherINS_12basic_stringIcNS_11char_traitsIcEENS_9allocatorIcEEEENS_17__hash_value_typeIS6_5ValueEENS_4hashIS6_EENS_8equal_toIS6_EELb1EEclB8ue170006ERKS6_, symObjAddr: 0x188B0, symBinAddr: 0x100019784, symSize: 0x2C }
  - { offsetInCU: 0x4107E, offset: 0x4107E, size: 0x8, addend: 0x0, symName: __ZNKSt3__116__hash_node_baseIPNS_11__hash_nodeINS_17__hash_value_typeINS_12basic_stringIcNS_11char_traitsIcEENS_9allocatorIcEEEE5ValueEEPvEEE6__hashB8ue170006Ev, symObjAddr: 0x18974, symBinAddr: 0x100019848, symSize: 0x18 }
  - { offsetInCU: 0x410A4, offset: 0x410A4, size: 0x8, addend: 0x0, symName: __ZNSt3__112__hash_tableINS_17__hash_value_typeINS_12basic_stringIcNS_11char_traitsIcEENS_9allocatorIcEEEE5ValueEENS_22__unordered_map_hasherIS7_S9_NS_4hashIS7_EENS_8equal_toIS7_EELb1EEENS_21__unordered_map_equalIS7_S9_SE_SC_Lb1EEENS5_IS9_EEE6key_eqB8ue170006Ev, symObjAddr: 0x1898C, symBinAddr: 0x100019860, symSize: 0x28 }
  - { offsetInCU: 0x410CA, offset: 0x410CA, size: 0x8, addend: 0x0, symName: __ZNKSt3__121__unordered_map_equalINS_12basic_stringIcNS_11char_traitsIcEENS_9allocatorIcEEEENS_17__hash_value_typeIS6_5ValueEENS_8equal_toIS6_EENS_4hashIS6_EELb1EEclB8ue170006ERKS9_RKS6_, symObjAddr: 0x189B4, symBinAddr: 0x100019888, symSize: 0x48 }
  - { offsetInCU: 0x4110E, offset: 0x4110E, size: 0x8, addend: 0x0, symName: __ZNSt3__112__hash_tableINS_17__hash_value_typeINS_12basic_stringIcNS_11char_traitsIcEENS_9allocatorIcEEEE5ValueEENS_22__unordered_map_hasherIS7_S9_NS_4hashIS7_EENS_8equal_toIS7_EELb1EEENS_21__unordered_map_equalIS7_S9_SE_SC_Lb1EEENS5_IS9_EEE21__construct_node_hashIRKNS_21piecewise_construct_tEJNS_5tupleIJOS7_EEENSO_IJEEEEEENS_10unique_ptrINS_11__hash_nodeIS9_PvEENS_22__hash_node_destructorINS5_ISV_EEEEEEmOT_DpOT0_, symObjAddr: 0x189FC, symBinAddr: 0x1000198D0, symSize: 0x150 }
  - { offsetInCU: 0x411AA, offset: 0x411AA, size: 0x8, addend: 0x0, symName: __ZNSt3__112__hash_tableINS_17__hash_value_typeINS_12basic_stringIcNS_11char_traitsIcEENS_9allocatorIcEEEE5ValueEENS_22__unordered_map_hasherIS7_S9_NS_4hashIS7_EENS_8equal_toIS7_EELb1EEENS_21__unordered_map_equalIS7_S9_SE_SC_Lb1EEENS5_IS9_EEE15max_load_factorB8ue170006Ev, symObjAddr: 0x18B4C, symBinAddr: 0x100019A20, symSize: 0x28 }
  - { offsetInCU: 0x411D0, offset: 0x411D0, size: 0x8, addend: 0x0, symName: __ZNSt3__112__hash_tableINS_17__hash_value_typeINS_12basic_stringIcNS_11char_traitsIcEENS_9allocatorIcEEEE5ValueEENS_22__unordered_map_hasherIS7_S9_NS_4hashIS7_EENS_8equal_toIS7_EELb1EEENS_21__unordered_map_equalIS7_S9_SE_SC_Lb1EEENS5_IS9_EEE15__rehash_uniqueB8ue170006Em, symObjAddr: 0x18B74, symBinAddr: 0x100019A48, symSize: 0x2C }
  - { offsetInCU: 0x41205, offset: 0x41205, size: 0x8, addend: 0x0, symName: __Z4ceilB8ue170006f, symObjAddr: 0x18BF0, symBinAddr: 0x100019AC4, symSize: 0x18 }
  - { offsetInCU: 0x41234, offset: 0x41234, size: 0x8, addend: 0x0, symName: __ZNSt3__116__hash_node_baseIPNS_11__hash_nodeINS_17__hash_value_typeINS_12basic_stringIcNS_11char_traitsIcEENS_9allocatorIcEEEE5ValueEEPvEEE5__ptrB8ue170006Ev, symObjAddr: 0x18C08, symBinAddr: 0x100019ADC, symSize: 0x24 }
  - { offsetInCU: 0x4125A, offset: 0x4125A, size: 0x8, addend: 0x0, symName: __ZNKSt3__110unique_ptrINS_11__hash_nodeINS_17__hash_value_typeINS_12basic_stringIcNS_11char_traitsIcEENS_9allocatorIcEEEE5ValueEEPvEENS_22__hash_node_destructorINS6_ISC_EEEEEptB8ue170006Ev, symObjAddr: 0x18C2C, symBinAddr: 0x100019B00, symSize: 0x28 }
  - { offsetInCU: 0x41280, offset: 0x41280, size: 0x8, addend: 0x0, symName: __ZNKSt3__110unique_ptrINS_11__hash_nodeINS_17__hash_value_typeINS_12basic_stringIcNS_11char_traitsIcEENS_9allocatorIcEEEE5ValueEEPvEENS_22__hash_node_destructorINS6_ISC_EEEEE3getB8ue170006Ev, symObjAddr: 0x18C54, symBinAddr: 0x100019B28, symSize: 0x28 }
  - { offsetInCU: 0x412A6, offset: 0x412A6, size: 0x8, addend: 0x0, symName: __ZNSt3__110unique_ptrINS_11__hash_nodeINS_17__hash_value_typeINS_12basic_stringIcNS_11char_traitsIcEENS_9allocatorIcEEEE5ValueEEPvEENS_22__hash_node_destructorINS6_ISC_EEEEE7releaseB8ue170006Ev, symObjAddr: 0x18C7C, symBinAddr: 0x100019B50, symSize: 0x44 }
  - { offsetInCU: 0x412DB, offset: 0x412DB, size: 0x8, addend: 0x0, symName: __ZNSt3__110unique_ptrINS_11__hash_nodeINS_17__hash_value_typeINS_12basic_stringIcNS_11char_traitsIcEENS_9allocatorIcEEEE5ValueEEPvEENS_22__hash_node_destructorINS6_ISC_EEEEED1B8ue170006Ev, symObjAddr: 0x18CC0, symBinAddr: 0x100019B94, symSize: 0x2C }
  - { offsetInCU: 0x41305, offset: 0x41305, size: 0x8, addend: 0x0, symName: __ZNSt3__115__hash_iteratorIPNS_11__hash_nodeINS_17__hash_value_typeINS_12basic_stringIcNS_11char_traitsIcEENS_9allocatorIcEEEE5ValueEEPvEEEC1B8ue170006EPNS_16__hash_node_baseISD_EE, symObjAddr: 0x18CEC, symBinAddr: 0x100019BC0, symSize: 0x34 }
  - { offsetInCU: 0x41343, offset: 0x41343, size: 0x8, addend: 0x0, symName: __ZNSt3__14pairINS_15__hash_iteratorIPNS_11__hash_nodeINS_17__hash_value_typeINS_12basic_stringIcNS_11char_traitsIcEENS_9allocatorIcEEEE5ValueEEPvEEEEbEC1B8ue170006ISF_RbLSC_0EEEOT_OT0_, symObjAddr: 0x18D20, symBinAddr: 0x100019BF4, symSize: 0x3C }
  - { offsetInCU: 0x413A1, offset: 0x413A1, size: 0x8, addend: 0x0, symName: __ZNSt3__117__compressed_pairImNS_22__unordered_map_hasherINS_12basic_stringIcNS_11char_traitsIcEENS_9allocatorIcEEEENS_17__hash_value_typeIS7_5ValueEENS_4hashIS7_EENS_8equal_toIS7_EELb1EEEE6secondB8ue170006Ev, symObjAddr: 0x18D5C, symBinAddr: 0x100019C30, symSize: 0x24 }
  - { offsetInCU: 0x413C7, offset: 0x413C7, size: 0x8, addend: 0x0, symName: __ZNSt3__122__compressed_pair_elemINS_22__unordered_map_hasherINS_12basic_stringIcNS_11char_traitsIcEENS_9allocatorIcEEEENS_17__hash_value_typeIS7_5ValueEENS_4hashIS7_EENS_8equal_toIS7_EELb1EEELi1ELb1EE5__getB8ue170006Ev, symObjAddr: 0x18D80, symBinAddr: 0x100019C54, symSize: 0x14 }
  - { offsetInCU: 0x413ED, offset: 0x413ED, size: 0x8, addend: 0x0, symName: __ZNKSt3__113__string_hashIcNS_9allocatorIcEEEclB8ue170006ERKNS_12basic_stringIcNS_11char_traitsIcEES2_EE, symObjAddr: 0x18D94, symBinAddr: 0x100019C68, symSize: 0x64 }
  - { offsetInCU: 0x41422, offset: 0x41422, size: 0x8, addend: 0x0, symName: __ZNKSt3__121__murmur2_or_cityhashImLm64EEclB8ue170006EPKvm, symObjAddr: 0x18E34, symBinAddr: 0x100019D08, symSize: 0x410 }
  - { offsetInCU: 0x414BC, offset: 0x414BC, size: 0x8, addend: 0x0, symName: __ZNSt3__121__murmur2_or_cityhashImLm64EE18__hash_len_0_to_16B8ue170006EPKcm, symObjAddr: 0x19244, symBinAddr: 0x10001A118, symSize: 0x1C0 }
  - { offsetInCU: 0x41595, offset: 0x41595, size: 0x8, addend: 0x0, symName: __ZNSt3__121__murmur2_or_cityhashImLm64EE19__hash_len_17_to_32B8ue170006EPKcm, symObjAddr: 0x19404, symBinAddr: 0x10001A2D8, symSize: 0x130 }
  - { offsetInCU: 0x415FE, offset: 0x415FE, size: 0x8, addend: 0x0, symName: __ZNSt3__121__murmur2_or_cityhashImLm64EE19__hash_len_33_to_64B8ue170006EPKcm, symObjAddr: 0x19534, symBinAddr: 0x10001A408, symSize: 0x2B8 }
  - { offsetInCU: 0x416B3, offset: 0x416B3, size: 0x8, addend: 0x0, symName: __ZNSt3__121__murmur2_or_cityhashImLm64EE13__hash_len_16B8ue170006Emm, symObjAddr: 0x1980C, symBinAddr: 0x10001A6E0, symSize: 0x80 }
  - { offsetInCU: 0x4170E, offset: 0x4170E, size: 0x8, addend: 0x0, symName: __ZNSt3__121__murmur2_or_cityhashImLm64EE29__weak_hash_len_32_with_seedsB8ue170006EPKcmm, symObjAddr: 0x1988C, symBinAddr: 0x10001A760, symSize: 0x88 }
  - { offsetInCU: 0x4174D, offset: 0x4174D, size: 0x8, addend: 0x0, symName: __ZNSt3__121__murmur2_or_cityhashImLm64EE8__rotateB8ue170006Emi, symObjAddr: 0x19914, symBinAddr: 0x10001A7E8, symSize: 0x64 }
  - { offsetInCU: 0x4177E, offset: 0x4177E, size: 0x8, addend: 0x0, symName: __ZNSt3__14pairImmEaSB8ue170006EOS1_, symObjAddr: 0x19978, symBinAddr: 0x10001A84C, symSize: 0x30 }
  - { offsetInCU: 0x417B3, offset: 0x417B3, size: 0x8, addend: 0x0, symName: __ZNSt3__121__murmur2_or_cityhashImLm64EE11__shift_mixB8ue170006Em, symObjAddr: 0x199E4, symBinAddr: 0x10001A8B8, symSize: 0x1C }
  - { offsetInCU: 0x417D6, offset: 0x417D6, size: 0x8, addend: 0x0, symName: __ZNSt3__121__murmur2_or_cityhashImLm64EE22__rotate_by_at_least_1B8ue170006Emi, symObjAddr: 0x19A00, symBinAddr: 0x10001A8D4, symSize: 0x38 }
  - { offsetInCU: 0x41807, offset: 0x41807, size: 0x8, addend: 0x0, symName: __ZNSt3__121__murmur2_or_cityhashImLm64EE29__weak_hash_len_32_with_seedsB8ue170006Emmmmmm, symObjAddr: 0x19A58, symBinAddr: 0x10001A92C, symSize: 0xD8 }
  - { offsetInCU: 0x41883, offset: 0x41883, size: 0x8, addend: 0x0, symName: __ZNSt3__14pairImmEC1B8ue170006ImmLPv0EEEOT_OT0_, symObjAddr: 0x19B30, symBinAddr: 0x10001AA04, symSize: 0x3C }
  - { offsetInCU: 0x418E1, offset: 0x418E1, size: 0x8, addend: 0x0, symName: __ZNSt3__14pairImmEC2B8ue170006ImmLPv0EEEOT_OT0_, symObjAddr: 0x19B6C, symBinAddr: 0x10001AA40, symSize: 0x34 }
  - { offsetInCU: 0x4193F, offset: 0x4193F, size: 0x8, addend: 0x0, symName: __ZNSt3__117__compressed_pairIfNS_21__unordered_map_equalINS_12basic_stringIcNS_11char_traitsIcEENS_9allocatorIcEEEENS_17__hash_value_typeIS7_5ValueEENS_8equal_toIS7_EENS_4hashIS7_EELb1EEEE6secondB8ue170006Ev, symObjAddr: 0x19BA0, symBinAddr: 0x10001AA74, symSize: 0x24 }
  - { offsetInCU: 0x41965, offset: 0x41965, size: 0x8, addend: 0x0, symName: __ZNSt3__122__compressed_pair_elemINS_21__unordered_map_equalINS_12basic_stringIcNS_11char_traitsIcEENS_9allocatorIcEEEENS_17__hash_value_typeIS7_5ValueEENS_8equal_toIS7_EENS_4hashIS7_EELb1EEELi1ELb1EE5__getB8ue170006Ev, symObjAddr: 0x19BC4, symBinAddr: 0x10001AA98, symSize: 0x14 }
  - { offsetInCU: 0x4198B, offset: 0x4198B, size: 0x8, addend: 0x0, symName: __ZNKSt3__18equal_toINS_12basic_stringIcNS_11char_traitsIcEENS_9allocatorIcEEEEEclB8ue170006ERKS6_S9_, symObjAddr: 0x19BD8, symBinAddr: 0x10001AAAC, symSize: 0x34 }
  - { offsetInCU: 0x419CF, offset: 0x419CF, size: 0x8, addend: 0x0, symName: __ZNKSt3__117__hash_value_typeINS_12basic_stringIcNS_11char_traitsIcEENS_9allocatorIcEEEE5ValueE11__get_valueB8ue170006Ev, symObjAddr: 0x19C0C, symBinAddr: 0x10001AAE0, symSize: 0x24 }
  - { offsetInCU: 0x419F5, offset: 0x419F5, size: 0x8, addend: 0x0, symName: __ZNSt3__116allocator_traitsINS_9allocatorINS_11__hash_nodeINS_17__hash_value_typeINS_12basic_stringIcNS_11char_traitsIcEENS1_IcEEEE5ValueEEPvEEEEE8allocateB8ue170006ERSD_m, symObjAddr: 0x19C68, symBinAddr: 0x10001AB3C, symSize: 0x2C }
  - { offsetInCU: 0x41A28, offset: 0x41A28, size: 0x8, addend: 0x0, symName: __ZNSt3__122__hash_node_destructorINS_9allocatorINS_11__hash_nodeINS_17__hash_value_typeINS_12basic_stringIcNS_11char_traitsIcEENS1_IcEEEE5ValueEEPvEEEEEC1B8ue170006ERSD_b, symObjAddr: 0x19C94, symBinAddr: 0x10001AB68, symSize: 0x48 }
  - { offsetInCU: 0x41A75, offset: 0x41A75, size: 0x8, addend: 0x0, symName: __ZNSt3__110unique_ptrINS_11__hash_nodeINS_17__hash_value_typeINS_12basic_stringIcNS_11char_traitsIcEENS_9allocatorIcEEEE5ValueEEPvEENS_22__hash_node_destructorINS6_ISC_EEEEEC1B8ue170006ILb1EvEEPSC_NS_16__dependent_typeINS_27__unique_ptr_deleter_sfinaeISF_EEXT_EE20__good_rval_ref_typeE, symObjAddr: 0x19CDC, symBinAddr: 0x10001ABB0, symSize: 0x3C }
  - { offsetInCU: 0x41AC6, offset: 0x41AC6, size: 0x8, addend: 0x0, symName: __ZNSt3__116allocator_traitsINS_9allocatorINS_11__hash_nodeINS_17__hash_value_typeINS_12basic_stringIcNS_11char_traitsIcEENS1_IcEEEE5ValueEEPvEEEEE9constructB8ue170006INS_4pairIKS8_S9_EEJRKNS_21piecewise_construct_tENS_5tupleIJOS8_EEENSM_IJEEEEvvEEvRSD_PT_DpOT0_, symObjAddr: 0x19D18, symBinAddr: 0x10001ABEC, symSize: 0x40 }
  - { offsetInCU: 0x41B43, offset: 0x41B43, size: 0x8, addend: 0x0, symName: __ZNSt3__110unique_ptrINS_11__hash_nodeINS_17__hash_value_typeINS_12basic_stringIcNS_11char_traitsIcEENS_9allocatorIcEEEE5ValueEEPvEENS_22__hash_node_destructorINS6_ISC_EEEEE11get_deleterB8ue170006Ev, symObjAddr: 0x19D58, symBinAddr: 0x10001AC2C, symSize: 0x24 }
  - { offsetInCU: 0x41B69, offset: 0x41B69, size: 0x8, addend: 0x0, symName: __ZNSt3__19allocatorINS_11__hash_nodeINS_17__hash_value_typeINS_12basic_stringIcNS_11char_traitsIcEENS0_IcEEEE5ValueEEPvEEE8allocateB8ue170006Em, symObjAddr: 0x19D7C, symBinAddr: 0x10001AC50, symSize: 0x5C }
  - { offsetInCU: 0x41BA7, offset: 0x41BA7, size: 0x8, addend: 0x0, symName: __ZNSt3__116allocator_traitsINS_9allocatorINS_11__hash_nodeINS_17__hash_value_typeINS_12basic_stringIcNS_11char_traitsIcEENS1_IcEEEE5ValueEEPvEEEEE8max_sizeB8ue170006ISD_vvEEmRKSD_, symObjAddr: 0x19DD8, symBinAddr: 0x10001ACAC, symSize: 0x28 }
  - { offsetInCU: 0x41BD3, offset: 0x41BD3, size: 0x8, addend: 0x0, symName: __ZNSt3__122__hash_node_destructorINS_9allocatorINS_11__hash_nodeINS_17__hash_value_typeINS_12basic_stringIcNS_11char_traitsIcEENS1_IcEEEE5ValueEEPvEEEEEC2B8ue170006ERSD_b, symObjAddr: 0x19E00, symBinAddr: 0x10001ACD4, symSize: 0x38 }
  - { offsetInCU: 0x41C1B, offset: 0x41C1B, size: 0x8, addend: 0x0, symName: __ZNSt3__110unique_ptrINS_11__hash_nodeINS_17__hash_value_typeINS_12basic_stringIcNS_11char_traitsIcEENS_9allocatorIcEEEE5ValueEEPvEENS_22__hash_node_destructorINS6_ISC_EEEEEC2B8ue170006ILb1EvEEPSC_NS_16__dependent_typeINS_27__unique_ptr_deleter_sfinaeISF_EEXT_EE20__good_rval_ref_typeE, symObjAddr: 0x19E38, symBinAddr: 0x10001AD0C, symSize: 0x48 }
  - { offsetInCU: 0x41C6C, offset: 0x41C6C, size: 0x8, addend: 0x0, symName: __ZNSt3__117__compressed_pairIPNS_11__hash_nodeINS_17__hash_value_typeINS_12basic_stringIcNS_11char_traitsIcEENS_9allocatorIcEEEE5ValueEEPvEENS_22__hash_node_destructorINS6_ISC_EEEEEC1B8ue170006IRSD_SG_EEOT_OT0_, symObjAddr: 0x19E80, symBinAddr: 0x10001AD54, symSize: 0x3C }
  - { offsetInCU: 0x41CC4, offset: 0x41CC4, size: 0x8, addend: 0x0, symName: __ZNSt3__117__compressed_pairIPNS_11__hash_nodeINS_17__hash_value_typeINS_12basic_stringIcNS_11char_traitsIcEENS_9allocatorIcEEEE5ValueEEPvEENS_22__hash_node_destructorINS6_ISC_EEEEEC2B8ue170006IRSD_SG_EEOT_OT0_, symObjAddr: 0x19EBC, symBinAddr: 0x10001AD90, symSize: 0x48 }
  - { offsetInCU: 0x41D1C, offset: 0x41D1C, size: 0x8, addend: 0x0, symName: __ZNSt3__122__compressed_pair_elemIPNS_11__hash_nodeINS_17__hash_value_typeINS_12basic_stringIcNS_11char_traitsIcEENS_9allocatorIcEEEE5ValueEEPvEELi0ELb0EEC2B8ue170006IRSD_vEEOT_, symObjAddr: 0x19F04, symBinAddr: 0x10001ADD8, symSize: 0x24 }
  - { offsetInCU: 0x41D5E, offset: 0x41D5E, size: 0x8, addend: 0x0, symName: __ZNSt3__122__compressed_pair_elemINS_22__hash_node_destructorINS_9allocatorINS_11__hash_nodeINS_17__hash_value_typeINS_12basic_stringIcNS_11char_traitsIcEENS2_IcEEEE5ValueEEPvEEEEEELi1ELb0EEC2B8ue170006ISF_vEEOT_, symObjAddr: 0x19F28, symBinAddr: 0x10001ADFC, symSize: 0x24 }
  - { offsetInCU: 0x41DA0, offset: 0x41DA0, size: 0x8, addend: 0x0, symName: __ZNSt3__14pairIKNS_12basic_stringIcNS_11char_traitsIcEENS_9allocatorIcEEEE5ValueEC1B8ue170006IJOS6_EJEEENS_21piecewise_construct_tENS_5tupleIJDpT_EEENSD_IJDpT0_EEE, symObjAddr: 0x19F9C, symBinAddr: 0x10001AE70, symSize: 0x3C }
  - { offsetInCU: 0x41E07, offset: 0x41E07, size: 0x8, addend: 0x0, symName: __ZNSt3__14pairIKNS_12basic_stringIcNS_11char_traitsIcEENS_9allocatorIcEEEE5ValueEC1B8ue170006IJOS6_EJEJLm0EEJEEENS_21piecewise_construct_tERNS_5tupleIJDpT_EEERNSD_IJDpT0_EEENS_15__tuple_indicesIJXspT1_EEEENSM_IJXspT2_EEEE, symObjAddr: 0x19FD8, symBinAddr: 0x10001AEAC, symSize: 0x3C }
  - { offsetInCU: 0x41E97, offset: 0x41E97, size: 0x8, addend: 0x0, symName: __ZNSt3__14pairIKNS_12basic_stringIcNS_11char_traitsIcEENS_9allocatorIcEEEE5ValueEC2B8ue170006IJOS6_EJEJLm0EEJEEENS_21piecewise_construct_tERNS_5tupleIJDpT_EEERNSD_IJDpT0_EEENS_15__tuple_indicesIJXspT1_EEEENSM_IJXspT2_EEEE, symObjAddr: 0x1A014, symBinAddr: 0x10001AEE8, symSize: 0x78 }
  - { offsetInCU: 0x41F27, offset: 0x41F27, size: 0x8, addend: 0x0, symName: __ZNSt3__112__tuple_leafILm0EONS_12basic_stringIcNS_11char_traitsIcEENS_9allocatorIcEEEELb0EE3getB8ue170006Ev, symObjAddr: 0x1A0B0, symBinAddr: 0x10001AF84, symSize: 0x18 }
  - { offsetInCU: 0x41F4D, offset: 0x41F4D, size: 0x8, addend: 0x0, symName: __ZNSt3__117__compressed_pairIPNS_11__hash_nodeINS_17__hash_value_typeINS_12basic_stringIcNS_11char_traitsIcEENS_9allocatorIcEEEE5ValueEEPvEENS_22__hash_node_destructorINS6_ISC_EEEEE6secondB8ue170006Ev, symObjAddr: 0x1A0C8, symBinAddr: 0x10001AF9C, symSize: 0x28 }
  - { offsetInCU: 0x41F73, offset: 0x41F73, size: 0x8, addend: 0x0, symName: __ZNSt3__122__compressed_pair_elemINS_22__hash_node_destructorINS_9allocatorINS_11__hash_nodeINS_17__hash_value_typeINS_12basic_stringIcNS_11char_traitsIcEENS2_IcEEEE5ValueEEPvEEEEEELi1ELb0EE5__getB8ue170006Ev, symObjAddr: 0x1A0F0, symBinAddr: 0x10001AFC4, symSize: 0x14 }
  - { offsetInCU: 0x41F99, offset: 0x41F99, size: 0x8, addend: 0x0, symName: __ZNSt3__117__compressed_pairIfNS_21__unordered_map_equalINS_12basic_stringIcNS_11char_traitsIcEENS_9allocatorIcEEEENS_17__hash_value_typeIS7_5ValueEENS_8equal_toIS7_EENS_4hashIS7_EELb1EEEE5firstB8ue170006Ev, symObjAddr: 0x1A104, symBinAddr: 0x10001AFD8, symSize: 0x24 }
  - { offsetInCU: 0x41FBF, offset: 0x41FBF, size: 0x8, addend: 0x0, symName: __ZNSt3__122__compressed_pair_elemIfLi0ELb0EE5__getB8ue170006Ev, symObjAddr: 0x1A128, symBinAddr: 0x10001AFFC, symSize: 0x14 }
  - { offsetInCU: 0x41FE5, offset: 0x41FE5, size: 0x8, addend: 0x0, symName: __ZNSt3__112__hash_tableINS_17__hash_value_typeINS_12basic_stringIcNS_11char_traitsIcEENS_9allocatorIcEEEE5ValueEENS_22__unordered_map_hasherIS7_S9_NS_4hashIS7_EENS_8equal_toIS7_EELb1EEENS_21__unordered_map_equalIS7_S9_SE_SC_Lb1EEENS5_IS9_EEE8__rehashILb1EEEvm, symObjAddr: 0x1A13C, symBinAddr: 0x10001B010, symSize: 0x1A8 }
  - { offsetInCU: 0x42035, offset: 0x42035, size: 0x8, addend: 0x0, symName: __ZNSt3__112__hash_tableINS_17__hash_value_typeINS_12basic_stringIcNS_11char_traitsIcEENS_9allocatorIcEEEE5ValueEENS_22__unordered_map_hasherIS7_S9_NS_4hashIS7_EENS_8equal_toIS7_EELb1EEENS_21__unordered_map_equalIS7_S9_SE_SC_Lb1EEENS5_IS9_EEE11__do_rehashILb1EEEvm, symObjAddr: 0x1A2E4, symBinAddr: 0x10001B1B8, symSize: 0x288 }
  - { offsetInCU: 0x42118, offset: 0x42118, size: 0x8, addend: 0x0, symName: __ZNSt3__110unique_ptrIA_PNS_16__hash_node_baseIPNS_11__hash_nodeINS_17__hash_value_typeINS_12basic_stringIcNS_11char_traitsIcEENS_9allocatorIcEEEE5ValueEEPvEEEENS_25__bucket_list_deallocatorINS7_ISG_EEEEE11get_deleterB8ue170006Ev, symObjAddr: 0x1A5D8, symBinAddr: 0x10001B4AC, symSize: 0x24 }
  - { offsetInCU: 0x4213E, offset: 0x4213E, size: 0x8, addend: 0x0, symName: __ZNSt3__110unique_ptrIA_PNS_16__hash_node_baseIPNS_11__hash_nodeINS_17__hash_value_typeINS_12basic_stringIcNS_11char_traitsIcEENS_9allocatorIcEEEE5ValueEEPvEEEENS_25__bucket_list_deallocatorINS7_ISG_EEEEE5resetB8ue170006IPSG_EENS_9enable_ifIXsr28_CheckArrayPointerConversionIT_EE5valueEvE4typeESP_, symObjAddr: 0x1A5FC, symBinAddr: 0x10001B4D0, symSize: 0x78 }
  - { offsetInCU: 0x4218B, offset: 0x4218B, size: 0x8, addend: 0x0, symName: __ZNSt3__116allocator_traitsINS_9allocatorIPNS_16__hash_node_baseIPNS_11__hash_nodeINS_17__hash_value_typeINS_12basic_stringIcNS_11char_traitsIcEENS1_IcEEEE5ValueEEPvEEEEEEE8allocateB8ue170006ERSH_m, symObjAddr: 0x1A674, symBinAddr: 0x10001B548, symSize: 0x2C }
  - { offsetInCU: 0x421BE, offset: 0x421BE, size: 0x8, addend: 0x0, symName: __ZNSt3__19allocatorIPNS_16__hash_node_baseIPNS_11__hash_nodeINS_17__hash_value_typeINS_12basic_stringIcNS_11char_traitsIcEENS0_IcEEEE5ValueEEPvEEEEE8allocateB8ue170006Em, symObjAddr: 0x1A6A0, symBinAddr: 0x10001B574, symSize: 0x58 }
  - { offsetInCU: 0x421FC, offset: 0x421FC, size: 0x8, addend: 0x0, symName: __ZNSt3__116allocator_traitsINS_9allocatorIPNS_16__hash_node_baseIPNS_11__hash_nodeINS_17__hash_value_typeINS_12basic_stringIcNS_11char_traitsIcEENS1_IcEEEE5ValueEEPvEEEEEEE8max_sizeB8ue170006ISH_vvEEmRKSH_, symObjAddr: 0x1A6F8, symBinAddr: 0x10001B5CC, symSize: 0x28 }
  - { offsetInCU: 0x42228, offset: 0x42228, size: 0x8, addend: 0x0, symName: __ZNKSt3__117__compressed_pairIPNS_11__hash_nodeINS_17__hash_value_typeINS_12basic_stringIcNS_11char_traitsIcEENS_9allocatorIcEEEE5ValueEEPvEENS_22__hash_node_destructorINS6_ISC_EEEEE5firstB8ue170006Ev, symObjAddr: 0x1A73C, symBinAddr: 0x10001B610, symSize: 0x24 }
  - { offsetInCU: 0x4224E, offset: 0x4224E, size: 0x8, addend: 0x0, symName: __ZNKSt3__122__compressed_pair_elemIPNS_11__hash_nodeINS_17__hash_value_typeINS_12basic_stringIcNS_11char_traitsIcEENS_9allocatorIcEEEE5ValueEEPvEELi0ELb0EE5__getB8ue170006Ev, symObjAddr: 0x1A760, symBinAddr: 0x10001B634, symSize: 0x14 }
  - { offsetInCU: 0x42274, offset: 0x42274, size: 0x8, addend: 0x0, symName: __ZNSt3__117__compressed_pairIPNS_11__hash_nodeINS_17__hash_value_typeINS_12basic_stringIcNS_11char_traitsIcEENS_9allocatorIcEEEE5ValueEEPvEENS_22__hash_node_destructorINS6_ISC_EEEEE5firstB8ue170006Ev, symObjAddr: 0x1A774, symBinAddr: 0x10001B648, symSize: 0x24 }
  - { offsetInCU: 0x4229A, offset: 0x4229A, size: 0x8, addend: 0x0, symName: __ZNSt3__122__compressed_pair_elemIPNS_11__hash_nodeINS_17__hash_value_typeINS_12basic_stringIcNS_11char_traitsIcEENS_9allocatorIcEEEE5ValueEEPvEELi0ELb0EE5__getB8ue170006Ev, symObjAddr: 0x1A798, symBinAddr: 0x10001B66C, symSize: 0x14 }
  - { offsetInCU: 0x422C0, offset: 0x422C0, size: 0x8, addend: 0x0, symName: __ZNSt3__110unique_ptrINS_11__hash_nodeINS_17__hash_value_typeINS_12basic_stringIcNS_11char_traitsIcEENS_9allocatorIcEEEE5ValueEEPvEENS_22__hash_node_destructorINS6_ISC_EEEEED2B8ue170006Ev, symObjAddr: 0x1A7AC, symBinAddr: 0x10001B680, symSize: 0x30 }
  - { offsetInCU: 0x422EA, offset: 0x422EA, size: 0x8, addend: 0x0, symName: __ZNSt3__110unique_ptrINS_11__hash_nodeINS_17__hash_value_typeINS_12basic_stringIcNS_11char_traitsIcEENS_9allocatorIcEEEE5ValueEEPvEENS_22__hash_node_destructorINS6_ISC_EEEEE5resetB8ue170006EPSC_, symObjAddr: 0x1A7DC, symBinAddr: 0x10001B6B0, symSize: 0x78 }
  - { offsetInCU: 0x4232E, offset: 0x4232E, size: 0x8, addend: 0x0, symName: __ZNSt3__122__hash_node_destructorINS_9allocatorINS_11__hash_nodeINS_17__hash_value_typeINS_12basic_stringIcNS_11char_traitsIcEENS1_IcEEEE5ValueEEPvEEEEEclB8ue170006EPSC_, symObjAddr: 0x1A854, symBinAddr: 0x10001B728, symSize: 0x98 }
  - { offsetInCU: 0x42363, offset: 0x42363, size: 0x8, addend: 0x0, symName: __ZNSt3__115__hash_iteratorIPNS_11__hash_nodeINS_17__hash_value_typeINS_12basic_stringIcNS_11char_traitsIcEENS_9allocatorIcEEEE5ValueEEPvEEEC2B8ue170006EPNS_16__hash_node_baseISD_EE, symObjAddr: 0x1A8EC, symBinAddr: 0x10001B7C0, symSize: 0x20 }
  - { offsetInCU: 0x4239C, offset: 0x4239C, size: 0x8, addend: 0x0, symName: __ZNSt3__14pairINS_15__hash_iteratorIPNS_11__hash_nodeINS_17__hash_value_typeINS_12basic_stringIcNS_11char_traitsIcEENS_9allocatorIcEEEE5ValueEEPvEEEEbEC2B8ue170006ISF_RbLSC_0EEEOT_OT0_, symObjAddr: 0x1A90C, symBinAddr: 0x10001B7E0, symSize: 0x38 }
  - { offsetInCU: 0x423FA, offset: 0x423FA, size: 0x8, addend: 0x0, symName: __ZNSt3__15tupleIJONS_12basic_stringIcNS_11char_traitsIcEENS_9allocatorIcEEEEEEC1B8ue170006IJS6_ELi0EEEDpOT_, symObjAddr: 0x1A944, symBinAddr: 0x10001B818, symSize: 0x34 }
  - { offsetInCU: 0x42444, offset: 0x42444, size: 0x8, addend: 0x0, symName: __ZNSt3__15tupleIJONS_12basic_stringIcNS_11char_traitsIcEENS_9allocatorIcEEEEEEC2B8ue170006IJS6_ELi0EEEDpOT_, symObjAddr: 0x1A978, symBinAddr: 0x10001B84C, symSize: 0x34 }
  - { offsetInCU: 0x4248E, offset: 0x4248E, size: 0x8, addend: 0x0, symName: __ZNSt3__112__tuple_implINS_15__tuple_indicesIJLm0EEEEJONS_12basic_stringIcNS_11char_traitsIcEENS_9allocatorIcEEEEEEC1B8ue170006IJLm0EEJS9_EJEJEJS8_EEENS1_IJXspT_EEEENS_13__tuple_typesIJDpT0_EEENS1_IJXspT1_EEEENSD_IJDpT2_EEEDpOT3_, symObjAddr: 0x1A9AC, symBinAddr: 0x10001B880, symSize: 0x34 }
  - { offsetInCU: 0x42523, offset: 0x42523, size: 0x8, addend: 0x0, symName: __ZNSt3__112__tuple_implINS_15__tuple_indicesIJLm0EEEEJONS_12basic_stringIcNS_11char_traitsIcEENS_9allocatorIcEEEEEEC2B8ue170006IJLm0EEJS9_EJEJEJS8_EEENS1_IJXspT_EEEENS_13__tuple_typesIJDpT0_EEENS1_IJXspT1_EEEENSD_IJDpT2_EEEDpOT3_, symObjAddr: 0x1A9E0, symBinAddr: 0x10001B8B4, symSize: 0x34 }
  - { offsetInCU: 0x425B8, offset: 0x425B8, size: 0x8, addend: 0x0, symName: __ZNSt3__112__tuple_leafILm0EONS_12basic_stringIcNS_11char_traitsIcEENS_9allocatorIcEEEELb0EEC2B8ue170006IS6_vEEOT_, symObjAddr: 0x1AA14, symBinAddr: 0x10001B8E8, symSize: 0x20 }
  - { offsetInCU: 0x425FB, offset: 0x425FB, size: 0x8, addend: 0x0, symName: __ZNSt3__114pointer_traitsIPNS_17__hash_value_typeINS_12basic_stringIcNS_11char_traitsIcEENS_9allocatorIcEEEE5ValueEEE10pointer_toB8ue170006ERS9_, symObjAddr: 0x1AA34, symBinAddr: 0x10001B908, symSize: 0x14 }
  - { offsetInCU: 0x4261E, offset: 0x4261E, size: 0x8, addend: 0x0, symName: '__ZNSt3__18functionIF5ValueRKNS_6vectorIS1_NS_9allocatorIS1_EEEEEEC2IZ17setup_environmentvE3$_0vEET_', symObjAddr: 0x1AA48, symBinAddr: 0x10001B91C, symSize: 0x30 }
  - { offsetInCU: 0x42663, offset: 0x42663, size: 0x8, addend: 0x0, symName: '__ZNSt3__110__function12__value_funcIF5ValueRKNS_6vectorIS2_NS_9allocatorIS2_EEEEEEC1B8ue170006IZ17setup_environmentvE3$_0vEEOT_', symObjAddr: 0x1AA78, symBinAddr: 0x10001B94C, symSize: 0x50 }
  - { offsetInCU: 0x426A6, offset: 0x426A6, size: 0x8, addend: 0x0, symName: '__ZNSt3__19allocatorIZ17setup_environmentvE3$_0EC1B8ue170006Ev', symObjAddr: 0x1AAC8, symBinAddr: 0x10001B99C, symSize: 0x2C }
  - { offsetInCU: 0x426D0, offset: 0x426D0, size: 0x8, addend: 0x0, symName: '__ZNSt3__110__function12__value_funcIF5ValueRKNS_6vectorIS2_NS_9allocatorIS2_EEEEEEC1B8ue170006IZ17setup_environmentvE3$_0NS4_ISC_EEEEOT_RKT0_', symObjAddr: 0x1AAF4, symBinAddr: 0x10001B9C8, symSize: 0x3C }
  - { offsetInCU: 0x4272A, offset: 0x4272A, size: 0x8, addend: 0x0, symName: '__ZNSt3__19allocatorIZ17setup_environmentvE3$_0EC2B8ue170006Ev', symObjAddr: 0x1AB30, symBinAddr: 0x10001BA04, symSize: 0x2C }
  - { offsetInCU: 0x42754, offset: 0x42754, size: 0x8, addend: 0x0, symName: '__ZNSt3__116__non_trivial_ifILb1ENS_9allocatorIZ17setup_environmentvE3$_0EEEC2B8ue170006Ev', symObjAddr: 0x1AB5C, symBinAddr: 0x10001BA30, symSize: 0x14 }
  - { offsetInCU: 0x4277E, offset: 0x4277E, size: 0x8, addend: 0x0, symName: '__ZNSt3__110__function12__value_funcIF5ValueRKNS_6vectorIS2_NS_9allocatorIS2_EEEEEEC2B8ue170006IZ17setup_environmentvE3$_0NS4_ISC_EEEEOT_RKT0_', symObjAddr: 0x1AB70, symBinAddr: 0x10001BA44, symSize: 0x94 }
  - { offsetInCU: 0x4280B, offset: 0x4280B, size: 0x8, addend: 0x0, symName: '__ZNSt3__19allocatorINS_10__function6__funcIZ17setup_environmentvE3$_0NS0_IS3_EEF5ValueRKNS_6vectorIS5_NS0_IS5_EEEEEEEEC1B8ue170006IS3_EERKNS0_IT_EE', symObjAddr: 0x1AC1C, symBinAddr: 0x10001BAF0, symSize: 0x34 }
  - { offsetInCU: 0x42852, offset: 0x42852, size: 0x8, addend: 0x0, symName: '__ZNSt3__19allocatorIZ17setup_environmentvE3$_0EC1B8ue170006INS_10__function6__funcIS1_S2_F5ValueRKNS_6vectorIS6_NS0_IS6_EEEEEEEEERKNS0_IT_EE', symObjAddr: 0x1AC50, symBinAddr: 0x10001BB24, symSize: 0x34 }
  - { offsetInCU: 0x4288F, offset: 0x4288F, size: 0x8, addend: 0x0, symName: '__ZNSt3__110__function6__funcIZ17setup_environmentvE3$_0NS_9allocatorIS2_EEF5ValueRKNS_6vectorIS5_NS3_IS5_EEEEEEC1B8ue170006EOS2_OS4_', symObjAddr: 0x1AC84, symBinAddr: 0x10001BB58, symSize: 0x3C }
  - { offsetInCU: 0x428D7, offset: 0x428D7, size: 0x8, addend: 0x0, symName: '__ZNSt3__19allocatorINS_10__function6__funcIZ17setup_environmentvE3$_0NS0_IS3_EEF5ValueRKNS_6vectorIS5_NS0_IS5_EEEEEEEEC2B8ue170006IS3_EERKNS0_IT_EE', symObjAddr: 0x1ACC0, symBinAddr: 0x10001BB94, symSize: 0x30 }
  - { offsetInCU: 0x42914, offset: 0x42914, size: 0x8, addend: 0x0, symName: '__ZNSt3__116__non_trivial_ifILb1ENS_9allocatorINS_10__function6__funcIZ17setup_environmentvE3$_0NS1_IS4_EEF5ValueRKNS_6vectorIS6_NS1_IS6_EEEEEEEEEEC2B8ue170006Ev', symObjAddr: 0x1ACF0, symBinAddr: 0x10001BBC4, symSize: 0x14 }
  - { offsetInCU: 0x4293E, offset: 0x4293E, size: 0x8, addend: 0x0, symName: '__ZNSt3__19allocatorIZ17setup_environmentvE3$_0EC2B8ue170006INS_10__function6__funcIS1_S2_F5ValueRKNS_6vectorIS6_NS0_IS6_EEEEEEEEERKNS0_IT_EE', symObjAddr: 0x1AD04, symBinAddr: 0x10001BBD8, symSize: 0x30 }
  - { offsetInCU: 0x4297B, offset: 0x4297B, size: 0x8, addend: 0x0, symName: '__ZNSt3__110__function6__funcIZ17setup_environmentvE3$_0NS_9allocatorIS2_EEF5ValueRKNS_6vectorIS5_NS3_IS5_EEEEEEC2B8ue170006EOS2_OS4_', symObjAddr: 0x1AD34, symBinAddr: 0x10001BC08, symSize: 0x88 }
  - { offsetInCU: 0x429C3, offset: 0x429C3, size: 0x8, addend: 0x0, symName: __ZNSt3__110__function6__baseIF5ValueRKNS_6vectorIS2_NS_9allocatorIS2_EEEEEEC2B8ue170006Ev, symObjAddr: 0x1ADBC, symBinAddr: 0x10001BC90, symSize: 0x24 }
  - { offsetInCU: 0x429ED, offset: 0x429ED, size: 0x8, addend: 0x0, symName: '__ZNSt3__110__function12__alloc_funcIZ17setup_environmentvE3$_0NS_9allocatorIS2_EEF5ValueRKNS_6vectorIS5_NS3_IS5_EEEEEEC1B8ue170006EOS2_OS4_', symObjAddr: 0x1ADE0, symBinAddr: 0x10001BCB4, symSize: 0x3C }
  - { offsetInCU: 0x42A33, offset: 0x42A33, size: 0x8, addend: 0x0, symName: __ZNSt3__110__function6__baseIF5ValueRKNS_6vectorIS2_NS_9allocatorIS2_EEEEEED2Ev, symObjAddr: 0x1AE1C, symBinAddr: 0x10001BCF0, symSize: 0x14 }
  - { offsetInCU: 0x42A5D, offset: 0x42A5D, size: 0x8, addend: 0x0, symName: '__ZNSt3__110__function6__funcIZ17setup_environmentvE3$_0NS_9allocatorIS2_EEF5ValueRKNS_6vectorIS5_NS3_IS5_EEEEEED1Ev', symObjAddr: 0x1AE30, symBinAddr: 0x10001BD04, symSize: 0x2C }
  - { offsetInCU: 0x42A8A, offset: 0x42A8A, size: 0x8, addend: 0x0, symName: '__ZNSt3__110__function6__funcIZ17setup_environmentvE3$_0NS_9allocatorIS2_EEF5ValueRKNS_6vectorIS5_NS3_IS5_EEEEEED0Ev', symObjAddr: 0x1AE5C, symBinAddr: 0x10001BD30, symSize: 0x30 }
  - { offsetInCU: 0x42AB7, offset: 0x42AB7, size: 0x8, addend: 0x0, symName: '__ZNKSt3__110__function6__funcIZ17setup_environmentvE3$_0NS_9allocatorIS2_EEF5ValueRKNS_6vectorIS5_NS3_IS5_EEEEEE7__cloneEv', symObjAddr: 0x1AE8C, symBinAddr: 0x10001BD60, symSize: 0xFC }
  - { offsetInCU: 0x42B09, offset: 0x42B09, size: 0x8, addend: 0x0, symName: '__ZNKSt3__110__function6__funcIZ17setup_environmentvE3$_0NS_9allocatorIS2_EEF5ValueRKNS_6vectorIS5_NS3_IS5_EEEEEE7__cloneEPNS0_6__baseISB_EE', symObjAddr: 0x1AF88, symBinAddr: 0x10001BE5C, symSize: 0x58 }
  - { offsetInCU: 0x42B40, offset: 0x42B40, size: 0x8, addend: 0x0, symName: '__ZNSt3__110__function6__funcIZ17setup_environmentvE3$_0NS_9allocatorIS2_EEF5ValueRKNS_6vectorIS5_NS3_IS5_EEEEEE7destroyEv', symObjAddr: 0x1AFE0, symBinAddr: 0x10001BEB4, symSize: 0x28 }
  - { offsetInCU: 0x42B68, offset: 0x42B68, size: 0x8, addend: 0x0, symName: '__ZNSt3__110__function6__funcIZ17setup_environmentvE3$_0NS_9allocatorIS2_EEF5ValueRKNS_6vectorIS5_NS3_IS5_EEEEEE18destroy_deallocateEv', symObjAddr: 0x1B008, symBinAddr: 0x10001BEDC, symSize: 0x58 }
  - { offsetInCU: 0x42BAB, offset: 0x42BAB, size: 0x8, addend: 0x0, symName: '__ZNSt3__110__function6__funcIZ17setup_environmentvE3$_0NS_9allocatorIS2_EEF5ValueRKNS_6vectorIS5_NS3_IS5_EEEEEEclESA_', symObjAddr: 0x1B060, symBinAddr: 0x10001BF34, symSize: 0x38 }
  - { offsetInCU: 0x42BE2, offset: 0x42BE2, size: 0x8, addend: 0x0, symName: '__ZNKSt3__110__function6__funcIZ17setup_environmentvE3$_0NS_9allocatorIS2_EEF5ValueRKNS_6vectorIS5_NS3_IS5_EEEEEE6targetERKSt9type_info', symObjAddr: 0x1B098, symBinAddr: 0x10001BF6C, symSize: 0x60 }
  - { offsetInCU: 0x42C19, offset: 0x42C19, size: 0x8, addend: 0x0, symName: '__ZNKSt3__110__function6__funcIZ17setup_environmentvE3$_0NS_9allocatorIS2_EEF5ValueRKNS_6vectorIS5_NS3_IS5_EEEEEE11target_typeEv', symObjAddr: 0x1B0F8, symBinAddr: 0x10001BFCC, symSize: 0x18 }
  - { offsetInCU: 0x42C41, offset: 0x42C41, size: 0x8, addend: 0x0, symName: __ZNSt3__110__function6__baseIF5ValueRKNS_6vectorIS2_NS_9allocatorIS2_EEEEEED1Ev, symObjAddr: 0x1B110, symBinAddr: 0x10001BFE4, symSize: 0x14 }
  - { offsetInCU: 0x42C6B, offset: 0x42C6B, size: 0x8, addend: 0x0, symName: __ZNSt3__110__function6__baseIF5ValueRKNS_6vectorIS2_NS_9allocatorIS2_EEEEEED0Ev, symObjAddr: 0x1B124, symBinAddr: 0x10001BFF8, symSize: 0xC }
  - { offsetInCU: 0x42C95, offset: 0x42C95, size: 0x8, addend: 0x0, symName: '__ZNSt3__110__function12__alloc_funcIZ17setup_environmentvE3$_0NS_9allocatorIS2_EEF5ValueRKNS_6vectorIS5_NS3_IS5_EEEEEEC2B8ue170006EOS2_OS4_', symObjAddr: 0x1B130, symBinAddr: 0x10001C004, symSize: 0x5C }
  - { offsetInCU: 0x42CDB, offset: 0x42CDB, size: 0x8, addend: 0x0, symName: '__ZNSt3__117__compressed_pairIZ17setup_environmentvE3$_0NS_9allocatorIS1_EEEC1B8ue170006IJOS1_EJOS3_EEENS_21piecewise_construct_tENS_5tupleIJDpT_EEENS9_IJDpT0_EEE', symObjAddr: 0x1B1E4, symBinAddr: 0x10001C0B8, symSize: 0x3C }
  - { offsetInCU: 0x42D45, offset: 0x42D45, size: 0x8, addend: 0x0, symName: '__ZNSt3__15tupleIJOZ17setup_environmentvE3$_0EEC1B8ue170006IJS1_ELi0EEEDpOT_', symObjAddr: 0x1B220, symBinAddr: 0x10001C0F4, symSize: 0x34 }
  - { offsetInCU: 0x42D8F, offset: 0x42D8F, size: 0x8, addend: 0x0, symName: '__ZNSt3__15tupleIJOZ17setup_environmentvE3$_0EEC2B8ue170006IJS1_ELi0EEEDpOT_', symObjAddr: 0x1B254, symBinAddr: 0x10001C128, symSize: 0x34 }
  - { offsetInCU: 0x42DD9, offset: 0x42DD9, size: 0x8, addend: 0x0, symName: '__ZNSt3__112__tuple_implINS_15__tuple_indicesIJLm0EEEEJOZ17setup_environmentvE3$_0EEC1B8ue170006IJLm0EEJS4_EJEJEJS3_EEENS1_IJXspT_EEEENS_13__tuple_typesIJDpT0_EEENS1_IJXspT1_EEEENS8_IJDpT2_EEEDpOT3_', symObjAddr: 0x1B288, symBinAddr: 0x10001C15C, symSize: 0x34 }
  - { offsetInCU: 0x42E6E, offset: 0x42E6E, size: 0x8, addend: 0x0, symName: '__ZNSt3__112__tuple_implINS_15__tuple_indicesIJLm0EEEEJOZ17setup_environmentvE3$_0EEC2B8ue170006IJLm0EEJS4_EJEJEJS3_EEENS1_IJXspT_EEEENS_13__tuple_typesIJDpT0_EEENS1_IJXspT1_EEEENS8_IJDpT2_EEEDpOT3_', symObjAddr: 0x1B2BC, symBinAddr: 0x10001C190, symSize: 0x34 }
  - { offsetInCU: 0x42F03, offset: 0x42F03, size: 0x8, addend: 0x0, symName: '__ZNSt3__112__tuple_leafILm0EOZ17setup_environmentvE3$_0Lb0EEC2B8ue170006IS1_vEEOT_', symObjAddr: 0x1B2F0, symBinAddr: 0x10001C1C4, symSize: 0x20 }
  - { offsetInCU: 0x42F46, offset: 0x42F46, size: 0x8, addend: 0x0, symName: '__ZNSt3__15tupleIJONS_9allocatorIZ17setup_environmentvE3$_0EEEEC1B8ue170006IJS3_ELi0EEEDpOT_', symObjAddr: 0x1B310, symBinAddr: 0x10001C1E4, symSize: 0x34 }
  - { offsetInCU: 0x42F90, offset: 0x42F90, size: 0x8, addend: 0x0, symName: '__ZNSt3__15tupleIJONS_9allocatorIZ17setup_environmentvE3$_0EEEEC2B8ue170006IJS3_ELi0EEEDpOT_', symObjAddr: 0x1B344, symBinAddr: 0x10001C218, symSize: 0x34 }
  - { offsetInCU: 0x42FDA, offset: 0x42FDA, size: 0x8, addend: 0x0, symName: '__ZNSt3__112__tuple_implINS_15__tuple_indicesIJLm0EEEEJONS_9allocatorIZ17setup_environmentvE3$_0EEEEC1B8ue170006IJLm0EEJS6_EJEJEJS5_EEENS1_IJXspT_EEEENS_13__tuple_typesIJDpT0_EEENS1_IJXspT1_EEEENSA_IJDpT2_EEEDpOT3_', symObjAddr: 0x1B378, symBinAddr: 0x10001C24C, symSize: 0x34 }
  - { offsetInCU: 0x4306F, offset: 0x4306F, size: 0x8, addend: 0x0, symName: '__ZNSt3__112__tuple_implINS_15__tuple_indicesIJLm0EEEEJONS_9allocatorIZ17setup_environmentvE3$_0EEEEC2B8ue170006IJLm0EEJS6_EJEJEJS5_EEENS1_IJXspT_EEEENS_13__tuple_typesIJDpT0_EEENS1_IJXspT1_EEEENSA_IJDpT2_EEEDpOT3_', symObjAddr: 0x1B3AC, symBinAddr: 0x10001C280, symSize: 0x34 }
  - { offsetInCU: 0x43104, offset: 0x43104, size: 0x8, addend: 0x0, symName: '__ZNSt3__112__tuple_leafILm0EONS_9allocatorIZ17setup_environmentvE3$_0EELb0EEC2B8ue170006IS3_vEEOT_', symObjAddr: 0x1B3E0, symBinAddr: 0x10001C2B4, symSize: 0x20 }
  - { offsetInCU: 0x43147, offset: 0x43147, size: 0x8, addend: 0x0, symName: '__ZNSt3__117__compressed_pairIZ17setup_environmentvE3$_0NS_9allocatorIS1_EEEC2B8ue170006IJOS1_EJOS3_EEENS_21piecewise_construct_tENS_5tupleIJDpT_EEENS9_IJDpT0_EEE', symObjAddr: 0x1B400, symBinAddr: 0x10001C2D4, symSize: 0x54 }
  - { offsetInCU: 0x431B1, offset: 0x431B1, size: 0x8, addend: 0x0, symName: '__ZNSt3__122__compressed_pair_elemIZ17setup_environmentvE3$_0Li0ELb1EEC2B8ue170006IJOS1_EJLm0EEEENS_21piecewise_construct_tENS_5tupleIJDpT_EEENS_15__tuple_indicesIJXspT0_EEEE', symObjAddr: 0x1B454, symBinAddr: 0x10001C328, symSize: 0x38 }
  - { offsetInCU: 0x43214, offset: 0x43214, size: 0x8, addend: 0x0, symName: '__ZNSt3__122__compressed_pair_elemINS_9allocatorIZ17setup_environmentvE3$_0EELi1ELb1EEC2B8ue170006IJOS3_EJLm0EEEENS_21piecewise_construct_tENS_5tupleIJDpT_EEENS_15__tuple_indicesIJXspT0_EEEE', symObjAddr: 0x1B48C, symBinAddr: 0x10001C360, symSize: 0x38 }
  - { offsetInCU: 0x43277, offset: 0x43277, size: 0x8, addend: 0x0, symName: '__ZNSt3__112__tuple_leafILm0EOZ17setup_environmentvE3$_0Lb0EE3getB8ue170006Ev', symObjAddr: 0x1B4E8, symBinAddr: 0x10001C3BC, symSize: 0x18 }
  - { offsetInCU: 0x4329D, offset: 0x4329D, size: 0x8, addend: 0x0, symName: '__ZNSt3__112__tuple_leafILm0EONS_9allocatorIZ17setup_environmentvE3$_0EELb0EE3getB8ue170006Ev', symObjAddr: 0x1B524, symBinAddr: 0x10001C3F8, symSize: 0x18 }
  - { offsetInCU: 0x432C3, offset: 0x432C3, size: 0x8, addend: 0x0, symName: '__ZNSt3__110__function6__funcIZ17setup_environmentvE3$_0NS_9allocatorIS2_EEF5ValueRKNS_6vectorIS5_NS3_IS5_EEEEEED2Ev', symObjAddr: 0x1B53C, symBinAddr: 0x10001C410, symSize: 0x2C }
  - { offsetInCU: 0x432F0, offset: 0x432F0, size: 0x8, addend: 0x0, symName: '__ZNKSt3__110__function12__alloc_funcIZ17setup_environmentvE3$_0NS_9allocatorIS2_EEF5ValueRKNS_6vectorIS5_NS3_IS5_EEEEEE15__get_allocatorB8ue170006Ev', symObjAddr: 0x1B568, symBinAddr: 0x10001C43C, symSize: 0x24 }
  - { offsetInCU: 0x43316, offset: 0x43316, size: 0x8, addend: 0x0, symName: '__ZNSt3__19allocatorINS_10__function6__funcIZ17setup_environmentvE3$_0NS0_IS3_EEF5ValueRKNS_6vectorIS5_NS0_IS5_EEEEEEEE8allocateB8ue170006Em', symObjAddr: 0x1B58C, symBinAddr: 0x10001C460, symSize: 0x58 }
  - { offsetInCU: 0x43359, offset: 0x43359, size: 0x8, addend: 0x0, symName: '__ZNSt3__122__allocator_destructorINS_9allocatorINS_10__function6__funcIZ17setup_environmentvE3$_0NS1_IS4_EEF5ValueRKNS_6vectorIS6_NS1_IS6_EEEEEEEEEEC1B8ue170006ERSE_m', symObjAddr: 0x1B5E4, symBinAddr: 0x10001C4B8, symSize: 0x3C }
  - { offsetInCU: 0x43430, offset: 0x43430, size: 0x8, addend: 0x0, symName: '__ZNSt3__110unique_ptrINS_10__function6__funcIZ17setup_environmentvE3$_0NS_9allocatorIS3_EEF5ValueRKNS_6vectorIS6_NS4_IS6_EEEEEEENS_22__allocator_destructorINS4_ISD_EEEEEC1B8ue170006ILb1EvEEPSD_NS_16__dependent_typeINS_27__unique_ptr_deleter_sfinaeISG_EEXT_EE20__good_rval_ref_typeE', symObjAddr: 0x1B620, symBinAddr: 0x10001C4F4, symSize: 0x3C }
  - { offsetInCU: 0x43481, offset: 0x43481, size: 0x8, addend: 0x0, symName: '__ZNKSt3__110unique_ptrINS_10__function6__funcIZ17setup_environmentvE3$_0NS_9allocatorIS3_EEF5ValueRKNS_6vectorIS6_NS4_IS6_EEEEEEENS_22__allocator_destructorINS4_ISD_EEEEE3getB8ue170006Ev', symObjAddr: 0x1B65C, symBinAddr: 0x10001C530, symSize: 0x28 }
  - { offsetInCU: 0x434A7, offset: 0x434A7, size: 0x8, addend: 0x0, symName: '__ZNKSt3__110__function12__alloc_funcIZ17setup_environmentvE3$_0NS_9allocatorIS2_EEF5ValueRKNS_6vectorIS5_NS3_IS5_EEEEEE8__targetB8ue170006Ev', symObjAddr: 0x1B684, symBinAddr: 0x10001C558, symSize: 0x24 }
  - { offsetInCU: 0x434CD, offset: 0x434CD, size: 0x8, addend: 0x0, symName: '__ZNSt3__110__function6__funcIZ17setup_environmentvE3$_0NS_9allocatorIS2_EEF5ValueRKNS_6vectorIS5_NS3_IS5_EEEEEEC1B8ue170006ERKS2_OS4_', symObjAddr: 0x1B6A8, symBinAddr: 0x10001C57C, symSize: 0x3C }
  - { offsetInCU: 0x43515, offset: 0x43515, size: 0x8, addend: 0x0, symName: '__ZNSt3__110unique_ptrINS_10__function6__funcIZ17setup_environmentvE3$_0NS_9allocatorIS3_EEF5ValueRKNS_6vectorIS6_NS4_IS6_EEEEEEENS_22__allocator_destructorINS4_ISD_EEEEE7releaseB8ue170006Ev', symObjAddr: 0x1B6E4, symBinAddr: 0x10001C5B8, symSize: 0x44 }
  - { offsetInCU: 0x4354A, offset: 0x4354A, size: 0x8, addend: 0x0, symName: '__ZNSt3__110unique_ptrINS_10__function6__funcIZ17setup_environmentvE3$_0NS_9allocatorIS3_EEF5ValueRKNS_6vectorIS6_NS4_IS6_EEEEEEENS_22__allocator_destructorINS4_ISD_EEEEED1B8ue170006Ev', symObjAddr: 0x1B728, symBinAddr: 0x10001C5FC, symSize: 0x2C }
  - { offsetInCU: 0x43574, offset: 0x43574, size: 0x8, addend: 0x0, symName: '__ZNKSt3__117__compressed_pairIZ17setup_environmentvE3$_0NS_9allocatorIS1_EEE6secondB8ue170006Ev', symObjAddr: 0x1B754, symBinAddr: 0x10001C628, symSize: 0x24 }
  - { offsetInCU: 0x4359A, offset: 0x4359A, size: 0x8, addend: 0x0, symName: '__ZNKSt3__122__compressed_pair_elemINS_9allocatorIZ17setup_environmentvE3$_0EELi1ELb1EE5__getB8ue170006Ev', symObjAddr: 0x1B778, symBinAddr: 0x10001C64C, symSize: 0x14 }
  - { offsetInCU: 0x435CA, offset: 0x435CA, size: 0x8, addend: 0x0, symName: '__ZNSt3__116allocator_traitsINS_9allocatorINS_10__function6__funcIZ17setup_environmentvE3$_0NS1_IS4_EEF5ValueRKNS_6vectorIS6_NS1_IS6_EEEEEEEEEE8max_sizeB8ue170006ISE_vvEEmRKSE_', symObjAddr: 0x1B78C, symBinAddr: 0x10001C660, symSize: 0x28 }
  - { offsetInCU: 0x435F6, offset: 0x435F6, size: 0x8, addend: 0x0, symName: '__ZNSt3__122__allocator_destructorINS_9allocatorINS_10__function6__funcIZ17setup_environmentvE3$_0NS1_IS4_EEF5ValueRKNS_6vectorIS6_NS1_IS6_EEEEEEEEEEC2B8ue170006ERSE_m', symObjAddr: 0x1B7B4, symBinAddr: 0x10001C688, symSize: 0x2C }
  - { offsetInCU: 0x4363C, offset: 0x4363C, size: 0x8, addend: 0x0, symName: '__ZNSt3__110unique_ptrINS_10__function6__funcIZ17setup_environmentvE3$_0NS_9allocatorIS3_EEF5ValueRKNS_6vectorIS6_NS4_IS6_EEEEEEENS_22__allocator_destructorINS4_ISD_EEEEEC2B8ue170006ILb1EvEEPSD_NS_16__dependent_typeINS_27__unique_ptr_deleter_sfinaeISG_EEXT_EE20__good_rval_ref_typeE', symObjAddr: 0x1B7E0, symBinAddr: 0x10001C6B4, symSize: 0x48 }
  - { offsetInCU: 0x4368D, offset: 0x4368D, size: 0x8, addend: 0x0, symName: '__ZNSt3__117__compressed_pairIPNS_10__function6__funcIZ17setup_environmentvE3$_0NS_9allocatorIS3_EEF5ValueRKNS_6vectorIS6_NS4_IS6_EEEEEEENS_22__allocator_destructorINS4_ISD_EEEEEC1B8ue170006IRSE_SH_EEOT_OT0_', symObjAddr: 0x1B828, symBinAddr: 0x10001C6FC, symSize: 0x3C }
  - { offsetInCU: 0x436E5, offset: 0x436E5, size: 0x8, addend: 0x0, symName: '__ZNSt3__117__compressed_pairIPNS_10__function6__funcIZ17setup_environmentvE3$_0NS_9allocatorIS3_EEF5ValueRKNS_6vectorIS6_NS4_IS6_EEEEEEENS_22__allocator_destructorINS4_ISD_EEEEEC2B8ue170006IRSE_SH_EEOT_OT0_', symObjAddr: 0x1B864, symBinAddr: 0x10001C738, symSize: 0x48 }
  - { offsetInCU: 0x4373D, offset: 0x4373D, size: 0x8, addend: 0x0, symName: '__ZNSt3__122__compressed_pair_elemIPNS_10__function6__funcIZ17setup_environmentvE3$_0NS_9allocatorIS3_EEF5ValueRKNS_6vectorIS6_NS4_IS6_EEEEEEELi0ELb0EEC2B8ue170006IRSE_vEEOT_', symObjAddr: 0x1B8AC, symBinAddr: 0x10001C780, symSize: 0x24 }
  - { offsetInCU: 0x4377F, offset: 0x4377F, size: 0x8, addend: 0x0, symName: '__ZNSt3__122__compressed_pair_elemINS_22__allocator_destructorINS_9allocatorINS_10__function6__funcIZ17setup_environmentvE3$_0NS2_IS5_EEF5ValueRKNS_6vectorIS7_NS2_IS7_EEEEEEEEEEELi1ELb0EEC2B8ue170006ISG_vEEOT_', symObjAddr: 0x1B8D0, symBinAddr: 0x10001C7A4, symSize: 0x24 }
  - { offsetInCU: 0x437C1, offset: 0x437C1, size: 0x8, addend: 0x0, symName: '__ZNKSt3__117__compressed_pairIPNS_10__function6__funcIZ17setup_environmentvE3$_0NS_9allocatorIS3_EEF5ValueRKNS_6vectorIS6_NS4_IS6_EEEEEEENS_22__allocator_destructorINS4_ISD_EEEEE5firstB8ue170006Ev', symObjAddr: 0x1B8F4, symBinAddr: 0x10001C7C8, symSize: 0x24 }
  - { offsetInCU: 0x437E7, offset: 0x437E7, size: 0x8, addend: 0x0, symName: '__ZNKSt3__122__compressed_pair_elemIPNS_10__function6__funcIZ17setup_environmentvE3$_0NS_9allocatorIS3_EEF5ValueRKNS_6vectorIS6_NS4_IS6_EEEEEEELi0ELb0EE5__getB8ue170006Ev', symObjAddr: 0x1B918, symBinAddr: 0x10001C7EC, symSize: 0x14 }
  - { offsetInCU: 0x4380D, offset: 0x4380D, size: 0x8, addend: 0x0, symName: '__ZNKSt3__117__compressed_pairIZ17setup_environmentvE3$_0NS_9allocatorIS1_EEE5firstB8ue170006Ev', symObjAddr: 0x1B92C, symBinAddr: 0x10001C800, symSize: 0x24 }
  - { offsetInCU: 0x43833, offset: 0x43833, size: 0x8, addend: 0x0, symName: '__ZNKSt3__122__compressed_pair_elemIZ17setup_environmentvE3$_0Li0ELb1EE5__getB8ue170006Ev', symObjAddr: 0x1B950, symBinAddr: 0x10001C824, symSize: 0x14 }
  - { offsetInCU: 0x43859, offset: 0x43859, size: 0x8, addend: 0x0, symName: '__ZNSt3__110__function6__funcIZ17setup_environmentvE3$_0NS_9allocatorIS2_EEF5ValueRKNS_6vectorIS5_NS3_IS5_EEEEEEC2B8ue170006ERKS2_OS4_', symObjAddr: 0x1B964, symBinAddr: 0x10001C838, symSize: 0x88 }
  - { offsetInCU: 0x438A1, offset: 0x438A1, size: 0x8, addend: 0x0, symName: '__ZNSt3__110__function12__alloc_funcIZ17setup_environmentvE3$_0NS_9allocatorIS2_EEF5ValueRKNS_6vectorIS5_NS3_IS5_EEEEEEC1B8ue170006ERKS2_OS4_', symObjAddr: 0x1B9EC, symBinAddr: 0x10001C8C0, symSize: 0x3C }
  - { offsetInCU: 0x438E7, offset: 0x438E7, size: 0x8, addend: 0x0, symName: '__ZNSt3__110__function12__alloc_funcIZ17setup_environmentvE3$_0NS_9allocatorIS2_EEF5ValueRKNS_6vectorIS5_NS3_IS5_EEEEEEC2B8ue170006ERKS2_OS4_', symObjAddr: 0x1BA28, symBinAddr: 0x10001C8FC, symSize: 0x5C }
  - { offsetInCU: 0x4392D, offset: 0x4392D, size: 0x8, addend: 0x0, symName: '__ZNSt3__117__compressed_pairIZ17setup_environmentvE3$_0NS_9allocatorIS1_EEEC1B8ue170006IJRKS1_EJOS3_EEENS_21piecewise_construct_tENS_5tupleIJDpT_EEENSA_IJDpT0_EEE', symObjAddr: 0x1BAB0, symBinAddr: 0x10001C984, symSize: 0x3C }
  - { offsetInCU: 0x43997, offset: 0x43997, size: 0x8, addend: 0x0, symName: '__ZNSt3__15tupleIJRKZ17setup_environmentvE3$_0EEC1B8ue170006INS_4_AndELi0EEES3_', symObjAddr: 0x1BAEC, symBinAddr: 0x10001C9C0, symSize: 0x34 }
  - { offsetInCU: 0x439E0, offset: 0x439E0, size: 0x8, addend: 0x0, symName: '__ZNSt3__15tupleIJRKZ17setup_environmentvE3$_0EEC2B8ue170006INS_4_AndELi0EEES3_', symObjAddr: 0x1BB20, symBinAddr: 0x10001C9F4, symSize: 0x34 }
  - { offsetInCU: 0x43A29, offset: 0x43A29, size: 0x8, addend: 0x0, symName: '__ZNSt3__112__tuple_implINS_15__tuple_indicesIJLm0EEEEJRKZ17setup_environmentvE3$_0EEC1B8ue170006IJLm0EEJS5_EJEJEJS5_EEENS1_IJXspT_EEEENS_13__tuple_typesIJDpT0_EEENS1_IJXspT1_EEEENS9_IJDpT2_EEEDpOT3_', symObjAddr: 0x1BB54, symBinAddr: 0x10001CA28, symSize: 0x34 }
  - { offsetInCU: 0x43ABE, offset: 0x43ABE, size: 0x8, addend: 0x0, symName: '__ZNSt3__112__tuple_implINS_15__tuple_indicesIJLm0EEEEJRKZ17setup_environmentvE3$_0EEC2B8ue170006IJLm0EEJS5_EJEJEJS5_EEENS1_IJXspT_EEEENS_13__tuple_typesIJDpT0_EEENS1_IJXspT1_EEEENS9_IJDpT2_EEEDpOT3_', symObjAddr: 0x1BB88, symBinAddr: 0x10001CA5C, symSize: 0x34 }
  - { offsetInCU: 0x43B53, offset: 0x43B53, size: 0x8, addend: 0x0, symName: '__ZNSt3__112__tuple_leafILm0ERKZ17setup_environmentvE3$_0Lb0EEC2B8ue170006IS3_vEEOT_', symObjAddr: 0x1BBBC, symBinAddr: 0x10001CA90, symSize: 0x20 }
  - { offsetInCU: 0x43B96, offset: 0x43B96, size: 0x8, addend: 0x0, symName: '__ZNSt3__117__compressed_pairIZ17setup_environmentvE3$_0NS_9allocatorIS1_EEEC2B8ue170006IJRKS1_EJOS3_EEENS_21piecewise_construct_tENS_5tupleIJDpT_EEENSA_IJDpT0_EEE', symObjAddr: 0x1BBDC, symBinAddr: 0x10001CAB0, symSize: 0x54 }
  - { offsetInCU: 0x43C00, offset: 0x43C00, size: 0x8, addend: 0x0, symName: '__ZNSt3__122__compressed_pair_elemIZ17setup_environmentvE3$_0Li0ELb1EEC2B8ue170006IJRKS1_EJLm0EEEENS_21piecewise_construct_tENS_5tupleIJDpT_EEENS_15__tuple_indicesIJXspT0_EEEE', symObjAddr: 0x1BC30, symBinAddr: 0x10001CB04, symSize: 0x38 }
  - { offsetInCU: 0x43C63, offset: 0x43C63, size: 0x8, addend: 0x0, symName: '__ZNSt3__112__tuple_leafILm0ERKZ17setup_environmentvE3$_0Lb0EE3getB8ue170006Ev', symObjAddr: 0x1BC8C, symBinAddr: 0x10001CB60, symSize: 0x18 }
  - { offsetInCU: 0x43C89, offset: 0x43C89, size: 0x8, addend: 0x0, symName: '__ZNSt3__117__compressed_pairIPNS_10__function6__funcIZ17setup_environmentvE3$_0NS_9allocatorIS3_EEF5ValueRKNS_6vectorIS6_NS4_IS6_EEEEEEENS_22__allocator_destructorINS4_ISD_EEEEE5firstB8ue170006Ev', symObjAddr: 0x1BCA4, symBinAddr: 0x10001CB78, symSize: 0x24 }
  - { offsetInCU: 0x43CAF, offset: 0x43CAF, size: 0x8, addend: 0x0, symName: '__ZNSt3__122__compressed_pair_elemIPNS_10__function6__funcIZ17setup_environmentvE3$_0NS_9allocatorIS3_EEF5ValueRKNS_6vectorIS6_NS4_IS6_EEEEEEELi0ELb0EE5__getB8ue170006Ev', symObjAddr: 0x1BCC8, symBinAddr: 0x10001CB9C, symSize: 0x14 }
  - { offsetInCU: 0x43CD5, offset: 0x43CD5, size: 0x8, addend: 0x0, symName: '__ZNSt3__110unique_ptrINS_10__function6__funcIZ17setup_environmentvE3$_0NS_9allocatorIS3_EEF5ValueRKNS_6vectorIS6_NS4_IS6_EEEEEEENS_22__allocator_destructorINS4_ISD_EEEEED2B8ue170006Ev', symObjAddr: 0x1BCDC, symBinAddr: 0x10001CBB0, symSize: 0x30 }
  - { offsetInCU: 0x43CFF, offset: 0x43CFF, size: 0x8, addend: 0x0, symName: '__ZNSt3__110unique_ptrINS_10__function6__funcIZ17setup_environmentvE3$_0NS_9allocatorIS3_EEF5ValueRKNS_6vectorIS6_NS4_IS6_EEEEEEENS_22__allocator_destructorINS4_ISD_EEEEE5resetB8ue170006EPSD_', symObjAddr: 0x1BD0C, symBinAddr: 0x10001CBE0, symSize: 0x78 }
  - { offsetInCU: 0x43D43, offset: 0x43D43, size: 0x8, addend: 0x0, symName: '__ZNSt3__117__compressed_pairIPNS_10__function6__funcIZ17setup_environmentvE3$_0NS_9allocatorIS3_EEF5ValueRKNS_6vectorIS6_NS4_IS6_EEEEEEENS_22__allocator_destructorINS4_ISD_EEEEE6secondB8ue170006Ev', symObjAddr: 0x1BD84, symBinAddr: 0x10001CC58, symSize: 0x28 }
  - { offsetInCU: 0x43D69, offset: 0x43D69, size: 0x8, addend: 0x0, symName: '__ZNSt3__122__allocator_destructorINS_9allocatorINS_10__function6__funcIZ17setup_environmentvE3$_0NS1_IS4_EEF5ValueRKNS_6vectorIS6_NS1_IS6_EEEEEEEEEEclB8ue170006EPSD_', symObjAddr: 0x1BDAC, symBinAddr: 0x10001CC80, symSize: 0x34 }
  - { offsetInCU: 0x43D9D, offset: 0x43D9D, size: 0x8, addend: 0x0, symName: '__ZNSt3__122__compressed_pair_elemINS_22__allocator_destructorINS_9allocatorINS_10__function6__funcIZ17setup_environmentvE3$_0NS2_IS5_EEF5ValueRKNS_6vectorIS7_NS2_IS7_EEEEEEEEEEELi1ELb0EE5__getB8ue170006Ev', symObjAddr: 0x1BDE0, symBinAddr: 0x10001CCB4, symSize: 0x14 }
  - { offsetInCU: 0x43DC3, offset: 0x43DC3, size: 0x8, addend: 0x0, symName: '__ZNSt3__116allocator_traitsINS_9allocatorINS_10__function6__funcIZ17setup_environmentvE3$_0NS1_IS4_EEF5ValueRKNS_6vectorIS6_NS1_IS6_EEEEEEEEEE10deallocateB8ue170006ERSE_PSD_m', symObjAddr: 0x1BDF4, symBinAddr: 0x10001CCC8, symSize: 0x34 }
  - { offsetInCU: 0x43E05, offset: 0x43E05, size: 0x8, addend: 0x0, symName: '__ZNSt3__19allocatorINS_10__function6__funcIZ17setup_environmentvE3$_0NS0_IS3_EEF5ValueRKNS_6vectorIS5_NS0_IS5_EEEEEEEE10deallocateB8ue170006EPSC_m', symObjAddr: 0x1BE28, symBinAddr: 0x10001CCFC, symSize: 0x40 }
  - { offsetInCU: 0x43E47, offset: 0x43E47, size: 0x8, addend: 0x0, symName: '__ZNSt3__110__function6__funcIZ17setup_environmentvE3$_0NS_9allocatorIS2_EEF5ValueRKNS_6vectorIS5_NS3_IS5_EEEEEEC1B8ue170006ERKS2_RKS4_', symObjAddr: 0x1BE68, symBinAddr: 0x10001CD3C, symSize: 0x3C }
  - { offsetInCU: 0x43E8F, offset: 0x43E8F, size: 0x8, addend: 0x0, symName: '__ZNSt3__110__function6__funcIZ17setup_environmentvE3$_0NS_9allocatorIS2_EEF5ValueRKNS_6vectorIS5_NS3_IS5_EEEEEEC2B8ue170006ERKS2_RKS4_', symObjAddr: 0x1BEA4, symBinAddr: 0x10001CD78, symSize: 0x88 }
  - { offsetInCU: 0x43ED7, offset: 0x43ED7, size: 0x8, addend: 0x0, symName: '__ZNSt3__110__function12__alloc_funcIZ17setup_environmentvE3$_0NS_9allocatorIS2_EEF5ValueRKNS_6vectorIS5_NS3_IS5_EEEEEEC1B8ue170006ERKS2_RKS4_', symObjAddr: 0x1BF2C, symBinAddr: 0x10001CE00, symSize: 0x3C }
  - { offsetInCU: 0x43F1D, offset: 0x43F1D, size: 0x8, addend: 0x0, symName: '__ZNSt3__110__function12__alloc_funcIZ17setup_environmentvE3$_0NS_9allocatorIS2_EEF5ValueRKNS_6vectorIS5_NS3_IS5_EEEEEEC2B8ue170006ERKS2_RKS4_', symObjAddr: 0x1BF68, symBinAddr: 0x10001CE3C, symSize: 0x5C }
  - { offsetInCU: 0x43F63, offset: 0x43F63, size: 0x8, addend: 0x0, symName: '__ZNSt3__117__compressed_pairIZ17setup_environmentvE3$_0NS_9allocatorIS1_EEEC1B8ue170006IJRKS1_EJRKS3_EEENS_21piecewise_construct_tENS_5tupleIJDpT_EEENSB_IJDpT0_EEE', symObjAddr: 0x1BFF0, symBinAddr: 0x10001CEC4, symSize: 0x3C }
  - { offsetInCU: 0x43FCD, offset: 0x43FCD, size: 0x8, addend: 0x0, symName: '__ZNSt3__15tupleIJRKNS_9allocatorIZ17setup_environmentvE3$_0EEEEC1B8ue170006INS_4_AndELi0EEES5_', symObjAddr: 0x1C02C, symBinAddr: 0x10001CF00, symSize: 0x34 }
  - { offsetInCU: 0x44016, offset: 0x44016, size: 0x8, addend: 0x0, symName: '__ZNSt3__15tupleIJRKNS_9allocatorIZ17setup_environmentvE3$_0EEEEC2B8ue170006INS_4_AndELi0EEES5_', symObjAddr: 0x1C060, symBinAddr: 0x10001CF34, symSize: 0x34 }
  - { offsetInCU: 0x4405F, offset: 0x4405F, size: 0x8, addend: 0x0, symName: '__ZNSt3__112__tuple_implINS_15__tuple_indicesIJLm0EEEEJRKNS_9allocatorIZ17setup_environmentvE3$_0EEEEC1B8ue170006IJLm0EEJS7_EJEJEJS7_EEENS1_IJXspT_EEEENS_13__tuple_typesIJDpT0_EEENS1_IJXspT1_EEEENSB_IJDpT2_EEEDpOT3_', symObjAddr: 0x1C094, symBinAddr: 0x10001CF68, symSize: 0x34 }
  - { offsetInCU: 0x440F4, offset: 0x440F4, size: 0x8, addend: 0x0, symName: '__ZNSt3__112__tuple_implINS_15__tuple_indicesIJLm0EEEEJRKNS_9allocatorIZ17setup_environmentvE3$_0EEEEC2B8ue170006IJLm0EEJS7_EJEJEJS7_EEENS1_IJXspT_EEEENS_13__tuple_typesIJDpT0_EEENS1_IJXspT1_EEEENSB_IJDpT2_EEEDpOT3_', symObjAddr: 0x1C0C8, symBinAddr: 0x10001CF9C, symSize: 0x34 }
  - { offsetInCU: 0x44189, offset: 0x44189, size: 0x8, addend: 0x0, symName: '__ZNSt3__112__tuple_leafILm0ERKNS_9allocatorIZ17setup_environmentvE3$_0EELb0EEC2B8ue170006IS5_vEEOT_', symObjAddr: 0x1C0FC, symBinAddr: 0x10001CFD0, symSize: 0x20 }
  - { offsetInCU: 0x441CC, offset: 0x441CC, size: 0x8, addend: 0x0, symName: '__ZNSt3__117__compressed_pairIZ17setup_environmentvE3$_0NS_9allocatorIS1_EEEC2B8ue170006IJRKS1_EJRKS3_EEENS_21piecewise_construct_tENS_5tupleIJDpT_EEENSB_IJDpT0_EEE', symObjAddr: 0x1C11C, symBinAddr: 0x10001CFF0, symSize: 0x54 }
  - { offsetInCU: 0x44236, offset: 0x44236, size: 0x8, addend: 0x0, symName: '__ZNSt3__122__compressed_pair_elemINS_9allocatorIZ17setup_environmentvE3$_0EELi1ELb1EEC2B8ue170006IJRKS3_EJLm0EEEENS_21piecewise_construct_tENS_5tupleIJDpT_EEENS_15__tuple_indicesIJXspT0_EEEE', symObjAddr: 0x1C170, symBinAddr: 0x10001D044, symSize: 0x38 }
  - { offsetInCU: 0x44299, offset: 0x44299, size: 0x8, addend: 0x0, symName: '__ZNSt3__112__tuple_leafILm0ERKNS_9allocatorIZ17setup_environmentvE3$_0EELb0EE3getB8ue170006Ev', symObjAddr: 0x1C1CC, symBinAddr: 0x10001D0A0, symSize: 0x18 }
  - { offsetInCU: 0x442BF, offset: 0x442BF, size: 0x8, addend: 0x0, symName: '__ZNSt3__110__function12__alloc_funcIZ17setup_environmentvE3$_0NS_9allocatorIS2_EEF5ValueRKNS_6vectorIS5_NS3_IS5_EEEEEE7destroyB8ue170006Ev', symObjAddr: 0x1C1E4, symBinAddr: 0x10001D0B8, symSize: 0x10 }
  - { offsetInCU: 0x442E5, offset: 0x442E5, size: 0x8, addend: 0x0, symName: '__ZNSt3__110__function12__alloc_funcIZ17setup_environmentvE3$_0NS_9allocatorIS2_EEF5ValueRKNS_6vectorIS5_NS3_IS5_EEEEEEclB8ue170006ESA_', symObjAddr: 0x1C1F4, symBinAddr: 0x10001D0C8, symSize: 0x3C }
  - { offsetInCU: 0x44319, offset: 0x44319, size: 0x8, addend: 0x0, symName: '__ZNSt3__128__invoke_void_return_wrapperI5ValueLb0EE6__callB8ue170006IJRZ17setup_environmentvE3$_0RKNS_6vectorIS1_NS_9allocatorIS1_EEEEEEES1_DpOT_', symObjAddr: 0x1C230, symBinAddr: 0x10001D104, symSize: 0x34 }
  - { offsetInCU: 0x4435C, offset: 0x4435C, size: 0x8, addend: 0x0, symName: '__ZNSt3__117__compressed_pairIZ17setup_environmentvE3$_0NS_9allocatorIS1_EEE5firstB8ue170006Ev', symObjAddr: 0x1C264, symBinAddr: 0x10001D138, symSize: 0x24 }
  - { offsetInCU: 0x44382, offset: 0x44382, size: 0x8, addend: 0x0, symName: '__ZZ17setup_environmentvENK3$_0clERKNSt3__16vectorI5ValueNS0_9allocatorIS2_EEEE', symObjAddr: 0x1C2BC, symBinAddr: 0x10001D190, symSize: 0xDC }
  - { offsetInCU: 0x443D6, offset: 0x443D6, size: 0x8, addend: 0x0, symName: __ZNKSt3__16vectorI5ValueNS_9allocatorIS1_EEEixB8ue170006Em, symObjAddr: 0x1C398, symBinAddr: 0x10001D26C, symSize: 0x2C }
  - { offsetInCU: 0x4440D, offset: 0x4440D, size: 0x8, addend: 0x0, symName: __ZNSt3__113basic_ostreamIcNS_11char_traitsIcEEElsB8ue170006EPFRS3_S4_E, symObjAddr: 0x1C3C4, symBinAddr: 0x10001D298, symSize: 0x2C }
  - { offsetInCU: 0x44441, offset: 0x44441, size: 0x8, addend: 0x0, symName: '__ZNSt3__122__compressed_pair_elemIZ17setup_environmentvE3$_0Li0ELb1EE5__getB8ue170006Ev', symObjAddr: 0x1C448, symBinAddr: 0x10001D31C, symSize: 0x14 }
  - { offsetInCU: 0x4449D, offset: 0x4449D, size: 0x8, addend: 0x0, symName: __ZNKSt9type_infoeqB8ue170006ERKS_, symObjAddr: 0x1C45C, symBinAddr: 0x10001D330, symSize: 0xDC }
  - { offsetInCU: 0x4453B, offset: 0x4453B, size: 0x8, addend: 0x0, symName: __ZNSt27__type_info_implementations30__non_unique_arm_rtti_bit_impl21__is_type_name_uniqueB8ue170006Em, symObjAddr: 0x1C538, symBinAddr: 0x10001D40C, symSize: 0x20 }
  - { offsetInCU: 0x4455F, offset: 0x4455F, size: 0x8, addend: 0x0, symName: '__ZNSt3__18functionIF5ValueRKNS_6vectorIS1_NS_9allocatorIS1_EEEEEEC2IZ17setup_environmentvE3$_1vEET_', symObjAddr: 0x1C558, symBinAddr: 0x10001D42C, symSize: 0x30 }
  - { offsetInCU: 0x445A4, offset: 0x445A4, size: 0x8, addend: 0x0, symName: '__ZNSt3__110__function12__value_funcIF5ValueRKNS_6vectorIS2_NS_9allocatorIS2_EEEEEEC1B8ue170006IZ17setup_environmentvE3$_1vEEOT_', symObjAddr: 0x1C588, symBinAddr: 0x10001D45C, symSize: 0x50 }
  - { offsetInCU: 0x445E7, offset: 0x445E7, size: 0x8, addend: 0x0, symName: '__ZNSt3__19allocatorIZ17setup_environmentvE3$_1EC1B8ue170006Ev', symObjAddr: 0x1C5D8, symBinAddr: 0x10001D4AC, symSize: 0x2C }
  - { offsetInCU: 0x44611, offset: 0x44611, size: 0x8, addend: 0x0, symName: '__ZNSt3__110__function12__value_funcIF5ValueRKNS_6vectorIS2_NS_9allocatorIS2_EEEEEEC1B8ue170006IZ17setup_environmentvE3$_1NS4_ISC_EEEEOT_RKT0_', symObjAddr: 0x1C604, symBinAddr: 0x10001D4D8, symSize: 0x3C }
  - { offsetInCU: 0x4466B, offset: 0x4466B, size: 0x8, addend: 0x0, symName: '__ZNSt3__19allocatorIZ17setup_environmentvE3$_1EC2B8ue170006Ev', symObjAddr: 0x1C640, symBinAddr: 0x10001D514, symSize: 0x2C }
  - { offsetInCU: 0x44695, offset: 0x44695, size: 0x8, addend: 0x0, symName: '__ZNSt3__116__non_trivial_ifILb1ENS_9allocatorIZ17setup_environmentvE3$_1EEEC2B8ue170006Ev', symObjAddr: 0x1C66C, symBinAddr: 0x10001D540, symSize: 0x14 }
  - { offsetInCU: 0x446BF, offset: 0x446BF, size: 0x8, addend: 0x0, symName: '__ZNSt3__110__function12__value_funcIF5ValueRKNS_6vectorIS2_NS_9allocatorIS2_EEEEEEC2B8ue170006IZ17setup_environmentvE3$_1NS4_ISC_EEEEOT_RKT0_', symObjAddr: 0x1C680, symBinAddr: 0x10001D554, symSize: 0x94 }
  - { offsetInCU: 0x4474C, offset: 0x4474C, size: 0x8, addend: 0x0, symName: '__ZNSt3__19allocatorINS_10__function6__funcIZ17setup_environmentvE3$_1NS0_IS3_EEF5ValueRKNS_6vectorIS5_NS0_IS5_EEEEEEEEC1B8ue170006IS3_EERKNS0_IT_EE', symObjAddr: 0x1C72C, symBinAddr: 0x10001D600, symSize: 0x34 }
  - { offsetInCU: 0x44793, offset: 0x44793, size: 0x8, addend: 0x0, symName: '__ZNSt3__19allocatorIZ17setup_environmentvE3$_1EC1B8ue170006INS_10__function6__funcIS1_S2_F5ValueRKNS_6vectorIS6_NS0_IS6_EEEEEEEEERKNS0_IT_EE', symObjAddr: 0x1C760, symBinAddr: 0x10001D634, symSize: 0x34 }
  - { offsetInCU: 0x447D0, offset: 0x447D0, size: 0x8, addend: 0x0, symName: '__ZNSt3__110__function6__funcIZ17setup_environmentvE3$_1NS_9allocatorIS2_EEF5ValueRKNS_6vectorIS5_NS3_IS5_EEEEEEC1B8ue170006EOS2_OS4_', symObjAddr: 0x1C794, symBinAddr: 0x10001D668, symSize: 0x3C }
  - { offsetInCU: 0x44818, offset: 0x44818, size: 0x8, addend: 0x0, symName: '__ZNSt3__19allocatorINS_10__function6__funcIZ17setup_environmentvE3$_1NS0_IS3_EEF5ValueRKNS_6vectorIS5_NS0_IS5_EEEEEEEEC2B8ue170006IS3_EERKNS0_IT_EE', symObjAddr: 0x1C7D0, symBinAddr: 0x10001D6A4, symSize: 0x30 }
  - { offsetInCU: 0x44855, offset: 0x44855, size: 0x8, addend: 0x0, symName: '__ZNSt3__116__non_trivial_ifILb1ENS_9allocatorINS_10__function6__funcIZ17setup_environmentvE3$_1NS1_IS4_EEF5ValueRKNS_6vectorIS6_NS1_IS6_EEEEEEEEEEC2B8ue170006Ev', symObjAddr: 0x1C800, symBinAddr: 0x10001D6D4, symSize: 0x14 }
  - { offsetInCU: 0x4487F, offset: 0x4487F, size: 0x8, addend: 0x0, symName: '__ZNSt3__19allocatorIZ17setup_environmentvE3$_1EC2B8ue170006INS_10__function6__funcIS1_S2_F5ValueRKNS_6vectorIS6_NS0_IS6_EEEEEEEEERKNS0_IT_EE', symObjAddr: 0x1C814, symBinAddr: 0x10001D6E8, symSize: 0x30 }
  - { offsetInCU: 0x448BC, offset: 0x448BC, size: 0x8, addend: 0x0, symName: '__ZNSt3__110__function6__funcIZ17setup_environmentvE3$_1NS_9allocatorIS2_EEF5ValueRKNS_6vectorIS5_NS3_IS5_EEEEEEC2B8ue170006EOS2_OS4_', symObjAddr: 0x1C844, symBinAddr: 0x10001D718, symSize: 0x88 }
  - { offsetInCU: 0x44904, offset: 0x44904, size: 0x8, addend: 0x0, symName: '__ZNSt3__110__function12__alloc_funcIZ17setup_environmentvE3$_1NS_9allocatorIS2_EEF5ValueRKNS_6vectorIS5_NS3_IS5_EEEEEEC1B8ue170006EOS2_OS4_', symObjAddr: 0x1C8CC, symBinAddr: 0x10001D7A0, symSize: 0x3C }
  - { offsetInCU: 0x4494A, offset: 0x4494A, size: 0x8, addend: 0x0, symName: '__ZNSt3__110__function6__funcIZ17setup_environmentvE3$_1NS_9allocatorIS2_EEF5ValueRKNS_6vectorIS5_NS3_IS5_EEEEEED1Ev', symObjAddr: 0x1C908, symBinAddr: 0x10001D7DC, symSize: 0x2C }
  - { offsetInCU: 0x44977, offset: 0x44977, size: 0x8, addend: 0x0, symName: '__ZNSt3__110__function6__funcIZ17setup_environmentvE3$_1NS_9allocatorIS2_EEF5ValueRKNS_6vectorIS5_NS3_IS5_EEEEEED0Ev', symObjAddr: 0x1C934, symBinAddr: 0x10001D808, symSize: 0x30 }
  - { offsetInCU: 0x449A4, offset: 0x449A4, size: 0x8, addend: 0x0, symName: '__ZNKSt3__110__function6__funcIZ17setup_environmentvE3$_1NS_9allocatorIS2_EEF5ValueRKNS_6vectorIS5_NS3_IS5_EEEEEE7__cloneEv', symObjAddr: 0x1C964, symBinAddr: 0x10001D838, symSize: 0xFC }
  - { offsetInCU: 0x449F6, offset: 0x449F6, size: 0x8, addend: 0x0, symName: '__ZNKSt3__110__function6__funcIZ17setup_environmentvE3$_1NS_9allocatorIS2_EEF5ValueRKNS_6vectorIS5_NS3_IS5_EEEEEE7__cloneEPNS0_6__baseISB_EE', symObjAddr: 0x1CA60, symBinAddr: 0x10001D934, symSize: 0x58 }
  - { offsetInCU: 0x44A2D, offset: 0x44A2D, size: 0x8, addend: 0x0, symName: '__ZNSt3__110__function6__funcIZ17setup_environmentvE3$_1NS_9allocatorIS2_EEF5ValueRKNS_6vectorIS5_NS3_IS5_EEEEEE7destroyEv', symObjAddr: 0x1CAB8, symBinAddr: 0x10001D98C, symSize: 0x28 }
  - { offsetInCU: 0x44A55, offset: 0x44A55, size: 0x8, addend: 0x0, symName: '__ZNSt3__110__function6__funcIZ17setup_environmentvE3$_1NS_9allocatorIS2_EEF5ValueRKNS_6vectorIS5_NS3_IS5_EEEEEE18destroy_deallocateEv', symObjAddr: 0x1CAE0, symBinAddr: 0x10001D9B4, symSize: 0x58 }
  - { offsetInCU: 0x44A98, offset: 0x44A98, size: 0x8, addend: 0x0, symName: '__ZNSt3__110__function6__funcIZ17setup_environmentvE3$_1NS_9allocatorIS2_EEF5ValueRKNS_6vectorIS5_NS3_IS5_EEEEEEclESA_', symObjAddr: 0x1CB38, symBinAddr: 0x10001DA0C, symSize: 0x38 }
  - { offsetInCU: 0x44ACF, offset: 0x44ACF, size: 0x8, addend: 0x0, symName: '__ZNKSt3__110__function6__funcIZ17setup_environmentvE3$_1NS_9allocatorIS2_EEF5ValueRKNS_6vectorIS5_NS3_IS5_EEEEEE6targetERKSt9type_info', symObjAddr: 0x1CB70, symBinAddr: 0x10001DA44, symSize: 0x60 }
  - { offsetInCU: 0x44B06, offset: 0x44B06, size: 0x8, addend: 0x0, symName: '__ZNKSt3__110__function6__funcIZ17setup_environmentvE3$_1NS_9allocatorIS2_EEF5ValueRKNS_6vectorIS5_NS3_IS5_EEEEEE11target_typeEv', symObjAddr: 0x1CBD0, symBinAddr: 0x10001DAA4, symSize: 0x18 }
  - { offsetInCU: 0x44B2E, offset: 0x44B2E, size: 0x8, addend: 0x0, symName: '__ZNSt3__110__function12__alloc_funcIZ17setup_environmentvE3$_1NS_9allocatorIS2_EEF5ValueRKNS_6vectorIS5_NS3_IS5_EEEEEEC2B8ue170006EOS2_OS4_', symObjAddr: 0x1CBE8, symBinAddr: 0x10001DABC, symSize: 0x5C }
  - { offsetInCU: 0x44B74, offset: 0x44B74, size: 0x8, addend: 0x0, symName: '__ZNSt3__117__compressed_pairIZ17setup_environmentvE3$_1NS_9allocatorIS1_EEEC1B8ue170006IJOS1_EJOS3_EEENS_21piecewise_construct_tENS_5tupleIJDpT_EEENS9_IJDpT0_EEE', symObjAddr: 0x1CC9C, symBinAddr: 0x10001DB70, symSize: 0x3C }
  - { offsetInCU: 0x44BDE, offset: 0x44BDE, size: 0x8, addend: 0x0, symName: '__ZNSt3__15tupleIJOZ17setup_environmentvE3$_1EEC1B8ue170006IJS1_ELi0EEEDpOT_', symObjAddr: 0x1CCD8, symBinAddr: 0x10001DBAC, symSize: 0x34 }
  - { offsetInCU: 0x44C28, offset: 0x44C28, size: 0x8, addend: 0x0, symName: '__ZNSt3__15tupleIJOZ17setup_environmentvE3$_1EEC2B8ue170006IJS1_ELi0EEEDpOT_', symObjAddr: 0x1CD0C, symBinAddr: 0x10001DBE0, symSize: 0x34 }
  - { offsetInCU: 0x44C72, offset: 0x44C72, size: 0x8, addend: 0x0, symName: '__ZNSt3__112__tuple_implINS_15__tuple_indicesIJLm0EEEEJOZ17setup_environmentvE3$_1EEC1B8ue170006IJLm0EEJS4_EJEJEJS3_EEENS1_IJXspT_EEEENS_13__tuple_typesIJDpT0_EEENS1_IJXspT1_EEEENS8_IJDpT2_EEEDpOT3_', symObjAddr: 0x1CD40, symBinAddr: 0x10001DC14, symSize: 0x34 }
  - { offsetInCU: 0x44D07, offset: 0x44D07, size: 0x8, addend: 0x0, symName: '__ZNSt3__112__tuple_implINS_15__tuple_indicesIJLm0EEEEJOZ17setup_environmentvE3$_1EEC2B8ue170006IJLm0EEJS4_EJEJEJS3_EEENS1_IJXspT_EEEENS_13__tuple_typesIJDpT0_EEENS1_IJXspT1_EEEENS8_IJDpT2_EEEDpOT3_', symObjAddr: 0x1CD74, symBinAddr: 0x10001DC48, symSize: 0x34 }
  - { offsetInCU: 0x44D9C, offset: 0x44D9C, size: 0x8, addend: 0x0, symName: '__ZNSt3__112__tuple_leafILm0EOZ17setup_environmentvE3$_1Lb0EEC2B8ue170006IS1_vEEOT_', symObjAddr: 0x1CDA8, symBinAddr: 0x10001DC7C, symSize: 0x20 }
  - { offsetInCU: 0x44DDF, offset: 0x44DDF, size: 0x8, addend: 0x0, symName: '__ZNSt3__15tupleIJONS_9allocatorIZ17setup_environmentvE3$_1EEEEC1B8ue170006IJS3_ELi0EEEDpOT_', symObjAddr: 0x1CDC8, symBinAddr: 0x10001DC9C, symSize: 0x34 }
  - { offsetInCU: 0x44E29, offset: 0x44E29, size: 0x8, addend: 0x0, symName: '__ZNSt3__15tupleIJONS_9allocatorIZ17setup_environmentvE3$_1EEEEC2B8ue170006IJS3_ELi0EEEDpOT_', symObjAddr: 0x1CDFC, symBinAddr: 0x10001DCD0, symSize: 0x34 }
  - { offsetInCU: 0x44E73, offset: 0x44E73, size: 0x8, addend: 0x0, symName: '__ZNSt3__112__tuple_implINS_15__tuple_indicesIJLm0EEEEJONS_9allocatorIZ17setup_environmentvE3$_1EEEEC1B8ue170006IJLm0EEJS6_EJEJEJS5_EEENS1_IJXspT_EEEENS_13__tuple_typesIJDpT0_EEENS1_IJXspT1_EEEENSA_IJDpT2_EEEDpOT3_', symObjAddr: 0x1CE30, symBinAddr: 0x10001DD04, symSize: 0x34 }
  - { offsetInCU: 0x44F08, offset: 0x44F08, size: 0x8, addend: 0x0, symName: '__ZNSt3__112__tuple_implINS_15__tuple_indicesIJLm0EEEEJONS_9allocatorIZ17setup_environmentvE3$_1EEEEC2B8ue170006IJLm0EEJS6_EJEJEJS5_EEENS1_IJXspT_EEEENS_13__tuple_typesIJDpT0_EEENS1_IJXspT1_EEEENSA_IJDpT2_EEEDpOT3_', symObjAddr: 0x1CE64, symBinAddr: 0x10001DD38, symSize: 0x34 }
  - { offsetInCU: 0x44F9D, offset: 0x44F9D, size: 0x8, addend: 0x0, symName: '__ZNSt3__112__tuple_leafILm0EONS_9allocatorIZ17setup_environmentvE3$_1EELb0EEC2B8ue170006IS3_vEEOT_', symObjAddr: 0x1CE98, symBinAddr: 0x10001DD6C, symSize: 0x20 }
  - { offsetInCU: 0x44FE0, offset: 0x44FE0, size: 0x8, addend: 0x0, symName: '__ZNSt3__117__compressed_pairIZ17setup_environmentvE3$_1NS_9allocatorIS1_EEEC2B8ue170006IJOS1_EJOS3_EEENS_21piecewise_construct_tENS_5tupleIJDpT_EEENS9_IJDpT0_EEE', symObjAddr: 0x1CEB8, symBinAddr: 0x10001DD8C, symSize: 0x54 }
  - { offsetInCU: 0x4504A, offset: 0x4504A, size: 0x8, addend: 0x0, symName: '__ZNSt3__122__compressed_pair_elemIZ17setup_environmentvE3$_1Li0ELb1EEC2B8ue170006IJOS1_EJLm0EEEENS_21piecewise_construct_tENS_5tupleIJDpT_EEENS_15__tuple_indicesIJXspT0_EEEE', symObjAddr: 0x1CF0C, symBinAddr: 0x10001DDE0, symSize: 0x38 }
  - { offsetInCU: 0x450AD, offset: 0x450AD, size: 0x8, addend: 0x0, symName: '__ZNSt3__122__compressed_pair_elemINS_9allocatorIZ17setup_environmentvE3$_1EELi1ELb1EEC2B8ue170006IJOS3_EJLm0EEEENS_21piecewise_construct_tENS_5tupleIJDpT_EEENS_15__tuple_indicesIJXspT0_EEEE', symObjAddr: 0x1CF44, symBinAddr: 0x10001DE18, symSize: 0x38 }
  - { offsetInCU: 0x45110, offset: 0x45110, size: 0x8, addend: 0x0, symName: '__ZNSt3__112__tuple_leafILm0EOZ17setup_environmentvE3$_1Lb0EE3getB8ue170006Ev', symObjAddr: 0x1CFA0, symBinAddr: 0x10001DE74, symSize: 0x18 }
  - { offsetInCU: 0x45136, offset: 0x45136, size: 0x8, addend: 0x0, symName: '__ZNSt3__112__tuple_leafILm0EONS_9allocatorIZ17setup_environmentvE3$_1EELb0EE3getB8ue170006Ev', symObjAddr: 0x1CFDC, symBinAddr: 0x10001DEB0, symSize: 0x18 }
  - { offsetInCU: 0x4515C, offset: 0x4515C, size: 0x8, addend: 0x0, symName: '__ZNSt3__110__function6__funcIZ17setup_environmentvE3$_1NS_9allocatorIS2_EEF5ValueRKNS_6vectorIS5_NS3_IS5_EEEEEED2Ev', symObjAddr: 0x1CFF4, symBinAddr: 0x10001DEC8, symSize: 0x2C }
  - { offsetInCU: 0x45189, offset: 0x45189, size: 0x8, addend: 0x0, symName: '__ZNKSt3__110__function12__alloc_funcIZ17setup_environmentvE3$_1NS_9allocatorIS2_EEF5ValueRKNS_6vectorIS5_NS3_IS5_EEEEEE15__get_allocatorB8ue170006Ev', symObjAddr: 0x1D020, symBinAddr: 0x10001DEF4, symSize: 0x24 }
  - { offsetInCU: 0x451AF, offset: 0x451AF, size: 0x8, addend: 0x0, symName: '__ZNSt3__19allocatorINS_10__function6__funcIZ17setup_environmentvE3$_1NS0_IS3_EEF5ValueRKNS_6vectorIS5_NS0_IS5_EEEEEEEE8allocateB8ue170006Em', symObjAddr: 0x1D044, symBinAddr: 0x10001DF18, symSize: 0x58 }
  - { offsetInCU: 0x451F2, offset: 0x451F2, size: 0x8, addend: 0x0, symName: '__ZNSt3__122__allocator_destructorINS_9allocatorINS_10__function6__funcIZ17setup_environmentvE3$_1NS1_IS4_EEF5ValueRKNS_6vectorIS6_NS1_IS6_EEEEEEEEEEC1B8ue170006ERSE_m', symObjAddr: 0x1D09C, symBinAddr: 0x10001DF70, symSize: 0x3C }
  - { offsetInCU: 0x452C9, offset: 0x452C9, size: 0x8, addend: 0x0, symName: '__ZNSt3__110unique_ptrINS_10__function6__funcIZ17setup_environmentvE3$_1NS_9allocatorIS3_EEF5ValueRKNS_6vectorIS6_NS4_IS6_EEEEEEENS_22__allocator_destructorINS4_ISD_EEEEEC1B8ue170006ILb1EvEEPSD_NS_16__dependent_typeINS_27__unique_ptr_deleter_sfinaeISG_EEXT_EE20__good_rval_ref_typeE', symObjAddr: 0x1D0D8, symBinAddr: 0x10001DFAC, symSize: 0x3C }
  - { offsetInCU: 0x4531A, offset: 0x4531A, size: 0x8, addend: 0x0, symName: '__ZNKSt3__110unique_ptrINS_10__function6__funcIZ17setup_environmentvE3$_1NS_9allocatorIS3_EEF5ValueRKNS_6vectorIS6_NS4_IS6_EEEEEEENS_22__allocator_destructorINS4_ISD_EEEEE3getB8ue170006Ev', symObjAddr: 0x1D114, symBinAddr: 0x10001DFE8, symSize: 0x28 }
  - { offsetInCU: 0x45340, offset: 0x45340, size: 0x8, addend: 0x0, symName: '__ZNKSt3__110__function12__alloc_funcIZ17setup_environmentvE3$_1NS_9allocatorIS2_EEF5ValueRKNS_6vectorIS5_NS3_IS5_EEEEEE8__targetB8ue170006Ev', symObjAddr: 0x1D13C, symBinAddr: 0x10001E010, symSize: 0x24 }
  - { offsetInCU: 0x45366, offset: 0x45366, size: 0x8, addend: 0x0, symName: '__ZNSt3__110__function6__funcIZ17setup_environmentvE3$_1NS_9allocatorIS2_EEF5ValueRKNS_6vectorIS5_NS3_IS5_EEEEEEC1B8ue170006ERKS2_OS4_', symObjAddr: 0x1D160, symBinAddr: 0x10001E034, symSize: 0x3C }
  - { offsetInCU: 0x453AE, offset: 0x453AE, size: 0x8, addend: 0x0, symName: '__ZNSt3__110unique_ptrINS_10__function6__funcIZ17setup_environmentvE3$_1NS_9allocatorIS3_EEF5ValueRKNS_6vectorIS6_NS4_IS6_EEEEEEENS_22__allocator_destructorINS4_ISD_EEEEE7releaseB8ue170006Ev', symObjAddr: 0x1D19C, symBinAddr: 0x10001E070, symSize: 0x44 }
  - { offsetInCU: 0x453E3, offset: 0x453E3, size: 0x8, addend: 0x0, symName: '__ZNSt3__110unique_ptrINS_10__function6__funcIZ17setup_environmentvE3$_1NS_9allocatorIS3_EEF5ValueRKNS_6vectorIS6_NS4_IS6_EEEEEEENS_22__allocator_destructorINS4_ISD_EEEEED1B8ue170006Ev', symObjAddr: 0x1D1E0, symBinAddr: 0x10001E0B4, symSize: 0x2C }
  - { offsetInCU: 0x4540D, offset: 0x4540D, size: 0x8, addend: 0x0, symName: '__ZNKSt3__117__compressed_pairIZ17setup_environmentvE3$_1NS_9allocatorIS1_EEE6secondB8ue170006Ev', symObjAddr: 0x1D20C, symBinAddr: 0x10001E0E0, symSize: 0x24 }
  - { offsetInCU: 0x45433, offset: 0x45433, size: 0x8, addend: 0x0, symName: '__ZNKSt3__122__compressed_pair_elemINS_9allocatorIZ17setup_environmentvE3$_1EELi1ELb1EE5__getB8ue170006Ev', symObjAddr: 0x1D230, symBinAddr: 0x10001E104, symSize: 0x14 }
  - { offsetInCU: 0x45463, offset: 0x45463, size: 0x8, addend: 0x0, symName: '__ZNSt3__116allocator_traitsINS_9allocatorINS_10__function6__funcIZ17setup_environmentvE3$_1NS1_IS4_EEF5ValueRKNS_6vectorIS6_NS1_IS6_EEEEEEEEEE8max_sizeB8ue170006ISE_vvEEmRKSE_', symObjAddr: 0x1D244, symBinAddr: 0x10001E118, symSize: 0x28 }
  - { offsetInCU: 0x4548F, offset: 0x4548F, size: 0x8, addend: 0x0, symName: '__ZNSt3__122__allocator_destructorINS_9allocatorINS_10__function6__funcIZ17setup_environmentvE3$_1NS1_IS4_EEF5ValueRKNS_6vectorIS6_NS1_IS6_EEEEEEEEEEC2B8ue170006ERSE_m', symObjAddr: 0x1D26C, symBinAddr: 0x10001E140, symSize: 0x2C }
  - { offsetInCU: 0x454D5, offset: 0x454D5, size: 0x8, addend: 0x0, symName: '__ZNSt3__110unique_ptrINS_10__function6__funcIZ17setup_environmentvE3$_1NS_9allocatorIS3_EEF5ValueRKNS_6vectorIS6_NS4_IS6_EEEEEEENS_22__allocator_destructorINS4_ISD_EEEEEC2B8ue170006ILb1EvEEPSD_NS_16__dependent_typeINS_27__unique_ptr_deleter_sfinaeISG_EEXT_EE20__good_rval_ref_typeE', symObjAddr: 0x1D298, symBinAddr: 0x10001E16C, symSize: 0x48 }
  - { offsetInCU: 0x45526, offset: 0x45526, size: 0x8, addend: 0x0, symName: '__ZNSt3__117__compressed_pairIPNS_10__function6__funcIZ17setup_environmentvE3$_1NS_9allocatorIS3_EEF5ValueRKNS_6vectorIS6_NS4_IS6_EEEEEEENS_22__allocator_destructorINS4_ISD_EEEEEC1B8ue170006IRSE_SH_EEOT_OT0_', symObjAddr: 0x1D2E0, symBinAddr: 0x10001E1B4, symSize: 0x3C }
  - { offsetInCU: 0x4557E, offset: 0x4557E, size: 0x8, addend: 0x0, symName: '__ZNSt3__117__compressed_pairIPNS_10__function6__funcIZ17setup_environmentvE3$_1NS_9allocatorIS3_EEF5ValueRKNS_6vectorIS6_NS4_IS6_EEEEEEENS_22__allocator_destructorINS4_ISD_EEEEEC2B8ue170006IRSE_SH_EEOT_OT0_', symObjAddr: 0x1D31C, symBinAddr: 0x10001E1F0, symSize: 0x48 }
  - { offsetInCU: 0x455D6, offset: 0x455D6, size: 0x8, addend: 0x0, symName: '__ZNSt3__122__compressed_pair_elemIPNS_10__function6__funcIZ17setup_environmentvE3$_1NS_9allocatorIS3_EEF5ValueRKNS_6vectorIS6_NS4_IS6_EEEEEEELi0ELb0EEC2B8ue170006IRSE_vEEOT_', symObjAddr: 0x1D364, symBinAddr: 0x10001E238, symSize: 0x24 }
  - { offsetInCU: 0x45618, offset: 0x45618, size: 0x8, addend: 0x0, symName: '__ZNSt3__122__compressed_pair_elemINS_22__allocator_destructorINS_9allocatorINS_10__function6__funcIZ17setup_environmentvE3$_1NS2_IS5_EEF5ValueRKNS_6vectorIS7_NS2_IS7_EEEEEEEEEEELi1ELb0EEC2B8ue170006ISG_vEEOT_', symObjAddr: 0x1D388, symBinAddr: 0x10001E25C, symSize: 0x24 }
  - { offsetInCU: 0x4565A, offset: 0x4565A, size: 0x8, addend: 0x0, symName: '__ZNKSt3__117__compressed_pairIPNS_10__function6__funcIZ17setup_environmentvE3$_1NS_9allocatorIS3_EEF5ValueRKNS_6vectorIS6_NS4_IS6_EEEEEEENS_22__allocator_destructorINS4_ISD_EEEEE5firstB8ue170006Ev', symObjAddr: 0x1D3AC, symBinAddr: 0x10001E280, symSize: 0x24 }
  - { offsetInCU: 0x45680, offset: 0x45680, size: 0x8, addend: 0x0, symName: '__ZNKSt3__122__compressed_pair_elemIPNS_10__function6__funcIZ17setup_environmentvE3$_1NS_9allocatorIS3_EEF5ValueRKNS_6vectorIS6_NS4_IS6_EEEEEEELi0ELb0EE5__getB8ue170006Ev', symObjAddr: 0x1D3D0, symBinAddr: 0x10001E2A4, symSize: 0x14 }
  - { offsetInCU: 0x456A6, offset: 0x456A6, size: 0x8, addend: 0x0, symName: '__ZNKSt3__117__compressed_pairIZ17setup_environmentvE3$_1NS_9allocatorIS1_EEE5firstB8ue170006Ev', symObjAddr: 0x1D3E4, symBinAddr: 0x10001E2B8, symSize: 0x24 }
  - { offsetInCU: 0x456CC, offset: 0x456CC, size: 0x8, addend: 0x0, symName: '__ZNKSt3__122__compressed_pair_elemIZ17setup_environmentvE3$_1Li0ELb1EE5__getB8ue170006Ev', symObjAddr: 0x1D408, symBinAddr: 0x10001E2DC, symSize: 0x14 }
  - { offsetInCU: 0x456F2, offset: 0x456F2, size: 0x8, addend: 0x0, symName: '__ZNSt3__110__function6__funcIZ17setup_environmentvE3$_1NS_9allocatorIS2_EEF5ValueRKNS_6vectorIS5_NS3_IS5_EEEEEEC2B8ue170006ERKS2_OS4_', symObjAddr: 0x1D41C, symBinAddr: 0x10001E2F0, symSize: 0x88 }
  - { offsetInCU: 0x4573A, offset: 0x4573A, size: 0x8, addend: 0x0, symName: '__ZNSt3__110__function12__alloc_funcIZ17setup_environmentvE3$_1NS_9allocatorIS2_EEF5ValueRKNS_6vectorIS5_NS3_IS5_EEEEEEC1B8ue170006ERKS2_OS4_', symObjAddr: 0x1D4A4, symBinAddr: 0x10001E378, symSize: 0x3C }
  - { offsetInCU: 0x45780, offset: 0x45780, size: 0x8, addend: 0x0, symName: '__ZNSt3__110__function12__alloc_funcIZ17setup_environmentvE3$_1NS_9allocatorIS2_EEF5ValueRKNS_6vectorIS5_NS3_IS5_EEEEEEC2B8ue170006ERKS2_OS4_', symObjAddr: 0x1D4E0, symBinAddr: 0x10001E3B4, symSize: 0x5C }
  - { offsetInCU: 0x457C6, offset: 0x457C6, size: 0x8, addend: 0x0, symName: '__ZNSt3__117__compressed_pairIZ17setup_environmentvE3$_1NS_9allocatorIS1_EEEC1B8ue170006IJRKS1_EJOS3_EEENS_21piecewise_construct_tENS_5tupleIJDpT_EEENSA_IJDpT0_EEE', symObjAddr: 0x1D568, symBinAddr: 0x10001E43C, symSize: 0x3C }
  - { offsetInCU: 0x45830, offset: 0x45830, size: 0x8, addend: 0x0, symName: '__ZNSt3__15tupleIJRKZ17setup_environmentvE3$_1EEC1B8ue170006INS_4_AndELi0EEES3_', symObjAddr: 0x1D5A4, symBinAddr: 0x10001E478, symSize: 0x34 }
  - { offsetInCU: 0x45879, offset: 0x45879, size: 0x8, addend: 0x0, symName: '__ZNSt3__15tupleIJRKZ17setup_environmentvE3$_1EEC2B8ue170006INS_4_AndELi0EEES3_', symObjAddr: 0x1D5D8, symBinAddr: 0x10001E4AC, symSize: 0x34 }
  - { offsetInCU: 0x458C2, offset: 0x458C2, size: 0x8, addend: 0x0, symName: '__ZNSt3__112__tuple_implINS_15__tuple_indicesIJLm0EEEEJRKZ17setup_environmentvE3$_1EEC1B8ue170006IJLm0EEJS5_EJEJEJS5_EEENS1_IJXspT_EEEENS_13__tuple_typesIJDpT0_EEENS1_IJXspT1_EEEENS9_IJDpT2_EEEDpOT3_', symObjAddr: 0x1D60C, symBinAddr: 0x10001E4E0, symSize: 0x34 }
  - { offsetInCU: 0x45957, offset: 0x45957, size: 0x8, addend: 0x0, symName: '__ZNSt3__112__tuple_implINS_15__tuple_indicesIJLm0EEEEJRKZ17setup_environmentvE3$_1EEC2B8ue170006IJLm0EEJS5_EJEJEJS5_EEENS1_IJXspT_EEEENS_13__tuple_typesIJDpT0_EEENS1_IJXspT1_EEEENS9_IJDpT2_EEEDpOT3_', symObjAddr: 0x1D640, symBinAddr: 0x10001E514, symSize: 0x34 }
  - { offsetInCU: 0x459EC, offset: 0x459EC, size: 0x8, addend: 0x0, symName: '__ZNSt3__112__tuple_leafILm0ERKZ17setup_environmentvE3$_1Lb0EEC2B8ue170006IS3_vEEOT_', symObjAddr: 0x1D674, symBinAddr: 0x10001E548, symSize: 0x20 }
  - { offsetInCU: 0x45A2F, offset: 0x45A2F, size: 0x8, addend: 0x0, symName: '__ZNSt3__117__compressed_pairIZ17setup_environmentvE3$_1NS_9allocatorIS1_EEEC2B8ue170006IJRKS1_EJOS3_EEENS_21piecewise_construct_tENS_5tupleIJDpT_EEENSA_IJDpT0_EEE', symObjAddr: 0x1D694, symBinAddr: 0x10001E568, symSize: 0x54 }
  - { offsetInCU: 0x45A99, offset: 0x45A99, size: 0x8, addend: 0x0, symName: '__ZNSt3__122__compressed_pair_elemIZ17setup_environmentvE3$_1Li0ELb1EEC2B8ue170006IJRKS1_EJLm0EEEENS_21piecewise_construct_tENS_5tupleIJDpT_EEENS_15__tuple_indicesIJXspT0_EEEE', symObjAddr: 0x1D6E8, symBinAddr: 0x10001E5BC, symSize: 0x38 }
  - { offsetInCU: 0x45AFC, offset: 0x45AFC, size: 0x8, addend: 0x0, symName: '__ZNSt3__112__tuple_leafILm0ERKZ17setup_environmentvE3$_1Lb0EE3getB8ue170006Ev', symObjAddr: 0x1D744, symBinAddr: 0x10001E618, symSize: 0x18 }
  - { offsetInCU: 0x45B22, offset: 0x45B22, size: 0x8, addend: 0x0, symName: '__ZNSt3__117__compressed_pairIPNS_10__function6__funcIZ17setup_environmentvE3$_1NS_9allocatorIS3_EEF5ValueRKNS_6vectorIS6_NS4_IS6_EEEEEEENS_22__allocator_destructorINS4_ISD_EEEEE5firstB8ue170006Ev', symObjAddr: 0x1D75C, symBinAddr: 0x10001E630, symSize: 0x24 }
  - { offsetInCU: 0x45B48, offset: 0x45B48, size: 0x8, addend: 0x0, symName: '__ZNSt3__122__compressed_pair_elemIPNS_10__function6__funcIZ17setup_environmentvE3$_1NS_9allocatorIS3_EEF5ValueRKNS_6vectorIS6_NS4_IS6_EEEEEEELi0ELb0EE5__getB8ue170006Ev', symObjAddr: 0x1D780, symBinAddr: 0x10001E654, symSize: 0x14 }
  - { offsetInCU: 0x45B6E, offset: 0x45B6E, size: 0x8, addend: 0x0, symName: '__ZNSt3__110unique_ptrINS_10__function6__funcIZ17setup_environmentvE3$_1NS_9allocatorIS3_EEF5ValueRKNS_6vectorIS6_NS4_IS6_EEEEEEENS_22__allocator_destructorINS4_ISD_EEEEED2B8ue170006Ev', symObjAddr: 0x1D794, symBinAddr: 0x10001E668, symSize: 0x30 }
  - { offsetInCU: 0x45B98, offset: 0x45B98, size: 0x8, addend: 0x0, symName: '__ZNSt3__110unique_ptrINS_10__function6__funcIZ17setup_environmentvE3$_1NS_9allocatorIS3_EEF5ValueRKNS_6vectorIS6_NS4_IS6_EEEEEEENS_22__allocator_destructorINS4_ISD_EEEEE5resetB8ue170006EPSD_', symObjAddr: 0x1D7C4, symBinAddr: 0x10001E698, symSize: 0x78 }
  - { offsetInCU: 0x45BDC, offset: 0x45BDC, size: 0x8, addend: 0x0, symName: '__ZNSt3__117__compressed_pairIPNS_10__function6__funcIZ17setup_environmentvE3$_1NS_9allocatorIS3_EEF5ValueRKNS_6vectorIS6_NS4_IS6_EEEEEEENS_22__allocator_destructorINS4_ISD_EEEEE6secondB8ue170006Ev', symObjAddr: 0x1D83C, symBinAddr: 0x10001E710, symSize: 0x28 }
  - { offsetInCU: 0x45C02, offset: 0x45C02, size: 0x8, addend: 0x0, symName: '__ZNSt3__122__allocator_destructorINS_9allocatorINS_10__function6__funcIZ17setup_environmentvE3$_1NS1_IS4_EEF5ValueRKNS_6vectorIS6_NS1_IS6_EEEEEEEEEEclB8ue170006EPSD_', symObjAddr: 0x1D864, symBinAddr: 0x10001E738, symSize: 0x34 }
  - { offsetInCU: 0x45C36, offset: 0x45C36, size: 0x8, addend: 0x0, symName: '__ZNSt3__122__compressed_pair_elemINS_22__allocator_destructorINS_9allocatorINS_10__function6__funcIZ17setup_environmentvE3$_1NS2_IS5_EEF5ValueRKNS_6vectorIS7_NS2_IS7_EEEEEEEEEEELi1ELb0EE5__getB8ue170006Ev', symObjAddr: 0x1D898, symBinAddr: 0x10001E76C, symSize: 0x14 }
  - { offsetInCU: 0x45C5C, offset: 0x45C5C, size: 0x8, addend: 0x0, symName: '__ZNSt3__116allocator_traitsINS_9allocatorINS_10__function6__funcIZ17setup_environmentvE3$_1NS1_IS4_EEF5ValueRKNS_6vectorIS6_NS1_IS6_EEEEEEEEEE10deallocateB8ue170006ERSE_PSD_m', symObjAddr: 0x1D8AC, symBinAddr: 0x10001E780, symSize: 0x34 }
  - { offsetInCU: 0x45C9E, offset: 0x45C9E, size: 0x8, addend: 0x0, symName: '__ZNSt3__19allocatorINS_10__function6__funcIZ17setup_environmentvE3$_1NS0_IS3_EEF5ValueRKNS_6vectorIS5_NS0_IS5_EEEEEEEE10deallocateB8ue170006EPSC_m', symObjAddr: 0x1D8E0, symBinAddr: 0x10001E7B4, symSize: 0x40 }
  - { offsetInCU: 0x45CE0, offset: 0x45CE0, size: 0x8, addend: 0x0, symName: '__ZNSt3__110__function6__funcIZ17setup_environmentvE3$_1NS_9allocatorIS2_EEF5ValueRKNS_6vectorIS5_NS3_IS5_EEEEEEC1B8ue170006ERKS2_RKS4_', symObjAddr: 0x1D920, symBinAddr: 0x10001E7F4, symSize: 0x3C }
  - { offsetInCU: 0x45D28, offset: 0x45D28, size: 0x8, addend: 0x0, symName: '__ZNSt3__110__function6__funcIZ17setup_environmentvE3$_1NS_9allocatorIS2_EEF5ValueRKNS_6vectorIS5_NS3_IS5_EEEEEEC2B8ue170006ERKS2_RKS4_', symObjAddr: 0x1D95C, symBinAddr: 0x10001E830, symSize: 0x88 }
  - { offsetInCU: 0x45D70, offset: 0x45D70, size: 0x8, addend: 0x0, symName: '__ZNSt3__110__function12__alloc_funcIZ17setup_environmentvE3$_1NS_9allocatorIS2_EEF5ValueRKNS_6vectorIS5_NS3_IS5_EEEEEEC1B8ue170006ERKS2_RKS4_', symObjAddr: 0x1D9E4, symBinAddr: 0x10001E8B8, symSize: 0x3C }
  - { offsetInCU: 0x45DB6, offset: 0x45DB6, size: 0x8, addend: 0x0, symName: '__ZNSt3__110__function12__alloc_funcIZ17setup_environmentvE3$_1NS_9allocatorIS2_EEF5ValueRKNS_6vectorIS5_NS3_IS5_EEEEEEC2B8ue170006ERKS2_RKS4_', symObjAddr: 0x1DA20, symBinAddr: 0x10001E8F4, symSize: 0x5C }
  - { offsetInCU: 0x45DFC, offset: 0x45DFC, size: 0x8, addend: 0x0, symName: '__ZNSt3__117__compressed_pairIZ17setup_environmentvE3$_1NS_9allocatorIS1_EEEC1B8ue170006IJRKS1_EJRKS3_EEENS_21piecewise_construct_tENS_5tupleIJDpT_EEENSB_IJDpT0_EEE', symObjAddr: 0x1DAA8, symBinAddr: 0x10001E97C, symSize: 0x3C }
  - { offsetInCU: 0x45E66, offset: 0x45E66, size: 0x8, addend: 0x0, symName: '__ZNSt3__15tupleIJRKNS_9allocatorIZ17setup_environmentvE3$_1EEEEC1B8ue170006INS_4_AndELi0EEES5_', symObjAddr: 0x1DAE4, symBinAddr: 0x10001E9B8, symSize: 0x34 }
  - { offsetInCU: 0x45EAF, offset: 0x45EAF, size: 0x8, addend: 0x0, symName: '__ZNSt3__15tupleIJRKNS_9allocatorIZ17setup_environmentvE3$_1EEEEC2B8ue170006INS_4_AndELi0EEES5_', symObjAddr: 0x1DB18, symBinAddr: 0x10001E9EC, symSize: 0x34 }
  - { offsetInCU: 0x45EF8, offset: 0x45EF8, size: 0x8, addend: 0x0, symName: '__ZNSt3__112__tuple_implINS_15__tuple_indicesIJLm0EEEEJRKNS_9allocatorIZ17setup_environmentvE3$_1EEEEC1B8ue170006IJLm0EEJS7_EJEJEJS7_EEENS1_IJXspT_EEEENS_13__tuple_typesIJDpT0_EEENS1_IJXspT1_EEEENSB_IJDpT2_EEEDpOT3_', symObjAddr: 0x1DB4C, symBinAddr: 0x10001EA20, symSize: 0x34 }
  - { offsetInCU: 0x45F8D, offset: 0x45F8D, size: 0x8, addend: 0x0, symName: '__ZNSt3__112__tuple_implINS_15__tuple_indicesIJLm0EEEEJRKNS_9allocatorIZ17setup_environmentvE3$_1EEEEC2B8ue170006IJLm0EEJS7_EJEJEJS7_EEENS1_IJXspT_EEEENS_13__tuple_typesIJDpT0_EEENS1_IJXspT1_EEEENSB_IJDpT2_EEEDpOT3_', symObjAddr: 0x1DB80, symBinAddr: 0x10001EA54, symSize: 0x34 }
  - { offsetInCU: 0x46022, offset: 0x46022, size: 0x8, addend: 0x0, symName: '__ZNSt3__112__tuple_leafILm0ERKNS_9allocatorIZ17setup_environmentvE3$_1EELb0EEC2B8ue170006IS5_vEEOT_', symObjAddr: 0x1DBB4, symBinAddr: 0x10001EA88, symSize: 0x20 }
  - { offsetInCU: 0x46065, offset: 0x46065, size: 0x8, addend: 0x0, symName: '__ZNSt3__117__compressed_pairIZ17setup_environmentvE3$_1NS_9allocatorIS1_EEEC2B8ue170006IJRKS1_EJRKS3_EEENS_21piecewise_construct_tENS_5tupleIJDpT_EEENSB_IJDpT0_EEE', symObjAddr: 0x1DBD4, symBinAddr: 0x10001EAA8, symSize: 0x54 }
  - { offsetInCU: 0x460CF, offset: 0x460CF, size: 0x8, addend: 0x0, symName: '__ZNSt3__122__compressed_pair_elemINS_9allocatorIZ17setup_environmentvE3$_1EELi1ELb1EEC2B8ue170006IJRKS3_EJLm0EEEENS_21piecewise_construct_tENS_5tupleIJDpT_EEENS_15__tuple_indicesIJXspT0_EEEE', symObjAddr: 0x1DC28, symBinAddr: 0x10001EAFC, symSize: 0x38 }
  - { offsetInCU: 0x46132, offset: 0x46132, size: 0x8, addend: 0x0, symName: '__ZNSt3__112__tuple_leafILm0ERKNS_9allocatorIZ17setup_environmentvE3$_1EELb0EE3getB8ue170006Ev', symObjAddr: 0x1DC84, symBinAddr: 0x10001EB58, symSize: 0x18 }
  - { offsetInCU: 0x46158, offset: 0x46158, size: 0x8, addend: 0x0, symName: '__ZNSt3__110__function12__alloc_funcIZ17setup_environmentvE3$_1NS_9allocatorIS2_EEF5ValueRKNS_6vectorIS5_NS3_IS5_EEEEEE7destroyB8ue170006Ev', symObjAddr: 0x1DC9C, symBinAddr: 0x10001EB70, symSize: 0x10 }
  - { offsetInCU: 0x4617E, offset: 0x4617E, size: 0x8, addend: 0x0, symName: '__ZNSt3__110__function12__alloc_funcIZ17setup_environmentvE3$_1NS_9allocatorIS2_EEF5ValueRKNS_6vectorIS5_NS3_IS5_EEEEEEclB8ue170006ESA_', symObjAddr: 0x1DCAC, symBinAddr: 0x10001EB80, symSize: 0x3C }
  - { offsetInCU: 0x461B2, offset: 0x461B2, size: 0x8, addend: 0x0, symName: '__ZNSt3__128__invoke_void_return_wrapperI5ValueLb0EE6__callB8ue170006IJRZ17setup_environmentvE3$_1RKNS_6vectorIS1_NS_9allocatorIS1_EEEEEEES1_DpOT_', symObjAddr: 0x1DCE8, symBinAddr: 0x10001EBBC, symSize: 0x34 }
  - { offsetInCU: 0x461F5, offset: 0x461F5, size: 0x8, addend: 0x0, symName: '__ZNSt3__117__compressed_pairIZ17setup_environmentvE3$_1NS_9allocatorIS1_EEE5firstB8ue170006Ev', symObjAddr: 0x1DD1C, symBinAddr: 0x10001EBF0, symSize: 0x24 }
  - { offsetInCU: 0x4621B, offset: 0x4621B, size: 0x8, addend: 0x0, symName: '__ZZ17setup_environmentvENK3$_1clERKNSt3__16vectorI5ValueNS0_9allocatorIS2_EEEE', symObjAddr: 0x1DD74, symBinAddr: 0x10001EC48, symSize: 0x118 }
  - { offsetInCU: 0x46253, offset: 0x46253, size: 0x8, addend: 0x0, symName: __ZNKSt3__112basic_stringIcNS_11char_traitsIcEENS_9allocatorIcEEE6lengthB8ue170006Ev, symObjAddr: 0x1DE8C, symBinAddr: 0x10001ED60, symSize: 0x24 }
  - { offsetInCU: 0x46279, offset: 0x46279, size: 0x8, addend: 0x0, symName: '__ZNSt3__122__compressed_pair_elemIZ17setup_environmentvE3$_1Li0ELb1EE5__getB8ue170006Ev', symObjAddr: 0x1DEB0, symBinAddr: 0x10001ED84, symSize: 0x14 }
  - { offsetInCU: 0x4629F, offset: 0x4629F, size: 0x8, addend: 0x0, symName: '__ZNSt3__18functionIF5ValueRKNS_6vectorIS1_NS_9allocatorIS1_EEEEEEC2IZ17setup_environmentvE3$_2vEET_', symObjAddr: 0x1DEC4, symBinAddr: 0x10001ED98, symSize: 0x30 }
  - { offsetInCU: 0x462E4, offset: 0x462E4, size: 0x8, addend: 0x0, symName: '__ZNSt3__110__function12__value_funcIF5ValueRKNS_6vectorIS2_NS_9allocatorIS2_EEEEEEC1B8ue170006IZ17setup_environmentvE3$_2vEEOT_', symObjAddr: 0x1DEF4, symBinAddr: 0x10001EDC8, symSize: 0x50 }
  - { offsetInCU: 0x46327, offset: 0x46327, size: 0x8, addend: 0x0, symName: '__ZNSt3__19allocatorIZ17setup_environmentvE3$_2EC1B8ue170006Ev', symObjAddr: 0x1DF44, symBinAddr: 0x10001EE18, symSize: 0x2C }
  - { offsetInCU: 0x46351, offset: 0x46351, size: 0x8, addend: 0x0, symName: '__ZNSt3__110__function12__value_funcIF5ValueRKNS_6vectorIS2_NS_9allocatorIS2_EEEEEEC1B8ue170006IZ17setup_environmentvE3$_2NS4_ISC_EEEEOT_RKT0_', symObjAddr: 0x1DF70, symBinAddr: 0x10001EE44, symSize: 0x3C }
  - { offsetInCU: 0x463AB, offset: 0x463AB, size: 0x8, addend: 0x0, symName: '__ZNSt3__19allocatorIZ17setup_environmentvE3$_2EC2B8ue170006Ev', symObjAddr: 0x1DFAC, symBinAddr: 0x10001EE80, symSize: 0x2C }
  - { offsetInCU: 0x463D5, offset: 0x463D5, size: 0x8, addend: 0x0, symName: '__ZNSt3__116__non_trivial_ifILb1ENS_9allocatorIZ17setup_environmentvE3$_2EEEC2B8ue170006Ev', symObjAddr: 0x1DFD8, symBinAddr: 0x10001EEAC, symSize: 0x14 }
  - { offsetInCU: 0x463FF, offset: 0x463FF, size: 0x8, addend: 0x0, symName: '__ZNSt3__110__function12__value_funcIF5ValueRKNS_6vectorIS2_NS_9allocatorIS2_EEEEEEC2B8ue170006IZ17setup_environmentvE3$_2NS4_ISC_EEEEOT_RKT0_', symObjAddr: 0x1DFEC, symBinAddr: 0x10001EEC0, symSize: 0x94 }
  - { offsetInCU: 0x4648C, offset: 0x4648C, size: 0x8, addend: 0x0, symName: '__ZNSt3__19allocatorINS_10__function6__funcIZ17setup_environmentvE3$_2NS0_IS3_EEF5ValueRKNS_6vectorIS5_NS0_IS5_EEEEEEEEC1B8ue170006IS3_EERKNS0_IT_EE', symObjAddr: 0x1E098, symBinAddr: 0x10001EF6C, symSize: 0x34 }
  - { offsetInCU: 0x464D3, offset: 0x464D3, size: 0x8, addend: 0x0, symName: '__ZNSt3__19allocatorIZ17setup_environmentvE3$_2EC1B8ue170006INS_10__function6__funcIS1_S2_F5ValueRKNS_6vectorIS6_NS0_IS6_EEEEEEEEERKNS0_IT_EE', symObjAddr: 0x1E0CC, symBinAddr: 0x10001EFA0, symSize: 0x34 }
  - { offsetInCU: 0x46510, offset: 0x46510, size: 0x8, addend: 0x0, symName: '__ZNSt3__110__function6__funcIZ17setup_environmentvE3$_2NS_9allocatorIS2_EEF5ValueRKNS_6vectorIS5_NS3_IS5_EEEEEEC1B8ue170006EOS2_OS4_', symObjAddr: 0x1E100, symBinAddr: 0x10001EFD4, symSize: 0x3C }
  - { offsetInCU: 0x46558, offset: 0x46558, size: 0x8, addend: 0x0, symName: '__ZNSt3__19allocatorINS_10__function6__funcIZ17setup_environmentvE3$_2NS0_IS3_EEF5ValueRKNS_6vectorIS5_NS0_IS5_EEEEEEEEC2B8ue170006IS3_EERKNS0_IT_EE', symObjAddr: 0x1E13C, symBinAddr: 0x10001F010, symSize: 0x30 }
  - { offsetInCU: 0x46595, offset: 0x46595, size: 0x8, addend: 0x0, symName: '__ZNSt3__116__non_trivial_ifILb1ENS_9allocatorINS_10__function6__funcIZ17setup_environmentvE3$_2NS1_IS4_EEF5ValueRKNS_6vectorIS6_NS1_IS6_EEEEEEEEEEC2B8ue170006Ev', symObjAddr: 0x1E16C, symBinAddr: 0x10001F040, symSize: 0x14 }
  - { offsetInCU: 0x465BF, offset: 0x465BF, size: 0x8, addend: 0x0, symName: '__ZNSt3__19allocatorIZ17setup_environmentvE3$_2EC2B8ue170006INS_10__function6__funcIS1_S2_F5ValueRKNS_6vectorIS6_NS0_IS6_EEEEEEEEERKNS0_IT_EE', symObjAddr: 0x1E180, symBinAddr: 0x10001F054, symSize: 0x30 }
  - { offsetInCU: 0x465FC, offset: 0x465FC, size: 0x8, addend: 0x0, symName: '__ZNSt3__110__function6__funcIZ17setup_environmentvE3$_2NS_9allocatorIS2_EEF5ValueRKNS_6vectorIS5_NS3_IS5_EEEEEEC2B8ue170006EOS2_OS4_', symObjAddr: 0x1E1B0, symBinAddr: 0x10001F084, symSize: 0x88 }
  - { offsetInCU: 0x46644, offset: 0x46644, size: 0x8, addend: 0x0, symName: '__ZNSt3__110__function12__alloc_funcIZ17setup_environmentvE3$_2NS_9allocatorIS2_EEF5ValueRKNS_6vectorIS5_NS3_IS5_EEEEEEC1B8ue170006EOS2_OS4_', symObjAddr: 0x1E238, symBinAddr: 0x10001F10C, symSize: 0x3C }
  - { offsetInCU: 0x4668A, offset: 0x4668A, size: 0x8, addend: 0x0, symName: '__ZNSt3__110__function6__funcIZ17setup_environmentvE3$_2NS_9allocatorIS2_EEF5ValueRKNS_6vectorIS5_NS3_IS5_EEEEEED1Ev', symObjAddr: 0x1E274, symBinAddr: 0x10001F148, symSize: 0x2C }
  - { offsetInCU: 0x466B7, offset: 0x466B7, size: 0x8, addend: 0x0, symName: '__ZNSt3__110__function6__funcIZ17setup_environmentvE3$_2NS_9allocatorIS2_EEF5ValueRKNS_6vectorIS5_NS3_IS5_EEEEEED0Ev', symObjAddr: 0x1E2A0, symBinAddr: 0x10001F174, symSize: 0x30 }
  - { offsetInCU: 0x466E4, offset: 0x466E4, size: 0x8, addend: 0x0, symName: '__ZNKSt3__110__function6__funcIZ17setup_environmentvE3$_2NS_9allocatorIS2_EEF5ValueRKNS_6vectorIS5_NS3_IS5_EEEEEE7__cloneEv', symObjAddr: 0x1E2D0, symBinAddr: 0x10001F1A4, symSize: 0xFC }
  - { offsetInCU: 0x46736, offset: 0x46736, size: 0x8, addend: 0x0, symName: '__ZNKSt3__110__function6__funcIZ17setup_environmentvE3$_2NS_9allocatorIS2_EEF5ValueRKNS_6vectorIS5_NS3_IS5_EEEEEE7__cloneEPNS0_6__baseISB_EE', symObjAddr: 0x1E3CC, symBinAddr: 0x10001F2A0, symSize: 0x58 }
  - { offsetInCU: 0x4676D, offset: 0x4676D, size: 0x8, addend: 0x0, symName: '__ZNSt3__110__function6__funcIZ17setup_environmentvE3$_2NS_9allocatorIS2_EEF5ValueRKNS_6vectorIS5_NS3_IS5_EEEEEE7destroyEv', symObjAddr: 0x1E424, symBinAddr: 0x10001F2F8, symSize: 0x28 }
  - { offsetInCU: 0x46795, offset: 0x46795, size: 0x8, addend: 0x0, symName: '__ZNSt3__110__function6__funcIZ17setup_environmentvE3$_2NS_9allocatorIS2_EEF5ValueRKNS_6vectorIS5_NS3_IS5_EEEEEE18destroy_deallocateEv', symObjAddr: 0x1E44C, symBinAddr: 0x10001F320, symSize: 0x58 }
  - { offsetInCU: 0x467D8, offset: 0x467D8, size: 0x8, addend: 0x0, symName: '__ZNSt3__110__function6__funcIZ17setup_environmentvE3$_2NS_9allocatorIS2_EEF5ValueRKNS_6vectorIS5_NS3_IS5_EEEEEEclESA_', symObjAddr: 0x1E4A4, symBinAddr: 0x10001F378, symSize: 0x38 }
  - { offsetInCU: 0x4680F, offset: 0x4680F, size: 0x8, addend: 0x0, symName: '__ZNKSt3__110__function6__funcIZ17setup_environmentvE3$_2NS_9allocatorIS2_EEF5ValueRKNS_6vectorIS5_NS3_IS5_EEEEEE6targetERKSt9type_info', symObjAddr: 0x1E4DC, symBinAddr: 0x10001F3B0, symSize: 0x60 }
  - { offsetInCU: 0x46846, offset: 0x46846, size: 0x8, addend: 0x0, symName: '__ZNKSt3__110__function6__funcIZ17setup_environmentvE3$_2NS_9allocatorIS2_EEF5ValueRKNS_6vectorIS5_NS3_IS5_EEEEEE11target_typeEv', symObjAddr: 0x1E53C, symBinAddr: 0x10001F410, symSize: 0x18 }
  - { offsetInCU: 0x4686E, offset: 0x4686E, size: 0x8, addend: 0x0, symName: '__ZNSt3__110__function12__alloc_funcIZ17setup_environmentvE3$_2NS_9allocatorIS2_EEF5ValueRKNS_6vectorIS5_NS3_IS5_EEEEEEC2B8ue170006EOS2_OS4_', symObjAddr: 0x1E554, symBinAddr: 0x10001F428, symSize: 0x5C }
  - { offsetInCU: 0x468B4, offset: 0x468B4, size: 0x8, addend: 0x0, symName: '__ZNSt3__117__compressed_pairIZ17setup_environmentvE3$_2NS_9allocatorIS1_EEEC1B8ue170006IJOS1_EJOS3_EEENS_21piecewise_construct_tENS_5tupleIJDpT_EEENS9_IJDpT0_EEE', symObjAddr: 0x1E608, symBinAddr: 0x10001F4DC, symSize: 0x3C }
  - { offsetInCU: 0x4691E, offset: 0x4691E, size: 0x8, addend: 0x0, symName: '__ZNSt3__15tupleIJOZ17setup_environmentvE3$_2EEC1B8ue170006IJS1_ELi0EEEDpOT_', symObjAddr: 0x1E644, symBinAddr: 0x10001F518, symSize: 0x34 }
  - { offsetInCU: 0x46968, offset: 0x46968, size: 0x8, addend: 0x0, symName: '__ZNSt3__15tupleIJOZ17setup_environmentvE3$_2EEC2B8ue170006IJS1_ELi0EEEDpOT_', symObjAddr: 0x1E678, symBinAddr: 0x10001F54C, symSize: 0x34 }
  - { offsetInCU: 0x469B2, offset: 0x469B2, size: 0x8, addend: 0x0, symName: '__ZNSt3__112__tuple_implINS_15__tuple_indicesIJLm0EEEEJOZ17setup_environmentvE3$_2EEC1B8ue170006IJLm0EEJS4_EJEJEJS3_EEENS1_IJXspT_EEEENS_13__tuple_typesIJDpT0_EEENS1_IJXspT1_EEEENS8_IJDpT2_EEEDpOT3_', symObjAddr: 0x1E6AC, symBinAddr: 0x10001F580, symSize: 0x34 }
  - { offsetInCU: 0x46A47, offset: 0x46A47, size: 0x8, addend: 0x0, symName: '__ZNSt3__112__tuple_implINS_15__tuple_indicesIJLm0EEEEJOZ17setup_environmentvE3$_2EEC2B8ue170006IJLm0EEJS4_EJEJEJS3_EEENS1_IJXspT_EEEENS_13__tuple_typesIJDpT0_EEENS1_IJXspT1_EEEENS8_IJDpT2_EEEDpOT3_', symObjAddr: 0x1E6E0, symBinAddr: 0x10001F5B4, symSize: 0x34 }
  - { offsetInCU: 0x46ADC, offset: 0x46ADC, size: 0x8, addend: 0x0, symName: '__ZNSt3__112__tuple_leafILm0EOZ17setup_environmentvE3$_2Lb0EEC2B8ue170006IS1_vEEOT_', symObjAddr: 0x1E714, symBinAddr: 0x10001F5E8, symSize: 0x20 }
  - { offsetInCU: 0x46B1F, offset: 0x46B1F, size: 0x8, addend: 0x0, symName: '__ZNSt3__15tupleIJONS_9allocatorIZ17setup_environmentvE3$_2EEEEC1B8ue170006IJS3_ELi0EEEDpOT_', symObjAddr: 0x1E734, symBinAddr: 0x10001F608, symSize: 0x34 }
  - { offsetInCU: 0x46B69, offset: 0x46B69, size: 0x8, addend: 0x0, symName: '__ZNSt3__15tupleIJONS_9allocatorIZ17setup_environmentvE3$_2EEEEC2B8ue170006IJS3_ELi0EEEDpOT_', symObjAddr: 0x1E768, symBinAddr: 0x10001F63C, symSize: 0x34 }
  - { offsetInCU: 0x46BB3, offset: 0x46BB3, size: 0x8, addend: 0x0, symName: '__ZNSt3__112__tuple_implINS_15__tuple_indicesIJLm0EEEEJONS_9allocatorIZ17setup_environmentvE3$_2EEEEC1B8ue170006IJLm0EEJS6_EJEJEJS5_EEENS1_IJXspT_EEEENS_13__tuple_typesIJDpT0_EEENS1_IJXspT1_EEEENSA_IJDpT2_EEEDpOT3_', symObjAddr: 0x1E79C, symBinAddr: 0x10001F670, symSize: 0x34 }
  - { offsetInCU: 0x46C48, offset: 0x46C48, size: 0x8, addend: 0x0, symName: '__ZNSt3__112__tuple_implINS_15__tuple_indicesIJLm0EEEEJONS_9allocatorIZ17setup_environmentvE3$_2EEEEC2B8ue170006IJLm0EEJS6_EJEJEJS5_EEENS1_IJXspT_EEEENS_13__tuple_typesIJDpT0_EEENS1_IJXspT1_EEEENSA_IJDpT2_EEEDpOT3_', symObjAddr: 0x1E7D0, symBinAddr: 0x10001F6A4, symSize: 0x34 }
  - { offsetInCU: 0x46CDD, offset: 0x46CDD, size: 0x8, addend: 0x0, symName: '__ZNSt3__112__tuple_leafILm0EONS_9allocatorIZ17setup_environmentvE3$_2EELb0EEC2B8ue170006IS3_vEEOT_', symObjAddr: 0x1E804, symBinAddr: 0x10001F6D8, symSize: 0x20 }
  - { offsetInCU: 0x46D20, offset: 0x46D20, size: 0x8, addend: 0x0, symName: '__ZNSt3__117__compressed_pairIZ17setup_environmentvE3$_2NS_9allocatorIS1_EEEC2B8ue170006IJOS1_EJOS3_EEENS_21piecewise_construct_tENS_5tupleIJDpT_EEENS9_IJDpT0_EEE', symObjAddr: 0x1E824, symBinAddr: 0x10001F6F8, symSize: 0x54 }
  - { offsetInCU: 0x46D8A, offset: 0x46D8A, size: 0x8, addend: 0x0, symName: '__ZNSt3__122__compressed_pair_elemIZ17setup_environmentvE3$_2Li0ELb1EEC2B8ue170006IJOS1_EJLm0EEEENS_21piecewise_construct_tENS_5tupleIJDpT_EEENS_15__tuple_indicesIJXspT0_EEEE', symObjAddr: 0x1E878, symBinAddr: 0x10001F74C, symSize: 0x38 }
  - { offsetInCU: 0x46DED, offset: 0x46DED, size: 0x8, addend: 0x0, symName: '__ZNSt3__122__compressed_pair_elemINS_9allocatorIZ17setup_environmentvE3$_2EELi1ELb1EEC2B8ue170006IJOS3_EJLm0EEEENS_21piecewise_construct_tENS_5tupleIJDpT_EEENS_15__tuple_indicesIJXspT0_EEEE', symObjAddr: 0x1E8B0, symBinAddr: 0x10001F784, symSize: 0x38 }
  - { offsetInCU: 0x46E50, offset: 0x46E50, size: 0x8, addend: 0x0, symName: '__ZNSt3__112__tuple_leafILm0EOZ17setup_environmentvE3$_2Lb0EE3getB8ue170006Ev', symObjAddr: 0x1E90C, symBinAddr: 0x10001F7E0, symSize: 0x18 }
  - { offsetInCU: 0x46E76, offset: 0x46E76, size: 0x8, addend: 0x0, symName: '__ZNSt3__112__tuple_leafILm0EONS_9allocatorIZ17setup_environmentvE3$_2EELb0EE3getB8ue170006Ev', symObjAddr: 0x1E948, symBinAddr: 0x10001F81C, symSize: 0x18 }
  - { offsetInCU: 0x46E9C, offset: 0x46E9C, size: 0x8, addend: 0x0, symName: '__ZNSt3__110__function6__funcIZ17setup_environmentvE3$_2NS_9allocatorIS2_EEF5ValueRKNS_6vectorIS5_NS3_IS5_EEEEEED2Ev', symObjAddr: 0x1E960, symBinAddr: 0x10001F834, symSize: 0x2C }
  - { offsetInCU: 0x46EC9, offset: 0x46EC9, size: 0x8, addend: 0x0, symName: '__ZNKSt3__110__function12__alloc_funcIZ17setup_environmentvE3$_2NS_9allocatorIS2_EEF5ValueRKNS_6vectorIS5_NS3_IS5_EEEEEE15__get_allocatorB8ue170006Ev', symObjAddr: 0x1E98C, symBinAddr: 0x10001F860, symSize: 0x24 }
  - { offsetInCU: 0x46EEF, offset: 0x46EEF, size: 0x8, addend: 0x0, symName: '__ZNSt3__19allocatorINS_10__function6__funcIZ17setup_environmentvE3$_2NS0_IS3_EEF5ValueRKNS_6vectorIS5_NS0_IS5_EEEEEEEE8allocateB8ue170006Em', symObjAddr: 0x1E9B0, symBinAddr: 0x10001F884, symSize: 0x58 }
  - { offsetInCU: 0x46F32, offset: 0x46F32, size: 0x8, addend: 0x0, symName: '__ZNSt3__122__allocator_destructorINS_9allocatorINS_10__function6__funcIZ17setup_environmentvE3$_2NS1_IS4_EEF5ValueRKNS_6vectorIS6_NS1_IS6_EEEEEEEEEEC1B8ue170006ERSE_m', symObjAddr: 0x1EA08, symBinAddr: 0x10001F8DC, symSize: 0x3C }
  - { offsetInCU: 0x47009, offset: 0x47009, size: 0x8, addend: 0x0, symName: '__ZNSt3__110unique_ptrINS_10__function6__funcIZ17setup_environmentvE3$_2NS_9allocatorIS3_EEF5ValueRKNS_6vectorIS6_NS4_IS6_EEEEEEENS_22__allocator_destructorINS4_ISD_EEEEEC1B8ue170006ILb1EvEEPSD_NS_16__dependent_typeINS_27__unique_ptr_deleter_sfinaeISG_EEXT_EE20__good_rval_ref_typeE', symObjAddr: 0x1EA44, symBinAddr: 0x10001F918, symSize: 0x3C }
  - { offsetInCU: 0x4705A, offset: 0x4705A, size: 0x8, addend: 0x0, symName: '__ZNKSt3__110unique_ptrINS_10__function6__funcIZ17setup_environmentvE3$_2NS_9allocatorIS3_EEF5ValueRKNS_6vectorIS6_NS4_IS6_EEEEEEENS_22__allocator_destructorINS4_ISD_EEEEE3getB8ue170006Ev', symObjAddr: 0x1EA80, symBinAddr: 0x10001F954, symSize: 0x28 }
  - { offsetInCU: 0x47080, offset: 0x47080, size: 0x8, addend: 0x0, symName: '__ZNKSt3__110__function12__alloc_funcIZ17setup_environmentvE3$_2NS_9allocatorIS2_EEF5ValueRKNS_6vectorIS5_NS3_IS5_EEEEEE8__targetB8ue170006Ev', symObjAddr: 0x1EAA8, symBinAddr: 0x10001F97C, symSize: 0x24 }
  - { offsetInCU: 0x470A6, offset: 0x470A6, size: 0x8, addend: 0x0, symName: '__ZNSt3__110__function6__funcIZ17setup_environmentvE3$_2NS_9allocatorIS2_EEF5ValueRKNS_6vectorIS5_NS3_IS5_EEEEEEC1B8ue170006ERKS2_OS4_', symObjAddr: 0x1EACC, symBinAddr: 0x10001F9A0, symSize: 0x3C }
  - { offsetInCU: 0x470EE, offset: 0x470EE, size: 0x8, addend: 0x0, symName: '__ZNSt3__110unique_ptrINS_10__function6__funcIZ17setup_environmentvE3$_2NS_9allocatorIS3_EEF5ValueRKNS_6vectorIS6_NS4_IS6_EEEEEEENS_22__allocator_destructorINS4_ISD_EEEEE7releaseB8ue170006Ev', symObjAddr: 0x1EB08, symBinAddr: 0x10001F9DC, symSize: 0x44 }
  - { offsetInCU: 0x47123, offset: 0x47123, size: 0x8, addend: 0x0, symName: '__ZNSt3__110unique_ptrINS_10__function6__funcIZ17setup_environmentvE3$_2NS_9allocatorIS3_EEF5ValueRKNS_6vectorIS6_NS4_IS6_EEEEEEENS_22__allocator_destructorINS4_ISD_EEEEED1B8ue170006Ev', symObjAddr: 0x1EB4C, symBinAddr: 0x10001FA20, symSize: 0x2C }
  - { offsetInCU: 0x4714D, offset: 0x4714D, size: 0x8, addend: 0x0, symName: '__ZNKSt3__117__compressed_pairIZ17setup_environmentvE3$_2NS_9allocatorIS1_EEE6secondB8ue170006Ev', symObjAddr: 0x1EB78, symBinAddr: 0x10001FA4C, symSize: 0x24 }
  - { offsetInCU: 0x47173, offset: 0x47173, size: 0x8, addend: 0x0, symName: '__ZNKSt3__122__compressed_pair_elemINS_9allocatorIZ17setup_environmentvE3$_2EELi1ELb1EE5__getB8ue170006Ev', symObjAddr: 0x1EB9C, symBinAddr: 0x10001FA70, symSize: 0x14 }
  - { offsetInCU: 0x471A3, offset: 0x471A3, size: 0x8, addend: 0x0, symName: '__ZNSt3__116allocator_traitsINS_9allocatorINS_10__function6__funcIZ17setup_environmentvE3$_2NS1_IS4_EEF5ValueRKNS_6vectorIS6_NS1_IS6_EEEEEEEEEE8max_sizeB8ue170006ISE_vvEEmRKSE_', symObjAddr: 0x1EBB0, symBinAddr: 0x10001FA84, symSize: 0x28 }
  - { offsetInCU: 0x471CF, offset: 0x471CF, size: 0x8, addend: 0x0, symName: '__ZNSt3__122__allocator_destructorINS_9allocatorINS_10__function6__funcIZ17setup_environmentvE3$_2NS1_IS4_EEF5ValueRKNS_6vectorIS6_NS1_IS6_EEEEEEEEEEC2B8ue170006ERSE_m', symObjAddr: 0x1EBD8, symBinAddr: 0x10001FAAC, symSize: 0x2C }
  - { offsetInCU: 0x47215, offset: 0x47215, size: 0x8, addend: 0x0, symName: '__ZNSt3__110unique_ptrINS_10__function6__funcIZ17setup_environmentvE3$_2NS_9allocatorIS3_EEF5ValueRKNS_6vectorIS6_NS4_IS6_EEEEEEENS_22__allocator_destructorINS4_ISD_EEEEEC2B8ue170006ILb1EvEEPSD_NS_16__dependent_typeINS_27__unique_ptr_deleter_sfinaeISG_EEXT_EE20__good_rval_ref_typeE', symObjAddr: 0x1EC04, symBinAddr: 0x10001FAD8, symSize: 0x48 }
  - { offsetInCU: 0x47266, offset: 0x47266, size: 0x8, addend: 0x0, symName: '__ZNSt3__117__compressed_pairIPNS_10__function6__funcIZ17setup_environmentvE3$_2NS_9allocatorIS3_EEF5ValueRKNS_6vectorIS6_NS4_IS6_EEEEEEENS_22__allocator_destructorINS4_ISD_EEEEEC1B8ue170006IRSE_SH_EEOT_OT0_', symObjAddr: 0x1EC4C, symBinAddr: 0x10001FB20, symSize: 0x3C }
  - { offsetInCU: 0x472BE, offset: 0x472BE, size: 0x8, addend: 0x0, symName: '__ZNSt3__117__compressed_pairIPNS_10__function6__funcIZ17setup_environmentvE3$_2NS_9allocatorIS3_EEF5ValueRKNS_6vectorIS6_NS4_IS6_EEEEEEENS_22__allocator_destructorINS4_ISD_EEEEEC2B8ue170006IRSE_SH_EEOT_OT0_', symObjAddr: 0x1EC88, symBinAddr: 0x10001FB5C, symSize: 0x48 }
  - { offsetInCU: 0x47316, offset: 0x47316, size: 0x8, addend: 0x0, symName: '__ZNSt3__122__compressed_pair_elemIPNS_10__function6__funcIZ17setup_environmentvE3$_2NS_9allocatorIS3_EEF5ValueRKNS_6vectorIS6_NS4_IS6_EEEEEEELi0ELb0EEC2B8ue170006IRSE_vEEOT_', symObjAddr: 0x1ECD0, symBinAddr: 0x10001FBA4, symSize: 0x24 }
  - { offsetInCU: 0x47358, offset: 0x47358, size: 0x8, addend: 0x0, symName: '__ZNSt3__122__compressed_pair_elemINS_22__allocator_destructorINS_9allocatorINS_10__function6__funcIZ17setup_environmentvE3$_2NS2_IS5_EEF5ValueRKNS_6vectorIS7_NS2_IS7_EEEEEEEEEEELi1ELb0EEC2B8ue170006ISG_vEEOT_', symObjAddr: 0x1ECF4, symBinAddr: 0x10001FBC8, symSize: 0x24 }
  - { offsetInCU: 0x4739A, offset: 0x4739A, size: 0x8, addend: 0x0, symName: '__ZNKSt3__117__compressed_pairIPNS_10__function6__funcIZ17setup_environmentvE3$_2NS_9allocatorIS3_EEF5ValueRKNS_6vectorIS6_NS4_IS6_EEEEEEENS_22__allocator_destructorINS4_ISD_EEEEE5firstB8ue170006Ev', symObjAddr: 0x1ED18, symBinAddr: 0x10001FBEC, symSize: 0x24 }
  - { offsetInCU: 0x473C0, offset: 0x473C0, size: 0x8, addend: 0x0, symName: '__ZNKSt3__122__compressed_pair_elemIPNS_10__function6__funcIZ17setup_environmentvE3$_2NS_9allocatorIS3_EEF5ValueRKNS_6vectorIS6_NS4_IS6_EEEEEEELi0ELb0EE5__getB8ue170006Ev', symObjAddr: 0x1ED3C, symBinAddr: 0x10001FC10, symSize: 0x14 }
  - { offsetInCU: 0x473E6, offset: 0x473E6, size: 0x8, addend: 0x0, symName: '__ZNKSt3__117__compressed_pairIZ17setup_environmentvE3$_2NS_9allocatorIS1_EEE5firstB8ue170006Ev', symObjAddr: 0x1ED50, symBinAddr: 0x10001FC24, symSize: 0x24 }
  - { offsetInCU: 0x4740C, offset: 0x4740C, size: 0x8, addend: 0x0, symName: '__ZNKSt3__122__compressed_pair_elemIZ17setup_environmentvE3$_2Li0ELb1EE5__getB8ue170006Ev', symObjAddr: 0x1ED74, symBinAddr: 0x10001FC48, symSize: 0x14 }
  - { offsetInCU: 0x47432, offset: 0x47432, size: 0x8, addend: 0x0, symName: '__ZNSt3__110__function6__funcIZ17setup_environmentvE3$_2NS_9allocatorIS2_EEF5ValueRKNS_6vectorIS5_NS3_IS5_EEEEEEC2B8ue170006ERKS2_OS4_', symObjAddr: 0x1ED88, symBinAddr: 0x10001FC5C, symSize: 0x88 }
  - { offsetInCU: 0x4747A, offset: 0x4747A, size: 0x8, addend: 0x0, symName: '__ZNSt3__110__function12__alloc_funcIZ17setup_environmentvE3$_2NS_9allocatorIS2_EEF5ValueRKNS_6vectorIS5_NS3_IS5_EEEEEEC1B8ue170006ERKS2_OS4_', symObjAddr: 0x1EE10, symBinAddr: 0x10001FCE4, symSize: 0x3C }
  - { offsetInCU: 0x474C0, offset: 0x474C0, size: 0x8, addend: 0x0, symName: '__ZNSt3__110__function12__alloc_funcIZ17setup_environmentvE3$_2NS_9allocatorIS2_EEF5ValueRKNS_6vectorIS5_NS3_IS5_EEEEEEC2B8ue170006ERKS2_OS4_', symObjAddr: 0x1EE4C, symBinAddr: 0x10001FD20, symSize: 0x5C }
  - { offsetInCU: 0x47506, offset: 0x47506, size: 0x8, addend: 0x0, symName: '__ZNSt3__117__compressed_pairIZ17setup_environmentvE3$_2NS_9allocatorIS1_EEEC1B8ue170006IJRKS1_EJOS3_EEENS_21piecewise_construct_tENS_5tupleIJDpT_EEENSA_IJDpT0_EEE', symObjAddr: 0x1EED4, symBinAddr: 0x10001FDA8, symSize: 0x3C }
  - { offsetInCU: 0x47570, offset: 0x47570, size: 0x8, addend: 0x0, symName: '__ZNSt3__15tupleIJRKZ17setup_environmentvE3$_2EEC1B8ue170006INS_4_AndELi0EEES3_', symObjAddr: 0x1EF10, symBinAddr: 0x10001FDE4, symSize: 0x34 }
  - { offsetInCU: 0x475B9, offset: 0x475B9, size: 0x8, addend: 0x0, symName: '__ZNSt3__15tupleIJRKZ17setup_environmentvE3$_2EEC2B8ue170006INS_4_AndELi0EEES3_', symObjAddr: 0x1EF44, symBinAddr: 0x10001FE18, symSize: 0x34 }
  - { offsetInCU: 0x47602, offset: 0x47602, size: 0x8, addend: 0x0, symName: '__ZNSt3__112__tuple_implINS_15__tuple_indicesIJLm0EEEEJRKZ17setup_environmentvE3$_2EEC1B8ue170006IJLm0EEJS5_EJEJEJS5_EEENS1_IJXspT_EEEENS_13__tuple_typesIJDpT0_EEENS1_IJXspT1_EEEENS9_IJDpT2_EEEDpOT3_', symObjAddr: 0x1EF78, symBinAddr: 0x10001FE4C, symSize: 0x34 }
  - { offsetInCU: 0x47697, offset: 0x47697, size: 0x8, addend: 0x0, symName: '__ZNSt3__112__tuple_implINS_15__tuple_indicesIJLm0EEEEJRKZ17setup_environmentvE3$_2EEC2B8ue170006IJLm0EEJS5_EJEJEJS5_EEENS1_IJXspT_EEEENS_13__tuple_typesIJDpT0_EEENS1_IJXspT1_EEEENS9_IJDpT2_EEEDpOT3_', symObjAddr: 0x1EFAC, symBinAddr: 0x10001FE80, symSize: 0x34 }
  - { offsetInCU: 0x4772C, offset: 0x4772C, size: 0x8, addend: 0x0, symName: '__ZNSt3__112__tuple_leafILm0ERKZ17setup_environmentvE3$_2Lb0EEC2B8ue170006IS3_vEEOT_', symObjAddr: 0x1EFE0, symBinAddr: 0x10001FEB4, symSize: 0x20 }
  - { offsetInCU: 0x4776F, offset: 0x4776F, size: 0x8, addend: 0x0, symName: '__ZNSt3__117__compressed_pairIZ17setup_environmentvE3$_2NS_9allocatorIS1_EEEC2B8ue170006IJRKS1_EJOS3_EEENS_21piecewise_construct_tENS_5tupleIJDpT_EEENSA_IJDpT0_EEE', symObjAddr: 0x1F000, symBinAddr: 0x10001FED4, symSize: 0x54 }
  - { offsetInCU: 0x477D9, offset: 0x477D9, size: 0x8, addend: 0x0, symName: '__ZNSt3__122__compressed_pair_elemIZ17setup_environmentvE3$_2Li0ELb1EEC2B8ue170006IJRKS1_EJLm0EEEENS_21piecewise_construct_tENS_5tupleIJDpT_EEENS_15__tuple_indicesIJXspT0_EEEE', symObjAddr: 0x1F054, symBinAddr: 0x10001FF28, symSize: 0x38 }
  - { offsetInCU: 0x4783C, offset: 0x4783C, size: 0x8, addend: 0x0, symName: '__ZNSt3__112__tuple_leafILm0ERKZ17setup_environmentvE3$_2Lb0EE3getB8ue170006Ev', symObjAddr: 0x1F0B0, symBinAddr: 0x10001FF84, symSize: 0x18 }
  - { offsetInCU: 0x47862, offset: 0x47862, size: 0x8, addend: 0x0, symName: '__ZNSt3__117__compressed_pairIPNS_10__function6__funcIZ17setup_environmentvE3$_2NS_9allocatorIS3_EEF5ValueRKNS_6vectorIS6_NS4_IS6_EEEEEEENS_22__allocator_destructorINS4_ISD_EEEEE5firstB8ue170006Ev', symObjAddr: 0x1F0C8, symBinAddr: 0x10001FF9C, symSize: 0x24 }
  - { offsetInCU: 0x47888, offset: 0x47888, size: 0x8, addend: 0x0, symName: '__ZNSt3__122__compressed_pair_elemIPNS_10__function6__funcIZ17setup_environmentvE3$_2NS_9allocatorIS3_EEF5ValueRKNS_6vectorIS6_NS4_IS6_EEEEEEELi0ELb0EE5__getB8ue170006Ev', symObjAddr: 0x1F0EC, symBinAddr: 0x10001FFC0, symSize: 0x14 }
  - { offsetInCU: 0x478AE, offset: 0x478AE, size: 0x8, addend: 0x0, symName: '__ZNSt3__110unique_ptrINS_10__function6__funcIZ17setup_environmentvE3$_2NS_9allocatorIS3_EEF5ValueRKNS_6vectorIS6_NS4_IS6_EEEEEEENS_22__allocator_destructorINS4_ISD_EEEEED2B8ue170006Ev', symObjAddr: 0x1F100, symBinAddr: 0x10001FFD4, symSize: 0x30 }
  - { offsetInCU: 0x478D8, offset: 0x478D8, size: 0x8, addend: 0x0, symName: '__ZNSt3__110unique_ptrINS_10__function6__funcIZ17setup_environmentvE3$_2NS_9allocatorIS3_EEF5ValueRKNS_6vectorIS6_NS4_IS6_EEEEEEENS_22__allocator_destructorINS4_ISD_EEEEE5resetB8ue170006EPSD_', symObjAddr: 0x1F130, symBinAddr: 0x100020004, symSize: 0x78 }
  - { offsetInCU: 0x4791C, offset: 0x4791C, size: 0x8, addend: 0x0, symName: '__ZNSt3__117__compressed_pairIPNS_10__function6__funcIZ17setup_environmentvE3$_2NS_9allocatorIS3_EEF5ValueRKNS_6vectorIS6_NS4_IS6_EEEEEEENS_22__allocator_destructorINS4_ISD_EEEEE6secondB8ue170006Ev', symObjAddr: 0x1F1A8, symBinAddr: 0x10002007C, symSize: 0x28 }
  - { offsetInCU: 0x47942, offset: 0x47942, size: 0x8, addend: 0x0, symName: '__ZNSt3__122__allocator_destructorINS_9allocatorINS_10__function6__funcIZ17setup_environmentvE3$_2NS1_IS4_EEF5ValueRKNS_6vectorIS6_NS1_IS6_EEEEEEEEEEclB8ue170006EPSD_', symObjAddr: 0x1F1D0, symBinAddr: 0x1000200A4, symSize: 0x34 }
  - { offsetInCU: 0x47976, offset: 0x47976, size: 0x8, addend: 0x0, symName: '__ZNSt3__122__compressed_pair_elemINS_22__allocator_destructorINS_9allocatorINS_10__function6__funcIZ17setup_environmentvE3$_2NS2_IS5_EEF5ValueRKNS_6vectorIS7_NS2_IS7_EEEEEEEEEEELi1ELb0EE5__getB8ue170006Ev', symObjAddr: 0x1F204, symBinAddr: 0x1000200D8, symSize: 0x14 }
  - { offsetInCU: 0x4799C, offset: 0x4799C, size: 0x8, addend: 0x0, symName: '__ZNSt3__116allocator_traitsINS_9allocatorINS_10__function6__funcIZ17setup_environmentvE3$_2NS1_IS4_EEF5ValueRKNS_6vectorIS6_NS1_IS6_EEEEEEEEEE10deallocateB8ue170006ERSE_PSD_m', symObjAddr: 0x1F218, symBinAddr: 0x1000200EC, symSize: 0x34 }
  - { offsetInCU: 0x479DE, offset: 0x479DE, size: 0x8, addend: 0x0, symName: '__ZNSt3__19allocatorINS_10__function6__funcIZ17setup_environmentvE3$_2NS0_IS3_EEF5ValueRKNS_6vectorIS5_NS0_IS5_EEEEEEEE10deallocateB8ue170006EPSC_m', symObjAddr: 0x1F24C, symBinAddr: 0x100020120, symSize: 0x40 }
  - { offsetInCU: 0x47A20, offset: 0x47A20, size: 0x8, addend: 0x0, symName: '__ZNSt3__110__function6__funcIZ17setup_environmentvE3$_2NS_9allocatorIS2_EEF5ValueRKNS_6vectorIS5_NS3_IS5_EEEEEEC1B8ue170006ERKS2_RKS4_', symObjAddr: 0x1F28C, symBinAddr: 0x100020160, symSize: 0x3C }
  - { offsetInCU: 0x47A68, offset: 0x47A68, size: 0x8, addend: 0x0, symName: '__ZNSt3__110__function6__funcIZ17setup_environmentvE3$_2NS_9allocatorIS2_EEF5ValueRKNS_6vectorIS5_NS3_IS5_EEEEEEC2B8ue170006ERKS2_RKS4_', symObjAddr: 0x1F2C8, symBinAddr: 0x10002019C, symSize: 0x88 }
  - { offsetInCU: 0x47AB0, offset: 0x47AB0, size: 0x8, addend: 0x0, symName: '__ZNSt3__110__function12__alloc_funcIZ17setup_environmentvE3$_2NS_9allocatorIS2_EEF5ValueRKNS_6vectorIS5_NS3_IS5_EEEEEEC1B8ue170006ERKS2_RKS4_', symObjAddr: 0x1F350, symBinAddr: 0x100020224, symSize: 0x3C }
  - { offsetInCU: 0x47AF6, offset: 0x47AF6, size: 0x8, addend: 0x0, symName: '__ZNSt3__110__function12__alloc_funcIZ17setup_environmentvE3$_2NS_9allocatorIS2_EEF5ValueRKNS_6vectorIS5_NS3_IS5_EEEEEEC2B8ue170006ERKS2_RKS4_', symObjAddr: 0x1F38C, symBinAddr: 0x100020260, symSize: 0x5C }
  - { offsetInCU: 0x47B3C, offset: 0x47B3C, size: 0x8, addend: 0x0, symName: '__ZNSt3__117__compressed_pairIZ17setup_environmentvE3$_2NS_9allocatorIS1_EEEC1B8ue170006IJRKS1_EJRKS3_EEENS_21piecewise_construct_tENS_5tupleIJDpT_EEENSB_IJDpT0_EEE', symObjAddr: 0x1F414, symBinAddr: 0x1000202E8, symSize: 0x3C }
  - { offsetInCU: 0x47BA6, offset: 0x47BA6, size: 0x8, addend: 0x0, symName: '__ZNSt3__15tupleIJRKNS_9allocatorIZ17setup_environmentvE3$_2EEEEC1B8ue170006INS_4_AndELi0EEES5_', symObjAddr: 0x1F450, symBinAddr: 0x100020324, symSize: 0x34 }
  - { offsetInCU: 0x47BEF, offset: 0x47BEF, size: 0x8, addend: 0x0, symName: '__ZNSt3__15tupleIJRKNS_9allocatorIZ17setup_environmentvE3$_2EEEEC2B8ue170006INS_4_AndELi0EEES5_', symObjAddr: 0x1F484, symBinAddr: 0x100020358, symSize: 0x34 }
  - { offsetInCU: 0x47C38, offset: 0x47C38, size: 0x8, addend: 0x0, symName: '__ZNSt3__112__tuple_implINS_15__tuple_indicesIJLm0EEEEJRKNS_9allocatorIZ17setup_environmentvE3$_2EEEEC1B8ue170006IJLm0EEJS7_EJEJEJS7_EEENS1_IJXspT_EEEENS_13__tuple_typesIJDpT0_EEENS1_IJXspT1_EEEENSB_IJDpT2_EEEDpOT3_', symObjAddr: 0x1F4B8, symBinAddr: 0x10002038C, symSize: 0x34 }
  - { offsetInCU: 0x47CCD, offset: 0x47CCD, size: 0x8, addend: 0x0, symName: '__ZNSt3__112__tuple_implINS_15__tuple_indicesIJLm0EEEEJRKNS_9allocatorIZ17setup_environmentvE3$_2EEEEC2B8ue170006IJLm0EEJS7_EJEJEJS7_EEENS1_IJXspT_EEEENS_13__tuple_typesIJDpT0_EEENS1_IJXspT1_EEEENSB_IJDpT2_EEEDpOT3_', symObjAddr: 0x1F4EC, symBinAddr: 0x1000203C0, symSize: 0x34 }
  - { offsetInCU: 0x47D62, offset: 0x47D62, size: 0x8, addend: 0x0, symName: '__ZNSt3__112__tuple_leafILm0ERKNS_9allocatorIZ17setup_environmentvE3$_2EELb0EEC2B8ue170006IS5_vEEOT_', symObjAddr: 0x1F520, symBinAddr: 0x1000203F4, symSize: 0x20 }
  - { offsetInCU: 0x47DA5, offset: 0x47DA5, size: 0x8, addend: 0x0, symName: '__ZNSt3__117__compressed_pairIZ17setup_environmentvE3$_2NS_9allocatorIS1_EEEC2B8ue170006IJRKS1_EJRKS3_EEENS_21piecewise_construct_tENS_5tupleIJDpT_EEENSB_IJDpT0_EEE', symObjAddr: 0x1F540, symBinAddr: 0x100020414, symSize: 0x54 }
  - { offsetInCU: 0x47E0F, offset: 0x47E0F, size: 0x8, addend: 0x0, symName: '__ZNSt3__122__compressed_pair_elemINS_9allocatorIZ17setup_environmentvE3$_2EELi1ELb1EEC2B8ue170006IJRKS3_EJLm0EEEENS_21piecewise_construct_tENS_5tupleIJDpT_EEENS_15__tuple_indicesIJXspT0_EEEE', symObjAddr: 0x1F594, symBinAddr: 0x100020468, symSize: 0x38 }
